
build/out/kernel.elf:     file format elf32-littlearm


Disassembly of section .text:

08000000 <kernel_start-0x40>:
 8000000:	20001fff 	strdcs	r1, [r0], -pc	; <UNPREDICTABLE>
 8000004:	08000041 	stmdaeq	r0, {r0, r6}
 8000008:	00000000 	andeq	r0, r0, r0
 800000c:	08000ab1 	stmdaeq	r0, {r0, r4, r5, r7, r9, fp}
	...
 800003c:	080008d9 	stmdaeq	r0, {r0, r3, r4, r6, r7, fp}

08000040 <kernel_start>:
 8000040:	b661      	cpsie	f
 8000042:	f000 bacd 	b.w	80005e0 <kernel>
	...

08000048 <process1>:
 8000048:	b580      	push	{r7, lr}
 800004a:	b082      	sub	sp, #8
 800004c:	af00      	add	r7, sp, #0
 800004e:	2004      	movs	r0, #4
 8000050:	f000 fe16 	bl	8000c80 <malloc>
 8000054:	6038      	str	r0, [r7, #0]
 8000056:	2200      	movs	r2, #0
 8000058:	210d      	movs	r1, #13
 800005a:	2003      	movs	r0, #3
 800005c:	f000 ffc0 	bl	8000fe0 <configPin>
 8000060:	683b      	ldr	r3, [r7, #0]
 8000062:	2200      	movs	r2, #0
 8000064:	601a      	str	r2, [r3, #0]
 8000066:	2200      	movs	r2, #0
 8000068:	210d      	movs	r1, #13
 800006a:	2003      	movs	r0, #3
 800006c:	f001 f94e 	bl	800130c <setPin>
 8000070:	2300      	movs	r3, #0
 8000072:	607b      	str	r3, [r7, #4]
 8000074:	e002      	b.n	800007c <process1+0x34>
 8000076:	687b      	ldr	r3, [r7, #4]
 8000078:	3301      	adds	r3, #1
 800007a:	607b      	str	r3, [r7, #4]
 800007c:	687b      	ldr	r3, [r7, #4]
 800007e:	f246 12a7 	movw	r2, #24999	; 0x61a7
 8000082:	4293      	cmp	r3, r2
 8000084:	d9f7      	bls.n	8000076 <process1+0x2e>
 8000086:	683b      	ldr	r3, [r7, #0]
 8000088:	2201      	movs	r2, #1
 800008a:	601a      	str	r2, [r3, #0]
 800008c:	2201      	movs	r2, #1
 800008e:	210d      	movs	r1, #13
 8000090:	2003      	movs	r0, #3
 8000092:	f001 f93b 	bl	800130c <setPin>
 8000096:	2300      	movs	r3, #0
 8000098:	607b      	str	r3, [r7, #4]
 800009a:	e002      	b.n	80000a2 <process1+0x5a>
 800009c:	687b      	ldr	r3, [r7, #4]
 800009e:	3301      	adds	r3, #1
 80000a0:	607b      	str	r3, [r7, #4]
 80000a2:	687b      	ldr	r3, [r7, #4]
 80000a4:	f246 12a7 	movw	r2, #24999	; 0x61a7
 80000a8:	4293      	cmp	r3, r2
 80000aa:	d9f7      	bls.n	800009c <process1+0x54>
 80000ac:	e7d8      	b.n	8000060 <process1+0x18>

080000ae <process2>:
 80000ae:	b580      	push	{r7, lr}
 80000b0:	b082      	sub	sp, #8
 80000b2:	af00      	add	r7, sp, #0
 80000b4:	2200      	movs	r2, #0
 80000b6:	2100      	movs	r1, #0
 80000b8:	2001      	movs	r0, #1
 80000ba:	f001 f927 	bl	800130c <setPin>
 80000be:	2300      	movs	r3, #0
 80000c0:	607b      	str	r3, [r7, #4]
 80000c2:	e002      	b.n	80000ca <process2+0x1c>
 80000c4:	687b      	ldr	r3, [r7, #4]
 80000c6:	3301      	adds	r3, #1
 80000c8:	607b      	str	r3, [r7, #4]
 80000ca:	687b      	ldr	r3, [r7, #4]
 80000cc:	4a09      	ldr	r2, [pc, #36]	; (80000f4 <process2+0x46>)
 80000ce:	4293      	cmp	r3, r2
 80000d0:	d9f8      	bls.n	80000c4 <process2+0x16>
 80000d2:	2201      	movs	r2, #1
 80000d4:	2100      	movs	r1, #0
 80000d6:	2001      	movs	r0, #1
 80000d8:	f001 f918 	bl	800130c <setPin>
 80000dc:	2300      	movs	r3, #0
 80000de:	607b      	str	r3, [r7, #4]
 80000e0:	e002      	b.n	80000e8 <process2+0x3a>
 80000e2:	687b      	ldr	r3, [r7, #4]
 80000e4:	3301      	adds	r3, #1
 80000e6:	607b      	str	r3, [r7, #4]
 80000e8:	687b      	ldr	r3, [r7, #4]
 80000ea:	4a02      	ldr	r2, [pc, #8]	; (80000f4 <process2+0x46>)
 80000ec:	4293      	cmp	r3, r2
 80000ee:	d9f8      	bls.n	80000e2 <process2+0x34>
 80000f0:	e7e0      	b.n	80000b4 <process2+0x6>
 80000f2:	bf00      	nop
 80000f4:	000124f7 	strdeq	r2, [r1], -r7

080000f8 <process3>:
 80000f8:	b580      	push	{r7, lr}
 80000fa:	b082      	sub	sp, #8
 80000fc:	af00      	add	r7, sp, #0
 80000fe:	2004      	movs	r0, #4
 8000100:	f000 fdbe 	bl	8000c80 <malloc>
 8000104:	6038      	str	r0, [r7, #0]
 8000106:	2200      	movs	r2, #0
 8000108:	210c      	movs	r1, #12
 800010a:	2002      	movs	r0, #2
 800010c:	f000 ff68 	bl	8000fe0 <configPin>
 8000110:	683b      	ldr	r3, [r7, #0]
 8000112:	2200      	movs	r2, #0
 8000114:	601a      	str	r2, [r3, #0]
 8000116:	683b      	ldr	r3, [r7, #0]
 8000118:	681b      	ldr	r3, [r3, #0]
 800011a:	b2db      	uxtb	r3, r3
 800011c:	461a      	mov	r2, r3
 800011e:	210c      	movs	r1, #12
 8000120:	2002      	movs	r0, #2
 8000122:	f001 f8f3 	bl	800130c <setPin>
 8000126:	2300      	movs	r3, #0
 8000128:	607b      	str	r3, [r7, #4]
 800012a:	e002      	b.n	8000132 <process3+0x3a>
 800012c:	687b      	ldr	r3, [r7, #4]
 800012e:	3301      	adds	r3, #1
 8000130:	607b      	str	r3, [r7, #4]
 8000132:	687b      	ldr	r3, [r7, #4]
 8000134:	4a0c      	ldr	r2, [pc, #48]	; (8000168 <process3+0x70>)
 8000136:	4293      	cmp	r3, r2
 8000138:	d9f8      	bls.n	800012c <process3+0x34>
 800013a:	683b      	ldr	r3, [r7, #0]
 800013c:	2201      	movs	r2, #1
 800013e:	601a      	str	r2, [r3, #0]
 8000140:	683b      	ldr	r3, [r7, #0]
 8000142:	681b      	ldr	r3, [r3, #0]
 8000144:	b2db      	uxtb	r3, r3
 8000146:	461a      	mov	r2, r3
 8000148:	210c      	movs	r1, #12
 800014a:	2002      	movs	r0, #2
 800014c:	f001 f8de 	bl	800130c <setPin>
 8000150:	2300      	movs	r3, #0
 8000152:	607b      	str	r3, [r7, #4]
 8000154:	e002      	b.n	800015c <process3+0x64>
 8000156:	687b      	ldr	r3, [r7, #4]
 8000158:	3301      	adds	r3, #1
 800015a:	607b      	str	r3, [r7, #4]
 800015c:	687b      	ldr	r3, [r7, #4]
 800015e:	4a02      	ldr	r2, [pc, #8]	; (8000168 <process3+0x70>)
 8000160:	4293      	cmp	r3, r2
 8000162:	d9f8      	bls.n	8000156 <process3+0x5e>
 8000164:	e7d4      	b.n	8000110 <process3+0x18>
 8000166:	bf00      	nop
 8000168:	00030d3f 	andeq	r0, r3, pc, lsr sp

0800016c <testADC>:
 800016c:	b580      	push	{r7, lr}
 800016e:	b084      	sub	sp, #16
 8000170:	af00      	add	r7, sp, #0
 8000172:	2300      	movs	r3, #0
 8000174:	60fb      	str	r3, [r7, #12]
 8000176:	e00e      	b.n	8000196 <testADC+0x2a>
 8000178:	68fb      	ldr	r3, [r7, #12]
 800017a:	2b01      	cmp	r3, #1
 800017c:	d007      	beq.n	800018e <testADC+0x22>
 800017e:	68fb      	ldr	r3, [r7, #12]
 8000180:	b2db      	uxtb	r3, r3
 8000182:	2200      	movs	r2, #0
 8000184:	4619      	mov	r1, r3
 8000186:	2001      	movs	r0, #1
 8000188:	f000 ff2a 	bl	8000fe0 <configPin>
 800018c:	e000      	b.n	8000190 <testADC+0x24>
 800018e:	bf00      	nop
 8000190:	68fb      	ldr	r3, [r7, #12]
 8000192:	3301      	adds	r3, #1
 8000194:	60fb      	str	r3, [r7, #12]
 8000196:	68fb      	ldr	r3, [r7, #12]
 8000198:	2b08      	cmp	r3, #8
 800019a:	dded      	ble.n	8000178 <testADC+0xc>
 800019c:	2308      	movs	r3, #8
 800019e:	703b      	strb	r3, [r7, #0]
 80001a0:	463b      	mov	r3, r7
 80001a2:	2101      	movs	r1, #1
 80001a4:	4618      	mov	r0, r3
 80001a6:	f000 fea5 	bl	8000ef4 <startContinuousConversion>
 80001aa:	f000 fefd 	bl	8000fa8 <readDataConverted>
 80001ae:	4603      	mov	r3, r0
 80001b0:	091b      	lsrs	r3, r3, #4
 80001b2:	817b      	strh	r3, [r7, #10]
 80001b4:	2300      	movs	r3, #0
 80001b6:	607b      	str	r3, [r7, #4]
 80001b8:	e01e      	b.n	80001f8 <testADC+0x8c>
 80001ba:	687b      	ldr	r3, [r7, #4]
 80001bc:	2b01      	cmp	r3, #1
 80001be:	d10a      	bne.n	80001d6 <testADC+0x6a>
 80001c0:	897b      	ldrh	r3, [r7, #10]
 80001c2:	b2db      	uxtb	r3, r3
 80001c4:	f003 0301 	and.w	r3, r3, #1
 80001c8:	b2db      	uxtb	r3, r3
 80001ca:	461a      	mov	r2, r3
 80001cc:	2108      	movs	r1, #8
 80001ce:	2001      	movs	r0, #1
 80001d0:	f001 f89c 	bl	800130c <setPin>
 80001d4:	e00a      	b.n	80001ec <testADC+0x80>
 80001d6:	687b      	ldr	r3, [r7, #4]
 80001d8:	b2d9      	uxtb	r1, r3
 80001da:	897b      	ldrh	r3, [r7, #10]
 80001dc:	b2db      	uxtb	r3, r3
 80001de:	f003 0301 	and.w	r3, r3, #1
 80001e2:	b2db      	uxtb	r3, r3
 80001e4:	461a      	mov	r2, r3
 80001e6:	2001      	movs	r0, #1
 80001e8:	f001 f890 	bl	800130c <setPin>
 80001ec:	897b      	ldrh	r3, [r7, #10]
 80001ee:	085b      	lsrs	r3, r3, #1
 80001f0:	817b      	strh	r3, [r7, #10]
 80001f2:	687b      	ldr	r3, [r7, #4]
 80001f4:	3301      	adds	r3, #1
 80001f6:	607b      	str	r3, [r7, #4]
 80001f8:	687b      	ldr	r3, [r7, #4]
 80001fa:	2b07      	cmp	r3, #7
 80001fc:	dddd      	ble.n	80001ba <testADC+0x4e>
 80001fe:	e7d4      	b.n	80001aa <testADC+0x3e>

08000200 <testUSART>:
 8000200:	b580      	push	{r7, lr}
 8000202:	af00      	add	r7, sp, #0
 8000204:	f44f 30e1 	mov.w	r0, #115200	; 0x1c200
 8000208:	f001 fa42 	bl	8001690 <startUSART>
 800020c:	f001 fab0 	bl	8001770 <startUSARTTransmission>
 8000210:	f001 faae 	bl	8001770 <startUSARTTransmission>
 8000214:	2061      	movs	r0, #97	; 0x61
 8000216:	f001 fabf 	bl	8001798 <sendByteViaUSART>
 800021a:	e7f9      	b.n	8000210 <testUSART+0x10>

0800021c <testDelay>:
 800021c:	b580      	push	{r7, lr}
 800021e:	b082      	sub	sp, #8
 8000220:	af00      	add	r7, sp, #0
 8000222:	2200      	movs	r2, #0
 8000224:	210c      	movs	r1, #12
 8000226:	2002      	movs	r0, #2
 8000228:	f000 feda 	bl	8000fe0 <configPin>
 800022c:	2200      	movs	r2, #0
 800022e:	210c      	movs	r1, #12
 8000230:	2002      	movs	r0, #2
 8000232:	f000 fed5 	bl	8000fe0 <configPin>
 8000236:	2301      	movs	r3, #1
 8000238:	607b      	str	r3, [r7, #4]
 800023a:	f000 fadb 	bl	80007f4 <getUsecWorking>
 800023e:	6038      	str	r0, [r7, #0]
 8000240:	bf00      	nop
 8000242:	f000 fad7 	bl	80007f4 <getUsecWorking>
 8000246:	4602      	mov	r2, r0
 8000248:	683b      	ldr	r3, [r7, #0]
 800024a:	1ad3      	subs	r3, r2, r3
 800024c:	4a06      	ldr	r2, [pc, #24]	; (8000268 <testDelay+0x4c>)
 800024e:	4293      	cmp	r3, r2
 8000250:	d9f7      	bls.n	8000242 <testDelay+0x26>
 8000252:	687b      	ldr	r3, [r7, #4]
 8000254:	b2db      	uxtb	r3, r3
 8000256:	461a      	mov	r2, r3
 8000258:	210c      	movs	r1, #12
 800025a:	2002      	movs	r0, #2
 800025c:	f001 f856 	bl	800130c <setPin>
 8000260:	687b      	ldr	r3, [r7, #4]
 8000262:	43db      	mvns	r3, r3
 8000264:	607b      	str	r3, [r7, #4]
 8000266:	e7e8      	b.n	800023a <testDelay+0x1e>
 8000268:	000f423f 	andeq	r4, pc, pc, lsr r2	; <UNPREDICTABLE>

0800026c <test_pwm>:
 800026c:	b580      	push	{r7, lr}
 800026e:	af00      	add	r7, sp, #0
 8000270:	2202      	movs	r2, #2
 8000272:	2101      	movs	r1, #1
 8000274:	2001      	movs	r0, #1
 8000276:	f000 feb3 	bl	8000fe0 <configPin>
 800027a:	f44f 70dc 	mov.w	r0, #440	; 0x1b8
 800027e:	f001 f8e7 	bl	8001450 <setPWM>
 8000282:	e7fe      	b.n	8000282 <test_pwm+0x16>

08000284 <testTIM2>:
 8000284:	b580      	push	{r7, lr}
 8000286:	b082      	sub	sp, #8
 8000288:	af02      	add	r7, sp, #8
 800028a:	2300      	movs	r3, #0
 800028c:	9300      	str	r3, [sp, #0]
 800028e:	2300      	movs	r3, #0
 8000290:	f64f 72ff 	movw	r2, #65535	; 0xffff
 8000294:	21ff      	movs	r1, #255	; 0xff
 8000296:	f04f 4080 	mov.w	r0, #1073741824	; 0x40000000
 800029a:	f001 f927 	bl	80014ec <setTimer>
 800029e:	4b07      	ldr	r3, [pc, #28]	; (80002bc <testTIM2+0x38>)
 80002a0:	681b      	ldr	r3, [r3, #0]
 80002a2:	2b00      	cmp	r3, #0
 80002a4:	d0fb      	beq.n	800029e <testTIM2+0x1a>
 80002a6:	4b05      	ldr	r3, [pc, #20]	; (80002bc <testTIM2+0x38>)
 80002a8:	681b      	ldr	r3, [r3, #0]
 80002aa:	4b04      	ldr	r3, [pc, #16]	; (80002bc <testTIM2+0x38>)
 80002ac:	2200      	movs	r2, #0
 80002ae:	601a      	str	r2, [r3, #0]
 80002b0:	2201      	movs	r2, #1
 80002b2:	210c      	movs	r1, #12
 80002b4:	2002      	movs	r0, #2
 80002b6:	f001 f829 	bl	800130c <setPin>
 80002ba:	e7f0      	b.n	800029e <testTIM2+0x1a>
 80002bc:	40000010 	andmi	r0, r0, r0, lsl r0

080002c0 <testTIM4>:
 80002c0:	b580      	push	{r7, lr}
 80002c2:	b082      	sub	sp, #8
 80002c4:	af02      	add	r7, sp, #8
 80002c6:	2200      	movs	r2, #0
 80002c8:	210d      	movs	r1, #13
 80002ca:	2002      	movs	r0, #2
 80002cc:	f000 fe88 	bl	8000fe0 <configPin>
 80002d0:	2200      	movs	r2, #0
 80002d2:	210d      	movs	r1, #13
 80002d4:	2002      	movs	r0, #2
 80002d6:	f001 f819 	bl	800130c <setPin>
 80002da:	2301      	movs	r3, #1
 80002dc:	9300      	str	r3, [sp, #0]
 80002de:	2300      	movs	r3, #0
 80002e0:	f64f 72ff 	movw	r2, #65535	; 0xffff
 80002e4:	21ff      	movs	r1, #255	; 0xff
 80002e6:	4803      	ldr	r0, [pc, #12]	; (80002f4 <testTIM4+0x34>)
 80002e8:	f001 f900 	bl	80014ec <setTimer>
 80002ec:	201e      	movs	r0, #30
 80002ee:	f000 fb87 	bl	8000a00 <setInterrupt>
 80002f2:	e7fe      	b.n	80002f2 <testTIM4+0x32>
 80002f4:	40000800 	andmi	r0, r0, r0, lsl #16

080002f8 <play_music>:
 80002f8:	b580      	push	{r7, lr}
 80002fa:	b082      	sub	sp, #8
 80002fc:	af00      	add	r7, sp, #0
 80002fe:	2202      	movs	r2, #2
 8000300:	2101      	movs	r1, #1
 8000302:	2001      	movs	r0, #1
 8000304:	f000 fe6c 	bl	8000fe0 <configPin>
 8000308:	20c8      	movs	r0, #200	; 0xc8
 800030a:	f000 fceb 	bl	8000ce4 <setBPM>
 800030e:	2300      	movs	r3, #0
 8000310:	607b      	str	r3, [r7, #4]
 8000312:	e042      	b.n	800039a <play_music+0xa2>
 8000314:	2108      	movs	r1, #8
 8000316:	4884      	ldr	r0, [pc, #528]	; (8000528 <play_music+0x230>)
 8000318:	f000 fd0d 	bl	8000d36 <play_note>
 800031c:	2108      	movs	r1, #8
 800031e:	4883      	ldr	r0, [pc, #524]	; (800052c <play_music+0x234>)
 8000320:	f000 fd09 	bl	8000d36 <play_note>
 8000324:	2104      	movs	r1, #4
 8000326:	4882      	ldr	r0, [pc, #520]	; (8000530 <play_music+0x238>)
 8000328:	f000 fd05 	bl	8000d36 <play_note>
 800032c:	2104      	movs	r1, #4
 800032e:	4880      	ldr	r0, [pc, #512]	; (8000530 <play_music+0x238>)
 8000330:	f000 fd01 	bl	8000d36 <play_note>
 8000334:	2108      	movs	r1, #8
 8000336:	487e      	ldr	r0, [pc, #504]	; (8000530 <play_music+0x238>)
 8000338:	f000 fcfd 	bl	8000d36 <play_note>
 800033c:	2108      	movs	r1, #8
 800033e:	487d      	ldr	r0, [pc, #500]	; (8000534 <play_music+0x23c>)
 8000340:	f000 fcf9 	bl	8000d36 <play_note>
 8000344:	2104      	movs	r1, #4
 8000346:	487c      	ldr	r0, [pc, #496]	; (8000538 <play_music+0x240>)
 8000348:	f000 fcf5 	bl	8000d36 <play_note>
 800034c:	2104      	movs	r1, #4
 800034e:	487a      	ldr	r0, [pc, #488]	; (8000538 <play_music+0x240>)
 8000350:	f000 fcf1 	bl	8000d36 <play_note>
 8000354:	2108      	movs	r1, #8
 8000356:	4878      	ldr	r0, [pc, #480]	; (8000538 <play_music+0x240>)
 8000358:	f000 fced 	bl	8000d36 <play_note>
 800035c:	2108      	movs	r1, #8
 800035e:	4877      	ldr	r0, [pc, #476]	; (800053c <play_music+0x244>)
 8000360:	f000 fce9 	bl	8000d36 <play_note>
 8000364:	2104      	movs	r1, #4
 8000366:	4873      	ldr	r0, [pc, #460]	; (8000534 <play_music+0x23c>)
 8000368:	f000 fce5 	bl	8000d36 <play_note>
 800036c:	2104      	movs	r1, #4
 800036e:	4871      	ldr	r0, [pc, #452]	; (8000534 <play_music+0x23c>)
 8000370:	f000 fce1 	bl	8000d36 <play_note>
 8000374:	2108      	movs	r1, #8
 8000376:	486e      	ldr	r0, [pc, #440]	; (8000530 <play_music+0x238>)
 8000378:	f000 fcdd 	bl	8000d36 <play_note>
 800037c:	2108      	movs	r1, #8
 800037e:	486b      	ldr	r0, [pc, #428]	; (800052c <play_music+0x234>)
 8000380:	f000 fcd9 	bl	8000d36 <play_note>
 8000384:	2104      	movs	r1, #4
 8000386:	486a      	ldr	r0, [pc, #424]	; (8000530 <play_music+0x238>)
 8000388:	f000 fcd5 	bl	8000d36 <play_note>
 800038c:	2104      	movs	r1, #4
 800038e:	4868      	ldr	r0, [pc, #416]	; (8000530 <play_music+0x238>)
 8000390:	f000 fcd1 	bl	8000d36 <play_note>
 8000394:	687b      	ldr	r3, [r7, #4]
 8000396:	3301      	adds	r3, #1
 8000398:	607b      	str	r3, [r7, #4]
 800039a:	687b      	ldr	r3, [r7, #4]
 800039c:	2b01      	cmp	r3, #1
 800039e:	ddb9      	ble.n	8000314 <play_music+0x1c>
 80003a0:	2108      	movs	r1, #8
 80003a2:	4861      	ldr	r0, [pc, #388]	; (8000528 <play_music+0x230>)
 80003a4:	f000 fcc7 	bl	8000d36 <play_note>
 80003a8:	2108      	movs	r1, #8
 80003aa:	4860      	ldr	r0, [pc, #384]	; (800052c <play_music+0x234>)
 80003ac:	f000 fcc3 	bl	8000d36 <play_note>
 80003b0:	2104      	movs	r1, #4
 80003b2:	485f      	ldr	r0, [pc, #380]	; (8000530 <play_music+0x238>)
 80003b4:	f000 fcbf 	bl	8000d36 <play_note>
 80003b8:	2104      	movs	r1, #4
 80003ba:	485d      	ldr	r0, [pc, #372]	; (8000530 <play_music+0x238>)
 80003bc:	f000 fcbb 	bl	8000d36 <play_note>
 80003c0:	2108      	movs	r1, #8
 80003c2:	485b      	ldr	r0, [pc, #364]	; (8000530 <play_music+0x238>)
 80003c4:	f000 fcb7 	bl	8000d36 <play_note>
 80003c8:	2108      	movs	r1, #8
 80003ca:	485a      	ldr	r0, [pc, #360]	; (8000534 <play_music+0x23c>)
 80003cc:	f000 fcb3 	bl	8000d36 <play_note>
 80003d0:	2104      	movs	r1, #4
 80003d2:	4859      	ldr	r0, [pc, #356]	; (8000538 <play_music+0x240>)
 80003d4:	f000 fcaf 	bl	8000d36 <play_note>
 80003d8:	2104      	movs	r1, #4
 80003da:	4857      	ldr	r0, [pc, #348]	; (8000538 <play_music+0x240>)
 80003dc:	f000 fcab 	bl	8000d36 <play_note>
 80003e0:	2108      	movs	r1, #8
 80003e2:	4855      	ldr	r0, [pc, #340]	; (8000538 <play_music+0x240>)
 80003e4:	f000 fca7 	bl	8000d36 <play_note>
 80003e8:	2108      	movs	r1, #8
 80003ea:	4854      	ldr	r0, [pc, #336]	; (800053c <play_music+0x244>)
 80003ec:	f000 fca3 	bl	8000d36 <play_note>
 80003f0:	2104      	movs	r1, #4
 80003f2:	4853      	ldr	r0, [pc, #332]	; (8000540 <play_music+0x248>)
 80003f4:	f000 fc9f 	bl	8000d36 <play_note>
 80003f8:	2104      	movs	r1, #4
 80003fa:	4851      	ldr	r0, [pc, #324]	; (8000540 <play_music+0x248>)
 80003fc:	f000 fc9b 	bl	8000d36 <play_note>
 8000400:	2108      	movs	r1, #8
 8000402:	484e      	ldr	r0, [pc, #312]	; (800053c <play_music+0x244>)
 8000404:	f000 fc97 	bl	8000d36 <play_note>
 8000408:	2108      	movs	r1, #8
 800040a:	484b      	ldr	r0, [pc, #300]	; (8000538 <play_music+0x240>)
 800040c:	f000 fc93 	bl	8000d36 <play_note>
 8000410:	2104      	movs	r1, #4
 8000412:	484a      	ldr	r0, [pc, #296]	; (800053c <play_music+0x244>)
 8000414:	f000 fc8f 	bl	8000d36 <play_note>
 8000418:	2104      	movs	r1, #4
 800041a:	4845      	ldr	r0, [pc, #276]	; (8000530 <play_music+0x238>)
 800041c:	f000 fc8b 	bl	8000d36 <play_note>
 8000420:	2008      	movs	r0, #8
 8000422:	f000 fd47 	bl	8000eb4 <play_pause>
 8000426:	2108      	movs	r1, #8
 8000428:	4842      	ldr	r0, [pc, #264]	; (8000534 <play_music+0x23c>)
 800042a:	f000 fc84 	bl	8000d36 <play_note>
 800042e:	2104      	movs	r1, #4
 8000430:	4841      	ldr	r0, [pc, #260]	; (8000538 <play_music+0x240>)
 8000432:	f000 fc80 	bl	8000d36 <play_note>
 8000436:	2104      	movs	r1, #4
 8000438:	483f      	ldr	r0, [pc, #252]	; (8000538 <play_music+0x240>)
 800043a:	f000 fc7c 	bl	8000d36 <play_note>
 800043e:	2104      	movs	r1, #4
 8000440:	483e      	ldr	r0, [pc, #248]	; (800053c <play_music+0x244>)
 8000442:	f000 fc78 	bl	8000d36 <play_note>
 8000446:	2108      	movs	r1, #8
 8000448:	483d      	ldr	r0, [pc, #244]	; (8000540 <play_music+0x248>)
 800044a:	f000 fc74 	bl	8000d36 <play_note>
 800044e:	2104      	movs	r1, #4
 8000450:	4837      	ldr	r0, [pc, #220]	; (8000530 <play_music+0x238>)
 8000452:	f000 fc70 	bl	8000d36 <play_note>
 8000456:	2008      	movs	r0, #8
 8000458:	f000 fd2c 	bl	8000eb4 <play_pause>
 800045c:	2108      	movs	r1, #8
 800045e:	4834      	ldr	r0, [pc, #208]	; (8000530 <play_music+0x238>)
 8000460:	f000 fc69 	bl	8000d36 <play_note>
 8000464:	2108      	movs	r1, #8
 8000466:	4834      	ldr	r0, [pc, #208]	; (8000538 <play_music+0x240>)
 8000468:	f000 fc65 	bl	8000d36 <play_note>
 800046c:	2104      	movs	r1, #4
 800046e:	4831      	ldr	r0, [pc, #196]	; (8000534 <play_music+0x23c>)
 8000470:	f000 fc61 	bl	8000d36 <play_note>
 8000474:	2104      	movs	r1, #4
 8000476:	482f      	ldr	r0, [pc, #188]	; (8000534 <play_music+0x23c>)
 8000478:	f000 fc5d 	bl	8000d36 <play_note>
 800047c:	2108      	movs	r1, #8
 800047e:	482d      	ldr	r0, [pc, #180]	; (8000534 <play_music+0x23c>)
 8000480:	f000 fc59 	bl	8000d36 <play_note>
 8000484:	2108      	movs	r1, #8
 8000486:	482a      	ldr	r0, [pc, #168]	; (8000530 <play_music+0x238>)
 8000488:	f000 fc55 	bl	8000d36 <play_note>
 800048c:	2102      	movs	r1, #2
 800048e:	4829      	ldr	r0, [pc, #164]	; (8000534 <play_music+0x23c>)
 8000490:	f000 fc51 	bl	8000d36 <play_note>
 8000494:	2004      	movs	r0, #4
 8000496:	f000 fd0d 	bl	8000eb4 <play_pause>
 800049a:	2102      	movs	r1, #2
 800049c:	4828      	ldr	r0, [pc, #160]	; (8000540 <play_music+0x248>)
 800049e:	f000 fc4a 	bl	8000d36 <play_note>
 80004a2:	2102      	movs	r1, #2
 80004a4:	4827      	ldr	r0, [pc, #156]	; (8000544 <play_music+0x24c>)
 80004a6:	f000 fc46 	bl	8000d36 <play_note>
 80004aa:	2108      	movs	r1, #8
 80004ac:	4824      	ldr	r0, [pc, #144]	; (8000540 <play_music+0x248>)
 80004ae:	f000 fc42 	bl	8000d36 <play_note>
 80004b2:	2010      	movs	r0, #16
 80004b4:	f000 fcfe 	bl	8000eb4 <play_pause>
 80004b8:	2108      	movs	r1, #8
 80004ba:	4821      	ldr	r0, [pc, #132]	; (8000540 <play_music+0x248>)
 80004bc:	f000 fc3b 	bl	8000d36 <play_note>
 80004c0:	2010      	movs	r0, #16
 80004c2:	f000 fcf7 	bl	8000eb4 <play_pause>
 80004c6:	2108      	movs	r1, #8
 80004c8:	481d      	ldr	r0, [pc, #116]	; (8000540 <play_music+0x248>)
 80004ca:	f000 fc34 	bl	8000d36 <play_note>
 80004ce:	2110      	movs	r1, #16
 80004d0:	481b      	ldr	r0, [pc, #108]	; (8000540 <play_music+0x248>)
 80004d2:	f000 fc30 	bl	8000d36 <play_note>
 80004d6:	2102      	movs	r1, #2
 80004d8:	4818      	ldr	r0, [pc, #96]	; (800053c <play_music+0x244>)
 80004da:	f000 fc2c 	bl	8000d36 <play_note>
 80004de:	2102      	movs	r1, #2
 80004e0:	4816      	ldr	r0, [pc, #88]	; (800053c <play_music+0x244>)
 80004e2:	f000 fc28 	bl	8000d36 <play_note>
 80004e6:	2102      	movs	r1, #2
 80004e8:	4813      	ldr	r0, [pc, #76]	; (8000538 <play_music+0x240>)
 80004ea:	f000 fc24 	bl	8000d36 <play_note>
 80004ee:	2108      	movs	r1, #8
 80004f0:	4810      	ldr	r0, [pc, #64]	; (8000534 <play_music+0x23c>)
 80004f2:	f000 fc20 	bl	8000d36 <play_note>
 80004f6:	2010      	movs	r0, #16
 80004f8:	f000 fcdc 	bl	8000eb4 <play_pause>
 80004fc:	2108      	movs	r1, #8
 80004fe:	480e      	ldr	r0, [pc, #56]	; (8000538 <play_music+0x240>)
 8000500:	f000 fc19 	bl	8000d36 <play_note>
 8000504:	2010      	movs	r0, #16
 8000506:	f000 fcd5 	bl	8000eb4 <play_pause>
 800050a:	2108      	movs	r1, #8
 800050c:	4809      	ldr	r0, [pc, #36]	; (8000534 <play_music+0x23c>)
 800050e:	f000 fc12 	bl	8000d36 <play_note>
 8000512:	2102      	movs	r1, #2
 8000514:	4806      	ldr	r0, [pc, #24]	; (8000530 <play_music+0x238>)
 8000516:	f000 fc0e 	bl	8000d36 <play_note>
 800051a:	2004      	movs	r0, #4
 800051c:	f000 fcca 	bl	8000eb4 <play_pause>
 8000520:	f000 f812 	bl	8000548 <dukes_of_hazard_music>
 8000524:	e6f3      	b.n	800030e <play_music+0x16>
 8000526:	bf00      	nop
 8000528:	08001b08 	stmdaeq	r0, {r3, r8, r9, fp, ip}
 800052c:	08001b0c 	stmdaeq	r0, {r2, r3, r8, r9, fp, ip}
 8000530:	08001b10 	stmdaeq	r0, {r4, r8, r9, fp, ip}
 8000534:	08001b14 	stmdaeq	r0, {r2, r4, r8, r9, fp, ip}
 8000538:	08001b18 	stmdaeq	r0, {r3, r4, r8, r9, fp, ip}
 800053c:	08001b1c 	stmdaeq	r0, {r2, r3, r4, r8, r9, fp, ip}
 8000540:	08001b20 	stmdaeq	r0, {r5, r8, r9, fp, ip}
 8000544:	08001b24 	stmdaeq	r0, {r2, r5, r8, r9, fp, ip}

08000548 <dukes_of_hazard_music>:
 8000548:	b580      	push	{r7, lr}
 800054a:	af00      	add	r7, sp, #0
 800054c:	2202      	movs	r2, #2
 800054e:	2101      	movs	r1, #1
 8000550:	2001      	movs	r0, #1
 8000552:	f000 fd45 	bl	8000fe0 <configPin>
 8000556:	20c8      	movs	r0, #200	; 0xc8
 8000558:	f000 fbc4 	bl	8000ce4 <setBPM>
 800055c:	2108      	movs	r1, #8
 800055e:	481b      	ldr	r0, [pc, #108]	; (80005cc <dukes_of_hazard_music+0x84>)
 8000560:	f000 fbe9 	bl	8000d36 <play_note>
 8000564:	2108      	movs	r1, #8
 8000566:	481a      	ldr	r0, [pc, #104]	; (80005d0 <dukes_of_hazard_music+0x88>)
 8000568:	f000 fbe5 	bl	8000d36 <play_note>
 800056c:	2104      	movs	r1, #4
 800056e:	4819      	ldr	r0, [pc, #100]	; (80005d4 <dukes_of_hazard_music+0x8c>)
 8000570:	f000 fbe1 	bl	8000d36 <play_note>
 8000574:	2104      	movs	r1, #4
 8000576:	4817      	ldr	r0, [pc, #92]	; (80005d4 <dukes_of_hazard_music+0x8c>)
 8000578:	f000 fbdd 	bl	8000d36 <play_note>
 800057c:	2108      	movs	r1, #8
 800057e:	4815      	ldr	r0, [pc, #84]	; (80005d4 <dukes_of_hazard_music+0x8c>)
 8000580:	f000 fbd9 	bl	8000d36 <play_note>
 8000584:	2108      	movs	r1, #8
 8000586:	4814      	ldr	r0, [pc, #80]	; (80005d8 <dukes_of_hazard_music+0x90>)
 8000588:	f000 fbd5 	bl	8000d36 <play_note>
 800058c:	2108      	movs	r1, #8
 800058e:	4810      	ldr	r0, [pc, #64]	; (80005d0 <dukes_of_hazard_music+0x88>)
 8000590:	f000 fbd1 	bl	8000d36 <play_note>
 8000594:	2108      	movs	r1, #8
 8000596:	4811      	ldr	r0, [pc, #68]	; (80005dc <dukes_of_hazard_music+0x94>)
 8000598:	f000 fbcd 	bl	8000d36 <play_note>
 800059c:	2104      	movs	r1, #4
 800059e:	480b      	ldr	r0, [pc, #44]	; (80005cc <dukes_of_hazard_music+0x84>)
 80005a0:	f000 fbc9 	bl	8000d36 <play_note>
 80005a4:	2108      	movs	r1, #8
 80005a6:	4809      	ldr	r0, [pc, #36]	; (80005cc <dukes_of_hazard_music+0x84>)
 80005a8:	f000 fbc5 	bl	8000d36 <play_note>
 80005ac:	2104      	movs	r1, #4
 80005ae:	4807      	ldr	r0, [pc, #28]	; (80005cc <dukes_of_hazard_music+0x84>)
 80005b0:	f000 fbc1 	bl	8000d36 <play_note>
 80005b4:	2104      	movs	r1, #4
 80005b6:	4806      	ldr	r0, [pc, #24]	; (80005d0 <dukes_of_hazard_music+0x88>)
 80005b8:	f000 fbbd 	bl	8000d36 <play_note>
 80005bc:	2001      	movs	r0, #1
 80005be:	f000 fc79 	bl	8000eb4 <play_pause>
 80005c2:	2001      	movs	r0, #1
 80005c4:	f000 fc76 	bl	8000eb4 <play_pause>
 80005c8:	e7c8      	b.n	800055c <dukes_of_hazard_music+0x14>
 80005ca:	bf00      	nop
 80005cc:	08001b28 	stmdaeq	r0, {r3, r5, r8, r9, fp, ip}
 80005d0:	08001b2c 	stmdaeq	r0, {r2, r3, r5, r8, r9, fp, ip}
 80005d4:	08001b30 	stmdaeq	r0, {r4, r5, r8, r9, fp, ip}
 80005d8:	08001b34 	stmdaeq	r0, {r2, r4, r5, r8, r9, fp, ip}
 80005dc:	08001b38 	stmdaeq	r0, {r3, r4, r5, r8, r9, fp, ip}

080005e0 <kernel>:
 80005e0:	b580      	push	{r7, lr}
 80005e2:	af00      	add	r7, sp, #0
 80005e4:	f000 fae8 	bl	8000bb8 <disableUnalignedAddressFault>
 80005e8:	f000 fb30 	bl	8000c4c <initDallocSpace>
 80005ec:	f000 faf2 	bl	8000bd4 <initProcessPages>
 80005f0:	f000 f826 	bl	8000640 <enable_external_clock>
 80005f4:	f000 f838 	bl	8000668 <enableGpioClocks>
 80005f8:	f000 f844 	bl	8000684 <enable_timer_clocks>
 80005fc:	f000 f850 	bl	80006a0 <enableADCClocks>
 8000600:	2004      	movs	r0, #4
 8000602:	f000 f871 	bl	80006e8 <enable_external_clock_pll>
 8000606:	f000 f859 	bl	80006bc <enable_uart_clocks>
 800060a:	f000 f90f 	bl	800082c <startScheduler>
 800060e:	4808      	ldr	r0, [pc, #32]	; (8000630 <kernel+0x50>)
 8000610:	f001 f96a 	bl	80018e8 <createNewProcess>
 8000614:	4807      	ldr	r0, [pc, #28]	; (8000634 <kernel+0x54>)
 8000616:	f001 f967 	bl	80018e8 <createNewProcess>
 800061a:	4807      	ldr	r0, [pc, #28]	; (8000638 <kernel+0x58>)
 800061c:	f001 f964 	bl	80018e8 <createNewProcess>
 8000620:	4806      	ldr	r0, [pc, #24]	; (800063c <kernel+0x5c>)
 8000622:	f001 f961 	bl	80018e8 <createNewProcess>
 8000626:	f7ff fd0f 	bl	8000048 <process1>
 800062a:	bf00      	nop
 800062c:	bd80      	pop	{r7, pc}
 800062e:	bf00      	nop
 8000630:	08000049 	stmdaeq	r0, {r0, r3, r6}
 8000634:	0800021d 	stmdaeq	r0, {r0, r2, r3, r4, r9}
 8000638:	0800016d 	stmdaeq	r0, {r0, r2, r3, r5, r6, r8}
 800063c:	080002c1 	stmdaeq	r0, {r0, r6, r7, r9}

08000640 <enable_external_clock>:
 8000640:	b480      	push	{r7}
 8000642:	af00      	add	r7, sp, #0
 8000644:	4b07      	ldr	r3, [pc, #28]	; (8000664 <enable_external_clock+0x24>)
 8000646:	681b      	ldr	r3, [r3, #0]
 8000648:	4a06      	ldr	r2, [pc, #24]	; (8000664 <enable_external_clock+0x24>)
 800064a:	f443 3380 	orr.w	r3, r3, #65536	; 0x10000
 800064e:	6013      	str	r3, [r2, #0]
 8000650:	4b04      	ldr	r3, [pc, #16]	; (8000664 <enable_external_clock+0x24>)
 8000652:	681b      	ldr	r3, [r3, #0]
 8000654:	4a03      	ldr	r2, [pc, #12]	; (8000664 <enable_external_clock+0x24>)
 8000656:	f443 3380 	orr.w	r3, r3, #65536	; 0x10000
 800065a:	6013      	str	r3, [r2, #0]
 800065c:	bf00      	nop
 800065e:	46bd      	mov	sp, r7
 8000660:	bc80      	pop	{r7}
 8000662:	4770      	bx	lr
 8000664:	40021000 	andmi	r1, r2, r0

08000668 <enableGpioClocks>:
 8000668:	b480      	push	{r7}
 800066a:	af00      	add	r7, sp, #0
 800066c:	4b04      	ldr	r3, [pc, #16]	; (8000680 <enableGpioClocks+0x18>)
 800066e:	681b      	ldr	r3, [r3, #0]
 8000670:	4a03      	ldr	r2, [pc, #12]	; (8000680 <enableGpioClocks+0x18>)
 8000672:	f043 037c 	orr.w	r3, r3, #124	; 0x7c
 8000676:	6013      	str	r3, [r2, #0]
 8000678:	bf00      	nop
 800067a:	46bd      	mov	sp, r7
 800067c:	bc80      	pop	{r7}
 800067e:	4770      	bx	lr
 8000680:	40021018 	andmi	r1, r2, r8, lsl r0

08000684 <enable_timer_clocks>:
 8000684:	b480      	push	{r7}
 8000686:	af00      	add	r7, sp, #0
 8000688:	4b04      	ldr	r3, [pc, #16]	; (800069c <enable_timer_clocks+0x18>)
 800068a:	681b      	ldr	r3, [r3, #0]
 800068c:	4a03      	ldr	r2, [pc, #12]	; (800069c <enable_timer_clocks+0x18>)
 800068e:	f043 033f 	orr.w	r3, r3, #63	; 0x3f
 8000692:	6013      	str	r3, [r2, #0]
 8000694:	bf00      	nop
 8000696:	46bd      	mov	sp, r7
 8000698:	bc80      	pop	{r7}
 800069a:	4770      	bx	lr
 800069c:	4002101c 	andmi	r1, r2, ip, lsl r0

080006a0 <enableADCClocks>:
 80006a0:	b480      	push	{r7}
 80006a2:	af00      	add	r7, sp, #0
 80006a4:	4b04      	ldr	r3, [pc, #16]	; (80006b8 <enableADCClocks+0x18>)
 80006a6:	681b      	ldr	r3, [r3, #0]
 80006a8:	4a03      	ldr	r2, [pc, #12]	; (80006b8 <enableADCClocks+0x18>)
 80006aa:	f443 4306 	orr.w	r3, r3, #34304	; 0x8600
 80006ae:	6013      	str	r3, [r2, #0]
 80006b0:	bf00      	nop
 80006b2:	46bd      	mov	sp, r7
 80006b4:	bc80      	pop	{r7}
 80006b6:	4770      	bx	lr
 80006b8:	40021018 	andmi	r1, r2, r8, lsl r0

080006bc <enable_uart_clocks>:
 80006bc:	b480      	push	{r7}
 80006be:	af00      	add	r7, sp, #0
 80006c0:	4b07      	ldr	r3, [pc, #28]	; (80006e0 <enable_uart_clocks+0x24>)
 80006c2:	681b      	ldr	r3, [r3, #0]
 80006c4:	4a06      	ldr	r2, [pc, #24]	; (80006e0 <enable_uart_clocks+0x24>)
 80006c6:	f443 3300 	orr.w	r3, r3, #131072	; 0x20000
 80006ca:	6013      	str	r3, [r2, #0]
 80006cc:	4b05      	ldr	r3, [pc, #20]	; (80006e4 <enable_uart_clocks+0x28>)
 80006ce:	681b      	ldr	r3, [r3, #0]
 80006d0:	4a04      	ldr	r2, [pc, #16]	; (80006e4 <enable_uart_clocks+0x28>)
 80006d2:	f043 0301 	orr.w	r3, r3, #1
 80006d6:	6013      	str	r3, [r2, #0]
 80006d8:	bf00      	nop
 80006da:	46bd      	mov	sp, r7
 80006dc:	bc80      	pop	{r7}
 80006de:	4770      	bx	lr
 80006e0:	4002101c 	andmi	r1, r2, ip, lsl r0
 80006e4:	40021018 	andmi	r1, r2, r8, lsl r0

080006e8 <enable_external_clock_pll>:
 80006e8:	b480      	push	{r7}
 80006ea:	b085      	sub	sp, #20
 80006ec:	af00      	add	r7, sp, #0
 80006ee:	4603      	mov	r3, r0
 80006f0:	71fb      	strb	r3, [r7, #7]
 80006f2:	4b16      	ldr	r3, [pc, #88]	; (800074c <enable_external_clock_pll+0x64>)
 80006f4:	681b      	ldr	r3, [r3, #0]
 80006f6:	4a15      	ldr	r2, [pc, #84]	; (800074c <enable_external_clock_pll+0x64>)
 80006f8:	f443 3380 	orr.w	r3, r3, #65536	; 0x10000
 80006fc:	6013      	str	r3, [r2, #0]
 80006fe:	4b13      	ldr	r3, [pc, #76]	; (800074c <enable_external_clock_pll+0x64>)
 8000700:	681b      	ldr	r3, [r3, #0]
 8000702:	4a12      	ldr	r2, [pc, #72]	; (800074c <enable_external_clock_pll+0x64>)
 8000704:	f423 1370 	bic.w	r3, r3, #3932160	; 0x3c0000
 8000708:	6013      	str	r3, [r2, #0]
 800070a:	79fb      	ldrb	r3, [r7, #7]
 800070c:	3b02      	subs	r3, #2
 800070e:	60fb      	str	r3, [r7, #12]
 8000710:	4b0e      	ldr	r3, [pc, #56]	; (800074c <enable_external_clock_pll+0x64>)
 8000712:	681a      	ldr	r2, [r3, #0]
 8000714:	68fb      	ldr	r3, [r7, #12]
 8000716:	049b      	lsls	r3, r3, #18
 8000718:	490c      	ldr	r1, [pc, #48]	; (800074c <enable_external_clock_pll+0x64>)
 800071a:	4313      	orrs	r3, r2
 800071c:	600b      	str	r3, [r1, #0]
 800071e:	4b0c      	ldr	r3, [pc, #48]	; (8000750 <enable_external_clock_pll+0x68>)
 8000720:	681b      	ldr	r3, [r3, #0]
 8000722:	4a0b      	ldr	r2, [pc, #44]	; (8000750 <enable_external_clock_pll+0x68>)
 8000724:	f043 7380 	orr.w	r3, r3, #16777216	; 0x1000000
 8000728:	6013      	str	r3, [r2, #0]
 800072a:	4b08      	ldr	r3, [pc, #32]	; (800074c <enable_external_clock_pll+0x64>)
 800072c:	681b      	ldr	r3, [r3, #0]
 800072e:	4a07      	ldr	r2, [pc, #28]	; (800074c <enable_external_clock_pll+0x64>)
 8000730:	f023 0301 	bic.w	r3, r3, #1
 8000734:	6013      	str	r3, [r2, #0]
 8000736:	4b05      	ldr	r3, [pc, #20]	; (800074c <enable_external_clock_pll+0x64>)
 8000738:	681b      	ldr	r3, [r3, #0]
 800073a:	4a04      	ldr	r2, [pc, #16]	; (800074c <enable_external_clock_pll+0x64>)
 800073c:	f043 0302 	orr.w	r3, r3, #2
 8000740:	6013      	str	r3, [r2, #0]
 8000742:	bf00      	nop
 8000744:	3714      	adds	r7, #20
 8000746:	46bd      	mov	sp, r7
 8000748:	bc80      	pop	{r7}
 800074a:	4770      	bx	lr
 800074c:	40021004 	andmi	r1, r2, r4
 8000750:	40021000 	andmi	r1, r2, r0

08000754 <getClockFreq>:
 8000754:	b480      	push	{r7}
 8000756:	b085      	sub	sp, #20
 8000758:	af00      	add	r7, sp, #0
 800075a:	f44f 53fa 	mov.w	r3, #8000	; 0x1f40
 800075e:	60fb      	str	r3, [r7, #12]
 8000760:	4b0d      	ldr	r3, [pc, #52]	; (8000798 <getClockFreq+0x44>)
 8000762:	681b      	ldr	r3, [r3, #0]
 8000764:	0e1b      	lsrs	r3, r3, #24
 8000766:	f003 0301 	and.w	r3, r3, #1
 800076a:	60bb      	str	r3, [r7, #8]
 800076c:	4b0b      	ldr	r3, [pc, #44]	; (800079c <getClockFreq+0x48>)
 800076e:	681b      	ldr	r3, [r3, #0]
 8000770:	0c9b      	lsrs	r3, r3, #18
 8000772:	f003 030f 	and.w	r3, r3, #15
 8000776:	3302      	adds	r3, #2
 8000778:	607b      	str	r3, [r7, #4]
 800077a:	68bb      	ldr	r3, [r7, #8]
 800077c:	2b00      	cmp	r3, #0
 800077e:	d005      	beq.n	800078c <getClockFreq+0x38>
 8000780:	687b      	ldr	r3, [r7, #4]
 8000782:	f44f 52fa 	mov.w	r2, #8000	; 0x1f40
 8000786:	fb02 f303 	mul.w	r3, r2, r3
 800078a:	60fb      	str	r3, [r7, #12]
 800078c:	68fb      	ldr	r3, [r7, #12]
 800078e:	4618      	mov	r0, r3
 8000790:	3714      	adds	r7, #20
 8000792:	46bd      	mov	sp, r7
 8000794:	bc80      	pop	{r7}
 8000796:	4770      	bx	lr
 8000798:	40021000 	andmi	r1, r2, r0
 800079c:	40021004 	andmi	r1, r2, r4

080007a0 <delay_1_msec>:
 80007a0:	b401      	push	{r0}

080007a2 <delay_loop>:
 80007a2:	f1a0 0001 	sub.w	r0, r0, #1
 80007a6:	2800      	cmp	r0, #0
 80007a8:	d1fb      	bne.n	80007a2 <delay_loop>
 80007aa:	bc01      	pop	{r0}
 80007ac:	4770      	bx	lr
 80007ae:	bf00      	nop

080007b0 <delay_msec>:
 80007b0:	b580      	push	{r7, lr}
 80007b2:	b084      	sub	sp, #16
 80007b4:	af00      	add	r7, sp, #0
 80007b6:	6078      	str	r0, [r7, #4]
 80007b8:	f7ff ffcc 	bl	8000754 <getClockFreq>
 80007bc:	60b8      	str	r0, [r7, #8]
 80007be:	68bb      	ldr	r3, [r7, #8]
 80007c0:	085b      	lsrs	r3, r3, #1
 80007c2:	4a0b      	ldr	r2, [pc, #44]	; (80007f0 <delay_msec+0x40>)
 80007c4:	fba2 2303 	umull	r2, r3, r2, r3
 80007c8:	089b      	lsrs	r3, r3, #2
 80007ca:	60bb      	str	r3, [r7, #8]
 80007cc:	2300      	movs	r3, #0
 80007ce:	60fb      	str	r3, [r7, #12]
 80007d0:	e005      	b.n	80007de <delay_msec+0x2e>
 80007d2:	68b8      	ldr	r0, [r7, #8]
 80007d4:	f7ff ffe4 	bl	80007a0 <delay_1_msec>
 80007d8:	68fb      	ldr	r3, [r7, #12]
 80007da:	3301      	adds	r3, #1
 80007dc:	60fb      	str	r3, [r7, #12]
 80007de:	68fa      	ldr	r2, [r7, #12]
 80007e0:	687b      	ldr	r3, [r7, #4]
 80007e2:	429a      	cmp	r2, r3
 80007e4:	d3f5      	bcc.n	80007d2 <delay_msec+0x22>
 80007e6:	bf00      	nop
 80007e8:	bf00      	nop
 80007ea:	3710      	adds	r7, #16
 80007ec:	46bd      	mov	sp, r7
 80007ee:	bd80      	pop	{r7, pc}
 80007f0:	92492493 	subls	r2, r9, #-1828716544	; 0x93000000

080007f4 <getUsecWorking>:
 80007f4:	b480      	push	{r7}
 80007f6:	af00      	add	r7, sp, #0
 80007f8:	4b02      	ldr	r3, [pc, #8]	; (8000804 <getUsecWorking+0x10>)
 80007fa:	681b      	ldr	r3, [r3, #0]
 80007fc:	4618      	mov	r0, r3
 80007fe:	46bd      	mov	sp, r7
 8000800:	bc80      	pop	{r7}
 8000802:	4770      	bx	lr
 8000804:	20000000 	andcs	r0, r0, r0

08000808 <add_to_PCB_list>:
 8000808:	b480      	push	{r7}
 800080a:	b083      	sub	sp, #12
 800080c:	af00      	add	r7, sp, #0
 800080e:	6078      	str	r0, [r7, #4]
 8000810:	6039      	str	r1, [r7, #0]
 8000812:	683b      	ldr	r3, [r7, #0]
 8000814:	009b      	lsls	r3, r3, #2
 8000816:	4a04      	ldr	r2, [pc, #16]	; (8000828 <add_to_PCB_list+0x20>)
 8000818:	4413      	add	r3, r2
 800081a:	687a      	ldr	r2, [r7, #4]
 800081c:	601a      	str	r2, [r3, #0]
 800081e:	bf00      	nop
 8000820:	370c      	adds	r7, #12
 8000822:	46bd      	mov	sp, r7
 8000824:	bc80      	pop	{r7}
 8000826:	4770      	bx	lr
 8000828:	20000008 	andcs	r0, r0, r8

0800082c <startScheduler>:
 800082c:	b580      	push	{r7, lr}
 800082e:	af00      	add	r7, sp, #0
 8000830:	f640 70ff 	movw	r0, #4095	; 0xfff
 8000834:	f000 f8af 	bl	8000996 <setSystickReload>
 8000838:	f000 f8c6 	bl	80009c8 <enableSystick>
 800083c:	4b02      	ldr	r3, [pc, #8]	; (8000848 <startScheduler+0x1c>)
 800083e:	2200      	movs	r2, #0
 8000840:	601a      	str	r2, [r3, #0]
 8000842:	bf00      	nop
 8000844:	bd80      	pop	{r7, pc}
 8000846:	bf00      	nop
 8000848:	20000014 	andcs	r0, r0, r4, lsl r0

0800084c <scheduleNextProcess>:
 800084c:	b480      	push	{r7}
 800084e:	b083      	sub	sp, #12
 8000850:	af00      	add	r7, sp, #0
 8000852:	4b1c      	ldr	r3, [pc, #112]	; (80008c4 <scheduleNextProcess+0x78>)
 8000854:	681b      	ldr	r3, [r3, #0]
 8000856:	2b00      	cmp	r3, #0
 8000858:	d107      	bne.n	800086a <scheduleNextProcess+0x1e>
 800085a:	4b1b      	ldr	r3, [pc, #108]	; (80008c8 <scheduleNextProcess+0x7c>)
 800085c:	4a1b      	ldr	r2, [pc, #108]	; (80008cc <scheduleNextProcess+0x80>)
 800085e:	601a      	str	r2, [r3, #0]
 8000860:	4b19      	ldr	r3, [pc, #100]	; (80008c8 <scheduleNextProcess+0x7c>)
 8000862:	681b      	ldr	r3, [r3, #0]
 8000864:	4a17      	ldr	r2, [pc, #92]	; (80008c4 <scheduleNextProcess+0x78>)
 8000866:	6013      	str	r3, [r2, #0]
 8000868:	e028      	b.n	80008bc <scheduleNextProcess+0x70>
 800086a:	4b16      	ldr	r3, [pc, #88]	; (80008c4 <scheduleNextProcess+0x78>)
 800086c:	681b      	ldr	r3, [r3, #0]
 800086e:	f503 73c6 	add.w	r3, r3, #396	; 0x18c
 8000872:	607b      	str	r3, [r7, #4]
 8000874:	e017      	b.n	80008a6 <scheduleNextProcess+0x5a>
 8000876:	687b      	ldr	r3, [r7, #4]
 8000878:	681b      	ldr	r3, [r3, #0]
 800087a:	2b00      	cmp	r3, #0
 800087c:	d00f      	beq.n	800089e <scheduleNextProcess+0x52>
 800087e:	4b12      	ldr	r3, [pc, #72]	; (80008c8 <scheduleNextProcess+0x7c>)
 8000880:	681b      	ldr	r3, [r3, #0]
 8000882:	3b04      	subs	r3, #4
 8000884:	687a      	ldr	r2, [r7, #4]
 8000886:	429a      	cmp	r2, r3
 8000888:	d009      	beq.n	800089e <scheduleNextProcess+0x52>
 800088a:	687b      	ldr	r3, [r7, #4]
 800088c:	3304      	adds	r3, #4
 800088e:	461a      	mov	r2, r3
 8000890:	4b0d      	ldr	r3, [pc, #52]	; (80008c8 <scheduleNextProcess+0x7c>)
 8000892:	601a      	str	r2, [r3, #0]
 8000894:	4b0c      	ldr	r3, [pc, #48]	; (80008c8 <scheduleNextProcess+0x7c>)
 8000896:	681b      	ldr	r3, [r3, #0]
 8000898:	4a0a      	ldr	r2, [pc, #40]	; (80008c4 <scheduleNextProcess+0x78>)
 800089a:	6013      	str	r3, [r2, #0]
 800089c:	e00e      	b.n	80008bc <scheduleNextProcess+0x70>
 800089e:	687b      	ldr	r3, [r7, #4]
 80008a0:	f503 73c8 	add.w	r3, r3, #400	; 0x190
 80008a4:	607b      	str	r3, [r7, #4]
 80008a6:	687b      	ldr	r3, [r7, #4]
 80008a8:	4a09      	ldr	r2, [pc, #36]	; (80008d0 <scheduleNextProcess+0x84>)
 80008aa:	4293      	cmp	r3, r2
 80008ac:	d9e3      	bls.n	8000876 <scheduleNextProcess+0x2a>
 80008ae:	4b06      	ldr	r3, [pc, #24]	; (80008c8 <scheduleNextProcess+0x7c>)
 80008b0:	4a06      	ldr	r2, [pc, #24]	; (80008cc <scheduleNextProcess+0x80>)
 80008b2:	601a      	str	r2, [r3, #0]
 80008b4:	4b04      	ldr	r3, [pc, #16]	; (80008c8 <scheduleNextProcess+0x7c>)
 80008b6:	681b      	ldr	r3, [r3, #0]
 80008b8:	4a02      	ldr	r2, [pc, #8]	; (80008c4 <scheduleNextProcess+0x78>)
 80008ba:	6013      	str	r3, [r2, #0]
 80008bc:	370c      	adds	r7, #12
 80008be:	46bd      	mov	sp, r7
 80008c0:	bc80      	pop	{r7}
 80008c2:	4770      	bx	lr
 80008c4:	20000014 	andcs	r0, r0, r4, lsl r0
 80008c8:	20000010 	andcs	r0, r0, r0, lsl r0
 80008cc:	20004004 	andcs	r4, r0, r4
 80008d0:	20004e6f 	andcs	r4, r0, pc, ror #28
 80008d4:	f3af 8000 	nop.w

080008d8 <SysTick_ISR>:
 80008d8:	b401      	push	{r0}
 80008da:	f3ef 8003 	mrs	r0, PSR
 80008de:	b401      	push	{r0}
 80008e0:	f8df 002c 	ldr.w	r0, [pc, #44]	; 8000910 <current_PCB>
 80008e4:	6800      	ldr	r0, [r0, #0]
 80008e6:	b401      	push	{r0}
 80008e8:	f100 0004 	add.w	r0, r0, #4
 80008ec:	e880 5ffe 	stmia.w	r0, {r1, r2, r3, r4, r5, r6, r7, r8, r9, sl, fp, ip, lr}
 80008f0:	bc01      	pop	{r0}
 80008f2:	4601      	mov	r1, r0
 80008f4:	bc01      	pop	{r0}
 80008f6:	6388      	str	r0, [r1, #56]	; 0x38
 80008f8:	bc01      	pop	{r0}
 80008fa:	6008      	str	r0, [r1, #0]
 80008fc:	f3ef 8008 	mrs	r0, MSP
 8000900:	63c8      	str	r0, [r1, #60]	; 0x3c
 8000902:	f3ef 8009 	mrs	r0, PSP
 8000906:	6408      	str	r0, [r1, #64]	; 0x40
 8000908:	f3bf 8f4f 	dsb	sy
 800090c:	f3bf 8f6f 	isb	sy

08000910 <current_PCB>:
 8000910:	20000010 	andcs	r0, r0, r0, lsl r0
 8000914:	f7ff ff9a 	bl	800084c <scheduleNextProcess>
 8000918:	4b16      	ldr	r3, [pc, #88]	; (8000974 <current_PCB+0x64>)
 800091a:	681b      	ldr	r3, [r3, #0]
 800091c:	f44f 727a 	mov.w	r2, #1000	; 0x3e8
 8000920:	fb02 f403 	mul.w	r4, r2, r3
 8000924:	f7ff ff16 	bl	8000754 <getClockFreq>
 8000928:	4603      	mov	r3, r0
 800092a:	fbb4 f2f3 	udiv	r2, r4, r3
 800092e:	4b12      	ldr	r3, [pc, #72]	; (8000978 <current_PCB+0x68>)
 8000930:	681b      	ldr	r3, [r3, #0]
 8000932:	4413      	add	r3, r2
 8000934:	4a10      	ldr	r2, [pc, #64]	; (8000978 <current_PCB+0x68>)
 8000936:	6013      	str	r3, [r2, #0]
 8000938:	f85f 002c 	ldr.w	r0, [pc, #-44]	; 8000910 <current_PCB>
 800093c:	6800      	ldr	r0, [r0, #0]
 800093e:	b401      	push	{r0}
 8000940:	f100 0004 	add.w	r0, r0, #4
 8000944:	e890 5ffe 	ldmia.w	r0, {r1, r2, r3, r4, r5, r6, r7, r8, r9, sl, fp, ip, lr}
 8000948:	bc01      	pop	{r0}
 800094a:	4601      	mov	r1, r0
 800094c:	6b88      	ldr	r0, [r1, #56]	; 0x38
 800094e:	f380 8803 	msr	PSR, r0
 8000952:	6bc8      	ldr	r0, [r1, #60]	; 0x3c
 8000954:	f380 8808 	msr	MSP, r0
 8000958:	6c08      	ldr	r0, [r1, #64]	; 0x40
 800095a:	f380 8809 	msr	PSP, r0
 800095e:	f85f 0050 	ldr.w	r0, [pc, #-80]	; 8000910 <current_PCB>
 8000962:	6800      	ldr	r0, [r0, #0]
 8000964:	6841      	ldr	r1, [r0, #4]
 8000966:	6800      	ldr	r0, [r0, #0]
 8000968:	f3bf 8f4f 	dsb	sy
 800096c:	f3bf 8f6f 	isb	sy
 8000970:	4770      	bx	lr
 8000972:	bf00      	nop
 8000974:	e000e018 	and	lr, r0, r8, lsl r0
 8000978:	20000000 	andcs	r0, r0, r0

0800097c <attachHandler>:
 800097c:	b480      	push	{r7}
 800097e:	b083      	sub	sp, #12
 8000980:	af00      	add	r7, sp, #0
 8000982:	6078      	str	r0, [r7, #4]
 8000984:	6039      	str	r1, [r7, #0]
 8000986:	683a      	ldr	r2, [r7, #0]
 8000988:	687b      	ldr	r3, [r7, #4]
 800098a:	601a      	str	r2, [r3, #0]
 800098c:	bf00      	nop
 800098e:	370c      	adds	r7, #12
 8000990:	46bd      	mov	sp, r7
 8000992:	bc80      	pop	{r7}
 8000994:	4770      	bx	lr

08000996 <setSystickReload>:
 8000996:	b480      	push	{r7}
 8000998:	b083      	sub	sp, #12
 800099a:	af00      	add	r7, sp, #0
 800099c:	6078      	str	r0, [r7, #4]
 800099e:	4b09      	ldr	r3, [pc, #36]	; (80009c4 <setSystickReload+0x2e>)
 80009a0:	681b      	ldr	r3, [r3, #0]
 80009a2:	4a08      	ldr	r2, [pc, #32]	; (80009c4 <setSystickReload+0x2e>)
 80009a4:	f003 437f 	and.w	r3, r3, #4278190080	; 0xff000000
 80009a8:	6013      	str	r3, [r2, #0]
 80009aa:	4b06      	ldr	r3, [pc, #24]	; (80009c4 <setSystickReload+0x2e>)
 80009ac:	681a      	ldr	r2, [r3, #0]
 80009ae:	687b      	ldr	r3, [r7, #4]
 80009b0:	f023 437f 	bic.w	r3, r3, #4278190080	; 0xff000000
 80009b4:	4903      	ldr	r1, [pc, #12]	; (80009c4 <setSystickReload+0x2e>)
 80009b6:	4313      	orrs	r3, r2
 80009b8:	600b      	str	r3, [r1, #0]
 80009ba:	bf00      	nop
 80009bc:	370c      	adds	r7, #12
 80009be:	46bd      	mov	sp, r7
 80009c0:	bc80      	pop	{r7}
 80009c2:	4770      	bx	lr
 80009c4:	e000e014 	and	lr, r0, r4, lsl r0

080009c8 <enableSystick>:
 80009c8:	b480      	push	{r7}
 80009ca:	b083      	sub	sp, #12
 80009cc:	af00      	add	r7, sp, #0
 80009ce:	4b09      	ldr	r3, [pc, #36]	; (80009f4 <enableSystick+0x2c>)
 80009d0:	681b      	ldr	r3, [r3, #0]
 80009d2:	f023 0307 	bic.w	r3, r3, #7
 80009d6:	607b      	str	r3, [r7, #4]
 80009d8:	4a06      	ldr	r2, [pc, #24]	; (80009f4 <enableSystick+0x2c>)
 80009da:	687b      	ldr	r3, [r7, #4]
 80009dc:	f043 0307 	orr.w	r3, r3, #7
 80009e0:	6013      	str	r3, [r2, #0]
 80009e2:	4b05      	ldr	r3, [pc, #20]	; (80009f8 <enableSystick+0x30>)
 80009e4:	4a05      	ldr	r2, [pc, #20]	; (80009fc <enableSystick+0x34>)
 80009e6:	601a      	str	r2, [r3, #0]
 80009e8:	bf00      	nop
 80009ea:	370c      	adds	r7, #12
 80009ec:	46bd      	mov	sp, r7
 80009ee:	bc80      	pop	{r7}
 80009f0:	4770      	bx	lr
 80009f2:	bf00      	nop
 80009f4:	e000e010 	and	lr, r0, r0, lsl r0
 80009f8:	e000e018 	and	lr, r0, r8, lsl r0
 80009fc:	000186a0 	andeq	r8, r1, r0, lsr #13

08000a00 <setInterrupt>:
 8000a00:	b480      	push	{r7}
 8000a02:	b083      	sub	sp, #12
 8000a04:	af00      	add	r7, sp, #0
 8000a06:	6078      	str	r0, [r7, #4]
 8000a08:	687b      	ldr	r3, [r7, #4]
 8000a0a:	2b1f      	cmp	r3, #31
 8000a0c:	d80a      	bhi.n	8000a24 <setInterrupt+0x24>
 8000a0e:	4b10      	ldr	r3, [pc, #64]	; (8000a50 <setInterrupt+0x50>)
 8000a10:	681b      	ldr	r3, [r3, #0]
 8000a12:	2101      	movs	r1, #1
 8000a14:	687a      	ldr	r2, [r7, #4]
 8000a16:	fa01 f202 	lsl.w	r2, r1, r2
 8000a1a:	4611      	mov	r1, r2
 8000a1c:	4a0c      	ldr	r2, [pc, #48]	; (8000a50 <setInterrupt+0x50>)
 8000a1e:	430b      	orrs	r3, r1
 8000a20:	6013      	str	r3, [r2, #0]
 8000a22:	e005      	b.n	8000a30 <setInterrupt+0x30>
 8000a24:	687b      	ldr	r3, [r7, #4]
 8000a26:	2b3f      	cmp	r3, #63	; 0x3f
 8000a28:	d802      	bhi.n	8000a30 <setInterrupt+0x30>
 8000a2a:	687b      	ldr	r3, [r7, #4]
 8000a2c:	3b20      	subs	r3, #32
 8000a2e:	607b      	str	r3, [r7, #4]
 8000a30:	4b08      	ldr	r3, [pc, #32]	; (8000a54 <setInterrupt+0x54>)
 8000a32:	681b      	ldr	r3, [r3, #0]
 8000a34:	2101      	movs	r1, #1
 8000a36:	687a      	ldr	r2, [r7, #4]
 8000a38:	fa01 f202 	lsl.w	r2, r1, r2
 8000a3c:	4611      	mov	r1, r2
 8000a3e:	4a05      	ldr	r2, [pc, #20]	; (8000a54 <setInterrupt+0x54>)
 8000a40:	430b      	orrs	r3, r1
 8000a42:	6013      	str	r3, [r2, #0]
 8000a44:	bf00      	nop
 8000a46:	370c      	adds	r7, #12
 8000a48:	46bd      	mov	sp, r7
 8000a4a:	bc80      	pop	{r7}
 8000a4c:	4770      	bx	lr
 8000a4e:	bf00      	nop
 8000a50:	e000e100 	and	lr, r0, r0, lsl #2
 8000a54:	e000e104 	and	lr, r0, r4, lsl #2

08000a58 <clearInterrupt>:
 8000a58:	b480      	push	{r7}
 8000a5a:	b083      	sub	sp, #12
 8000a5c:	af00      	add	r7, sp, #0
 8000a5e:	6078      	str	r0, [r7, #4]
 8000a60:	687b      	ldr	r3, [r7, #4]
 8000a62:	2b1f      	cmp	r3, #31
 8000a64:	d80a      	bhi.n	8000a7c <clearInterrupt+0x24>
 8000a66:	4b10      	ldr	r3, [pc, #64]	; (8000aa8 <clearInterrupt+0x50>)
 8000a68:	681b      	ldr	r3, [r3, #0]
 8000a6a:	2101      	movs	r1, #1
 8000a6c:	687a      	ldr	r2, [r7, #4]
 8000a6e:	fa01 f202 	lsl.w	r2, r1, r2
 8000a72:	4611      	mov	r1, r2
 8000a74:	4a0c      	ldr	r2, [pc, #48]	; (8000aa8 <clearInterrupt+0x50>)
 8000a76:	430b      	orrs	r3, r1
 8000a78:	6013      	str	r3, [r2, #0]
 8000a7a:	e005      	b.n	8000a88 <clearInterrupt+0x30>
 8000a7c:	687b      	ldr	r3, [r7, #4]
 8000a7e:	2b3f      	cmp	r3, #63	; 0x3f
 8000a80:	d802      	bhi.n	8000a88 <clearInterrupt+0x30>
 8000a82:	687b      	ldr	r3, [r7, #4]
 8000a84:	3b20      	subs	r3, #32
 8000a86:	607b      	str	r3, [r7, #4]
 8000a88:	4b08      	ldr	r3, [pc, #32]	; (8000aac <clearInterrupt+0x54>)
 8000a8a:	681b      	ldr	r3, [r3, #0]
 8000a8c:	2101      	movs	r1, #1
 8000a8e:	687a      	ldr	r2, [r7, #4]
 8000a90:	fa01 f202 	lsl.w	r2, r1, r2
 8000a94:	4611      	mov	r1, r2
 8000a96:	4a05      	ldr	r2, [pc, #20]	; (8000aac <clearInterrupt+0x54>)
 8000a98:	430b      	orrs	r3, r1
 8000a9a:	6013      	str	r3, [r2, #0]
 8000a9c:	bf00      	nop
 8000a9e:	370c      	adds	r7, #12
 8000aa0:	46bd      	mov	sp, r7
 8000aa2:	bc80      	pop	{r7}
 8000aa4:	4770      	bx	lr
 8000aa6:	bf00      	nop
 8000aa8:	e000e180 	and	lr, r0, r0, lsl #3
 8000aac:	e000e184 	and	lr, r0, r4, lsl #3

08000ab0 <HardFault_ISR>:
 8000ab0:	4668      	mov	r0, sp
 8000ab2:	f020 0107 	bic.w	r1, r0, #7
 8000ab6:	468d      	mov	sp, r1
 8000ab8:	b589      	push	{r0, r3, r7, lr}
 8000aba:	af00      	add	r7, sp, #0
 8000abc:	2200      	movs	r2, #0
 8000abe:	210c      	movs	r1, #12
 8000ac0:	2002      	movs	r0, #2
 8000ac2:	f000 fc23 	bl	800130c <setPin>
 8000ac6:	bf00      	nop
 8000ac8:	46bd      	mov	sp, r7
 8000aca:	e8bd 4089 	ldmia.w	sp!, {r0, r3, r7, lr}
 8000ace:	4685      	mov	sp, r0
 8000ad0:	4770      	bx	lr

08000ad2 <TIM2_ISR>:
 8000ad2:	4668      	mov	r0, sp
 8000ad4:	f020 0107 	bic.w	r1, r0, #7
 8000ad8:	468d      	mov	sp, r1
 8000ada:	b589      	push	{r0, r3, r7, lr}
 8000adc:	af00      	add	r7, sp, #0
 8000ade:	4b0c      	ldr	r3, [pc, #48]	; (8000b10 <TIM2_ISR+0x3e>)
 8000ae0:	681b      	ldr	r3, [r3, #0]
 8000ae2:	43db      	mvns	r3, r3
 8000ae4:	4a0a      	ldr	r2, [pc, #40]	; (8000b10 <TIM2_ISR+0x3e>)
 8000ae6:	6013      	str	r3, [r2, #0]
 8000ae8:	4b09      	ldr	r3, [pc, #36]	; (8000b10 <TIM2_ISR+0x3e>)
 8000aea:	681b      	ldr	r3, [r3, #0]
 8000aec:	b2db      	uxtb	r3, r3
 8000aee:	461a      	mov	r2, r3
 8000af0:	2105      	movs	r1, #5
 8000af2:	2002      	movs	r0, #2
 8000af4:	f000 fc0a 	bl	800130c <setPin>
 8000af8:	4b06      	ldr	r3, [pc, #24]	; (8000b14 <TIM2_ISR+0x42>)
 8000afa:	681b      	ldr	r3, [r3, #0]
 8000afc:	4b05      	ldr	r3, [pc, #20]	; (8000b14 <TIM2_ISR+0x42>)
 8000afe:	2200      	movs	r2, #0
 8000b00:	601a      	str	r2, [r3, #0]
 8000b02:	bf00      	nop
 8000b04:	46bd      	mov	sp, r7
 8000b06:	e8bd 4089 	ldmia.w	sp!, {r0, r3, r7, lr}
 8000b0a:	4685      	mov	sp, r0
 8000b0c:	4770      	bx	lr
 8000b0e:	bf00      	nop
 8000b10:	20000018 	andcs	r0, r0, r8, lsl r0
 8000b14:	40000010 	andmi	r0, r0, r0, lsl r0

08000b18 <TIM3_ISR>:
 8000b18:	4668      	mov	r0, sp
 8000b1a:	f020 0107 	bic.w	r1, r0, #7
 8000b1e:	468d      	mov	sp, r1
 8000b20:	b481      	push	{r0, r7}
 8000b22:	af00      	add	r7, sp, #0
 8000b24:	bf00      	nop
 8000b26:	46bd      	mov	sp, r7
 8000b28:	bc81      	pop	{r0, r7}
 8000b2a:	4685      	mov	sp, r0
 8000b2c:	4770      	bx	lr

08000b2e <TIM4_ISR>:
 8000b2e:	4668      	mov	r0, sp
 8000b30:	f020 0107 	bic.w	r1, r0, #7
 8000b34:	468d      	mov	sp, r1
 8000b36:	b589      	push	{r0, r3, r7, lr}
 8000b38:	af00      	add	r7, sp, #0
 8000b3a:	4b0c      	ldr	r3, [pc, #48]	; (8000b6c <TIM4_ISR+0x3e>)
 8000b3c:	681b      	ldr	r3, [r3, #0]
 8000b3e:	43db      	mvns	r3, r3
 8000b40:	4a0a      	ldr	r2, [pc, #40]	; (8000b6c <TIM4_ISR+0x3e>)
 8000b42:	6013      	str	r3, [r2, #0]
 8000b44:	4b09      	ldr	r3, [pc, #36]	; (8000b6c <TIM4_ISR+0x3e>)
 8000b46:	681b      	ldr	r3, [r3, #0]
 8000b48:	b2db      	uxtb	r3, r3
 8000b4a:	461a      	mov	r2, r3
 8000b4c:	210d      	movs	r1, #13
 8000b4e:	2002      	movs	r0, #2
 8000b50:	f000 fbdc 	bl	800130c <setPin>
 8000b54:	4b06      	ldr	r3, [pc, #24]	; (8000b70 <TIM4_ISR+0x42>)
 8000b56:	681b      	ldr	r3, [r3, #0]
 8000b58:	4b05      	ldr	r3, [pc, #20]	; (8000b70 <TIM4_ISR+0x42>)
 8000b5a:	2200      	movs	r2, #0
 8000b5c:	601a      	str	r2, [r3, #0]
 8000b5e:	bf00      	nop
 8000b60:	46bd      	mov	sp, r7
 8000b62:	e8bd 4089 	ldmia.w	sp!, {r0, r3, r7, lr}
 8000b66:	4685      	mov	sp, r0
 8000b68:	4770      	bx	lr
 8000b6a:	bf00      	nop
 8000b6c:	20000020 	andcs	r0, r0, r0, lsr #32
 8000b70:	40000810 	andmi	r0, r0, r0, lsl r8

08000b74 <TIM5_ISR>:
 8000b74:	4668      	mov	r0, sp
 8000b76:	f020 0107 	bic.w	r1, r0, #7
 8000b7a:	468d      	mov	sp, r1
 8000b7c:	b589      	push	{r0, r3, r7, lr}
 8000b7e:	af00      	add	r7, sp, #0
 8000b80:	4b0b      	ldr	r3, [pc, #44]	; (8000bb0 <TIM5_ISR+0x3c>)
 8000b82:	681b      	ldr	r3, [r3, #0]
 8000b84:	43db      	mvns	r3, r3
 8000b86:	4a0a      	ldr	r2, [pc, #40]	; (8000bb0 <TIM5_ISR+0x3c>)
 8000b88:	6013      	str	r3, [r2, #0]
 8000b8a:	4b09      	ldr	r3, [pc, #36]	; (8000bb0 <TIM5_ISR+0x3c>)
 8000b8c:	681b      	ldr	r3, [r3, #0]
 8000b8e:	b2db      	uxtb	r3, r3
 8000b90:	461a      	mov	r2, r3
 8000b92:	210f      	movs	r1, #15
 8000b94:	2002      	movs	r0, #2
 8000b96:	f000 fbb9 	bl	800130c <setPin>
 8000b9a:	4b06      	ldr	r3, [pc, #24]	; (8000bb4 <TIM5_ISR+0x40>)
 8000b9c:	681b      	ldr	r3, [r3, #0]
 8000b9e:	4b05      	ldr	r3, [pc, #20]	; (8000bb4 <TIM5_ISR+0x40>)
 8000ba0:	2200      	movs	r2, #0
 8000ba2:	601a      	str	r2, [r3, #0]
 8000ba4:	bf00      	nop
 8000ba6:	46bd      	mov	sp, r7
 8000ba8:	e8bd 4089 	ldmia.w	sp!, {r0, r3, r7, lr}
 8000bac:	4685      	mov	sp, r0
 8000bae:	4770      	bx	lr
 8000bb0:	20000020 	andcs	r0, r0, r0, lsr #32
 8000bb4:	40000810 	andmi	r0, r0, r0, lsl r8

08000bb8 <disableUnalignedAddressFault>:
 8000bb8:	b480      	push	{r7}
 8000bba:	af00      	add	r7, sp, #0
 8000bbc:	4b04      	ldr	r3, [pc, #16]	; (8000bd0 <disableUnalignedAddressFault+0x18>)
 8000bbe:	681b      	ldr	r3, [r3, #0]
 8000bc0:	4a03      	ldr	r2, [pc, #12]	; (8000bd0 <disableUnalignedAddressFault+0x18>)
 8000bc2:	f023 0308 	bic.w	r3, r3, #8
 8000bc6:	6013      	str	r3, [r2, #0]
 8000bc8:	bf00      	nop
 8000bca:	46bd      	mov	sp, r7
 8000bcc:	bc80      	pop	{r7}
 8000bce:	4770      	bx	lr
 8000bd0:	e000ed14 	and	lr, r0, r4, lsl sp

08000bd4 <initProcessPages>:
 8000bd4:	b480      	push	{r7}
 8000bd6:	b083      	sub	sp, #12
 8000bd8:	af00      	add	r7, sp, #0
 8000bda:	4b0a      	ldr	r3, [pc, #40]	; (8000c04 <initProcessPages+0x30>)
 8000bdc:	607b      	str	r3, [r7, #4]
 8000bde:	e006      	b.n	8000bee <initProcessPages+0x1a>
 8000be0:	687b      	ldr	r3, [r7, #4]
 8000be2:	2200      	movs	r2, #0
 8000be4:	601a      	str	r2, [r3, #0]
 8000be6:	687b      	ldr	r3, [r7, #4]
 8000be8:	f503 73c8 	add.w	r3, r3, #400	; 0x190
 8000bec:	607b      	str	r3, [r7, #4]
 8000bee:	687b      	ldr	r3, [r7, #4]
 8000bf0:	4a05      	ldr	r2, [pc, #20]	; (8000c08 <initProcessPages+0x34>)
 8000bf2:	4293      	cmp	r3, r2
 8000bf4:	d9f4      	bls.n	8000be0 <initProcessPages+0xc>
 8000bf6:	bf00      	nop
 8000bf8:	bf00      	nop
 8000bfa:	370c      	adds	r7, #12
 8000bfc:	46bd      	mov	sp, r7
 8000bfe:	bc80      	pop	{r7}
 8000c00:	4770      	bx	lr
 8000c02:	bf00      	nop
 8000c04:	20004000 	andcs	r4, r0, r0
 8000c08:	20004e6f 	andcs	r4, r0, pc, ror #28

08000c0c <findAvailableProcessPage>:
 8000c0c:	b480      	push	{r7}
 8000c0e:	b083      	sub	sp, #12
 8000c10:	af00      	add	r7, sp, #0
 8000c12:	4b0c      	ldr	r3, [pc, #48]	; (8000c44 <findAvailableProcessPage+0x38>)
 8000c14:	607b      	str	r3, [r7, #4]
 8000c16:	e00b      	b.n	8000c30 <findAvailableProcessPage+0x24>
 8000c18:	687b      	ldr	r3, [r7, #4]
 8000c1a:	681b      	ldr	r3, [r3, #0]
 8000c1c:	603b      	str	r3, [r7, #0]
 8000c1e:	683b      	ldr	r3, [r7, #0]
 8000c20:	2b00      	cmp	r3, #0
 8000c22:	d101      	bne.n	8000c28 <findAvailableProcessPage+0x1c>
 8000c24:	687b      	ldr	r3, [r7, #4]
 8000c26:	e008      	b.n	8000c3a <findAvailableProcessPage+0x2e>
 8000c28:	687b      	ldr	r3, [r7, #4]
 8000c2a:	f503 73c8 	add.w	r3, r3, #400	; 0x190
 8000c2e:	607b      	str	r3, [r7, #4]
 8000c30:	687b      	ldr	r3, [r7, #4]
 8000c32:	4a05      	ldr	r2, [pc, #20]	; (8000c48 <findAvailableProcessPage+0x3c>)
 8000c34:	4293      	cmp	r3, r2
 8000c36:	d9ef      	bls.n	8000c18 <findAvailableProcessPage+0xc>
 8000c38:	2300      	movs	r3, #0
 8000c3a:	4618      	mov	r0, r3
 8000c3c:	370c      	adds	r7, #12
 8000c3e:	46bd      	mov	sp, r7
 8000c40:	bc80      	pop	{r7}
 8000c42:	4770      	bx	lr
 8000c44:	20004000 	andcs	r4, r0, r0
 8000c48:	20004e6f 	andcs	r4, r0, pc, ror #28

08000c4c <initDallocSpace>:
 8000c4c:	b480      	push	{r7}
 8000c4e:	b083      	sub	sp, #12
 8000c50:	af00      	add	r7, sp, #0
 8000c52:	f04f 2320 	mov.w	r3, #536879104	; 0x20002000
 8000c56:	607b      	str	r3, [r7, #4]
 8000c58:	e005      	b.n	8000c66 <initDallocSpace+0x1a>
 8000c5a:	687b      	ldr	r3, [r7, #4]
 8000c5c:	2200      	movs	r2, #0
 8000c5e:	601a      	str	r2, [r3, #0]
 8000c60:	687b      	ldr	r3, [r7, #4]
 8000c62:	3301      	adds	r3, #1
 8000c64:	607b      	str	r3, [r7, #4]
 8000c66:	687b      	ldr	r3, [r7, #4]
 8000c68:	4a04      	ldr	r2, [pc, #16]	; (8000c7c <initDallocSpace+0x30>)
 8000c6a:	4293      	cmp	r3, r2
 8000c6c:	d3f5      	bcc.n	8000c5a <initDallocSpace+0xe>
 8000c6e:	bf00      	nop
 8000c70:	bf00      	nop
 8000c72:	370c      	adds	r7, #12
 8000c74:	46bd      	mov	sp, r7
 8000c76:	bc80      	pop	{r7}
 8000c78:	4770      	bx	lr
 8000c7a:	bf00      	nop
 8000c7c:	20004000 	andcs	r4, r0, r0

08000c80 <malloc>:
 8000c80:	b480      	push	{r7}
 8000c82:	b085      	sub	sp, #20
 8000c84:	af00      	add	r7, sp, #0
 8000c86:	4603      	mov	r3, r0
 8000c88:	80fb      	strh	r3, [r7, #6]
 8000c8a:	f04f 2320 	mov.w	r3, #536879104	; 0x20002000
 8000c8e:	60fb      	str	r3, [r7, #12]
 8000c90:	68fb      	ldr	r3, [r7, #12]
 8000c92:	881b      	ldrh	r3, [r3, #0]
 8000c94:	817b      	strh	r3, [r7, #10]
 8000c96:	e007      	b.n	8000ca8 <malloc+0x28>
 8000c98:	897a      	ldrh	r2, [r7, #10]
 8000c9a:	68fb      	ldr	r3, [r7, #12]
 8000c9c:	4413      	add	r3, r2
 8000c9e:	3302      	adds	r3, #2
 8000ca0:	60fb      	str	r3, [r7, #12]
 8000ca2:	68fb      	ldr	r3, [r7, #12]
 8000ca4:	881b      	ldrh	r3, [r3, #0]
 8000ca6:	817b      	strh	r3, [r7, #10]
 8000ca8:	897b      	ldrh	r3, [r7, #10]
 8000caa:	2b00      	cmp	r3, #0
 8000cac:	d003      	beq.n	8000cb6 <malloc+0x36>
 8000cae:	68fb      	ldr	r3, [r7, #12]
 8000cb0:	4a0a      	ldr	r2, [pc, #40]	; (8000cdc <malloc+0x5c>)
 8000cb2:	4293      	cmp	r3, r2
 8000cb4:	d9f0      	bls.n	8000c98 <malloc+0x18>
 8000cb6:	88fa      	ldrh	r2, [r7, #6]
 8000cb8:	68fb      	ldr	r3, [r7, #12]
 8000cba:	4413      	add	r3, r2
 8000cbc:	3301      	adds	r3, #1
 8000cbe:	4a08      	ldr	r2, [pc, #32]	; (8000ce0 <malloc+0x60>)
 8000cc0:	4293      	cmp	r3, r2
 8000cc2:	d301      	bcc.n	8000cc8 <malloc+0x48>
 8000cc4:	2300      	movs	r3, #0
 8000cc6:	e004      	b.n	8000cd2 <malloc+0x52>
 8000cc8:	68fb      	ldr	r3, [r7, #12]
 8000cca:	88fa      	ldrh	r2, [r7, #6]
 8000ccc:	801a      	strh	r2, [r3, #0]
 8000cce:	68fb      	ldr	r3, [r7, #12]
 8000cd0:	3302      	adds	r3, #2
 8000cd2:	4618      	mov	r0, r3
 8000cd4:	3714      	adds	r7, #20
 8000cd6:	46bd      	mov	sp, r7
 8000cd8:	bc80      	pop	{r7}
 8000cda:	4770      	bx	lr
 8000cdc:	20003ffe 	strdcs	r3, [r0], -lr
 8000ce0:	20004000 	andcs	r4, r0, r0

08000ce4 <setBPM>:
 8000ce4:	b480      	push	{r7}
 8000ce6:	b083      	sub	sp, #12
 8000ce8:	af00      	add	r7, sp, #0
 8000cea:	4603      	mov	r3, r0
 8000cec:	71fb      	strb	r3, [r7, #7]
 8000cee:	79fb      	ldrb	r3, [r7, #7]
 8000cf0:	b29a      	uxth	r2, r3
 8000cf2:	4b03      	ldr	r3, [pc, #12]	; (8000d00 <setBPM+0x1c>)
 8000cf4:	801a      	strh	r2, [r3, #0]
 8000cf6:	bf00      	nop
 8000cf8:	370c      	adds	r7, #12
 8000cfa:	46bd      	mov	sp, r7
 8000cfc:	bc80      	pop	{r7}
 8000cfe:	4770      	bx	lr
 8000d00:	20000024 	andcs	r0, r0, r4, lsr #32

08000d04 <music_delay>:
 8000d04:	b580      	push	{r7, lr}
 8000d06:	b084      	sub	sp, #16
 8000d08:	af00      	add	r7, sp, #0
 8000d0a:	6078      	str	r0, [r7, #4]
 8000d0c:	f7ff fd72 	bl	80007f4 <getUsecWorking>
 8000d10:	60b8      	str	r0, [r7, #8]
 8000d12:	f7ff fd6f 	bl	80007f4 <getUsecWorking>
 8000d16:	60f8      	str	r0, [r7, #12]
 8000d18:	e002      	b.n	8000d20 <music_delay+0x1c>
 8000d1a:	f7ff fd6b 	bl	80007f4 <getUsecWorking>
 8000d1e:	60f8      	str	r0, [r7, #12]
 8000d20:	68fa      	ldr	r2, [r7, #12]
 8000d22:	68bb      	ldr	r3, [r7, #8]
 8000d24:	1ad3      	subs	r3, r2, r3
 8000d26:	687a      	ldr	r2, [r7, #4]
 8000d28:	429a      	cmp	r2, r3
 8000d2a:	d8f6      	bhi.n	8000d1a <music_delay+0x16>
 8000d2c:	bf00      	nop
 8000d2e:	bf00      	nop
 8000d30:	3710      	adds	r7, #16
 8000d32:	46bd      	mov	sp, r7
 8000d34:	bd80      	pop	{r7, pc}

08000d36 <play_note>:
 8000d36:	b580      	push	{r7, lr}
 8000d38:	b088      	sub	sp, #32
 8000d3a:	af00      	add	r7, sp, #0
 8000d3c:	6078      	str	r0, [r7, #4]
 8000d3e:	460b      	mov	r3, r1
 8000d40:	70fb      	strb	r3, [r7, #3]
 8000d42:	2301      	movs	r3, #1
 8000d44:	837b      	strh	r3, [r7, #26]
 8000d46:	2300      	movs	r3, #0
 8000d48:	617b      	str	r3, [r7, #20]
 8000d4a:	e005      	b.n	8000d58 <play_note+0x22>
 8000d4c:	8b7b      	ldrh	r3, [r7, #26]
 8000d4e:	005b      	lsls	r3, r3, #1
 8000d50:	837b      	strh	r3, [r7, #26]
 8000d52:	697b      	ldr	r3, [r7, #20]
 8000d54:	3301      	adds	r3, #1
 8000d56:	617b      	str	r3, [r7, #20]
 8000d58:	687b      	ldr	r3, [r7, #4]
 8000d5a:	3301      	adds	r3, #1
 8000d5c:	781b      	ldrb	r3, [r3, #0]
 8000d5e:	3b30      	subs	r3, #48	; 0x30
 8000d60:	697a      	ldr	r2, [r7, #20]
 8000d62:	429a      	cmp	r2, r3
 8000d64:	dbf2      	blt.n	8000d4c <play_note+0x16>
 8000d66:	687b      	ldr	r3, [r7, #4]
 8000d68:	3302      	adds	r3, #2
 8000d6a:	781b      	ldrb	r3, [r3, #0]
 8000d6c:	2b00      	cmp	r3, #0
 8000d6e:	d170      	bne.n	8000e52 <play_note+0x11c>
 8000d70:	687b      	ldr	r3, [r7, #4]
 8000d72:	781b      	ldrb	r3, [r3, #0]
 8000d74:	3b41      	subs	r3, #65	; 0x41
 8000d76:	2b06      	cmp	r3, #6
 8000d78:	d86c      	bhi.n	8000e54 <play_note+0x11e>
 8000d7a:	a201      	add	r2, pc, #4	; (adr r2, 8000d80 <play_note+0x4a>)
 8000d7c:	f852 f023 	ldr.w	pc, [r2, r3, lsl #2]
 8000d80:	08000d9d 	stmdaeq	r0, {r0, r2, r3, r4, r7, r8, sl, fp}
 8000d84:	08000db7 	stmdaeq	r0, {r0, r1, r2, r4, r5, r7, r8, sl, fp}
 8000d88:	08000dd1 	stmdaeq	r0, {r0, r4, r6, r7, r8, sl, fp}
 8000d8c:	08000deb 	stmdaeq	r0, {r0, r1, r3, r5, r6, r7, r8, sl, fp}
 8000d90:	08000e05 	stmdaeq	r0, {r0, r2, r9, sl, fp}
 8000d94:	08000e1f 	stmdaeq	r0, {r0, r1, r2, r3, r4, r9, sl, fp}
 8000d98:	08000e39 	stmdaeq	r0, {r0, r3, r4, r5, r9, sl, fp}
 8000d9c:	8b7b      	ldrh	r3, [r7, #26]
 8000d9e:	f646 326c 	movw	r2, #27500	; 0x6b6c
 8000da2:	fb02 f303 	mul.w	r3, r2, r3
 8000da6:	4a40      	ldr	r2, [pc, #256]	; (8000ea8 <play_note+0x172>)
 8000da8:	fb82 1203 	smull	r1, r2, r2, r3
 8000dac:	1192      	asrs	r2, r2, #6
 8000dae:	17db      	asrs	r3, r3, #31
 8000db0:	1ad3      	subs	r3, r2, r3
 8000db2:	61fb      	str	r3, [r7, #28]
 8000db4:	e04e      	b.n	8000e54 <play_note+0x11e>
 8000db6:	8b7b      	ldrh	r3, [r7, #26]
 8000db8:	f647 0296 	movw	r2, #30870	; 0x7896
 8000dbc:	fb02 f303 	mul.w	r3, r2, r3
 8000dc0:	4a39      	ldr	r2, [pc, #228]	; (8000ea8 <play_note+0x172>)
 8000dc2:	fb82 1203 	smull	r1, r2, r2, r3
 8000dc6:	1192      	asrs	r2, r2, #6
 8000dc8:	17db      	asrs	r3, r3, #31
 8000dca:	1ad3      	subs	r3, r2, r3
 8000dcc:	61fb      	str	r3, [r7, #28]
 8000dce:	e041      	b.n	8000e54 <play_note+0x11e>
 8000dd0:	8b7b      	ldrh	r3, [r7, #26]
 8000dd2:	f643 72de 	movw	r2, #16350	; 0x3fde
 8000dd6:	fb02 f303 	mul.w	r3, r2, r3
 8000dda:	4a33      	ldr	r2, [pc, #204]	; (8000ea8 <play_note+0x172>)
 8000ddc:	fb82 1203 	smull	r1, r2, r2, r3
 8000de0:	1192      	asrs	r2, r2, #6
 8000de2:	17db      	asrs	r3, r3, #31
 8000de4:	1ad3      	subs	r3, r2, r3
 8000de6:	61fb      	str	r3, [r7, #28]
 8000de8:	e034      	b.n	8000e54 <play_note+0x11e>
 8000dea:	8b7b      	ldrh	r3, [r7, #26]
 8000dec:	f244 72ae 	movw	r2, #18350	; 0x47ae
 8000df0:	fb02 f303 	mul.w	r3, r2, r3
 8000df4:	4a2c      	ldr	r2, [pc, #176]	; (8000ea8 <play_note+0x172>)
 8000df6:	fb82 1203 	smull	r1, r2, r2, r3
 8000dfa:	1192      	asrs	r2, r2, #6
 8000dfc:	17db      	asrs	r3, r3, #31
 8000dfe:	1ad3      	subs	r3, r2, r3
 8000e00:	61fb      	str	r3, [r7, #28]
 8000e02:	e027      	b.n	8000e54 <play_note+0x11e>
 8000e04:	8b7b      	ldrh	r3, [r7, #26]
 8000e06:	f245 0278 	movw	r2, #20600	; 0x5078
 8000e0a:	fb02 f303 	mul.w	r3, r2, r3
 8000e0e:	4a26      	ldr	r2, [pc, #152]	; (8000ea8 <play_note+0x172>)
 8000e10:	fb82 1203 	smull	r1, r2, r2, r3
 8000e14:	1192      	asrs	r2, r2, #6
 8000e16:	17db      	asrs	r3, r3, #31
 8000e18:	1ad3      	subs	r3, r2, r3
 8000e1a:	61fb      	str	r3, [r7, #28]
 8000e1c:	e01a      	b.n	8000e54 <play_note+0x11e>
 8000e1e:	8b7b      	ldrh	r3, [r7, #26]
 8000e20:	f245 5246 	movw	r2, #21830	; 0x5546
 8000e24:	fb02 f303 	mul.w	r3, r2, r3
 8000e28:	4a1f      	ldr	r2, [pc, #124]	; (8000ea8 <play_note+0x172>)
 8000e2a:	fb82 1203 	smull	r1, r2, r2, r3
 8000e2e:	1192      	asrs	r2, r2, #6
 8000e30:	17db      	asrs	r3, r3, #31
 8000e32:	1ad3      	subs	r3, r2, r3
 8000e34:	61fb      	str	r3, [r7, #28]
 8000e36:	e00d      	b.n	8000e54 <play_note+0x11e>
 8000e38:	8b7b      	ldrh	r3, [r7, #26]
 8000e3a:	f645 72b4 	movw	r2, #24500	; 0x5fb4
 8000e3e:	fb02 f303 	mul.w	r3, r2, r3
 8000e42:	4a19      	ldr	r2, [pc, #100]	; (8000ea8 <play_note+0x172>)
 8000e44:	fb82 1203 	smull	r1, r2, r2, r3
 8000e48:	1192      	asrs	r2, r2, #6
 8000e4a:	17db      	asrs	r3, r3, #31
 8000e4c:	1ad3      	subs	r3, r2, r3
 8000e4e:	61fb      	str	r3, [r7, #28]
 8000e50:	e000      	b.n	8000e54 <play_note+0x11e>
 8000e52:	bf00      	nop
 8000e54:	69f8      	ldr	r0, [r7, #28]
 8000e56:	f000 fafb 	bl	8001450 <setPWM>
 8000e5a:	4b14      	ldr	r3, [pc, #80]	; (8000eac <play_note+0x176>)
 8000e5c:	881b      	ldrh	r3, [r3, #0]
 8000e5e:	461a      	mov	r2, r3
 8000e60:	4b13      	ldr	r3, [pc, #76]	; (8000eb0 <play_note+0x17a>)
 8000e62:	fb93 f3f2 	sdiv	r3, r3, r2
 8000e66:	613b      	str	r3, [r7, #16]
 8000e68:	693b      	ldr	r3, [r7, #16]
 8000e6a:	009a      	lsls	r2, r3, #2
 8000e6c:	78fb      	ldrb	r3, [r7, #3]
 8000e6e:	fbb2 f3f3 	udiv	r3, r2, r3
 8000e72:	60fb      	str	r3, [r7, #12]
 8000e74:	68fb      	ldr	r3, [r7, #12]
 8000e76:	f5a3 439c 	sub.w	r3, r3, #19968	; 0x4e00
 8000e7a:	3b20      	subs	r3, #32
 8000e7c:	60bb      	str	r3, [r7, #8]
 8000e7e:	68b8      	ldr	r0, [r7, #8]
 8000e80:	f7ff ff40 	bl	8000d04 <music_delay>
 8000e84:	2000      	movs	r0, #0
 8000e86:	f000 fae3 	bl	8001450 <setPWM>
 8000e8a:	68fa      	ldr	r2, [r7, #12]
 8000e8c:	68bb      	ldr	r3, [r7, #8]
 8000e8e:	1ad3      	subs	r3, r2, r3
 8000e90:	4618      	mov	r0, r3
 8000e92:	f7ff ff37 	bl	8000d04 <music_delay>
 8000e96:	f04f 4380 	mov.w	r3, #1073741824	; 0x40000000
 8000e9a:	2200      	movs	r2, #0
 8000e9c:	601a      	str	r2, [r3, #0]
 8000e9e:	bf00      	nop
 8000ea0:	3720      	adds	r7, #32
 8000ea2:	46bd      	mov	sp, r7
 8000ea4:	bd80      	pop	{r7, pc}
 8000ea6:	bf00      	nop
 8000ea8:	10624dd3 	ldrdne	r4, [r2], #-211	; 0xffffff2d	; <UNPREDICTABLE>
 8000eac:	20000024 	andcs	r0, r0, r4, lsr #32
 8000eb0:	03938700 	orrseq	r8, r3, #0, 14

08000eb4 <play_pause>:
 8000eb4:	b580      	push	{r7, lr}
 8000eb6:	b086      	sub	sp, #24
 8000eb8:	af00      	add	r7, sp, #0
 8000eba:	4603      	mov	r3, r0
 8000ebc:	71fb      	strb	r3, [r7, #7]
 8000ebe:	4b0b      	ldr	r3, [pc, #44]	; (8000eec <play_pause+0x38>)
 8000ec0:	881b      	ldrh	r3, [r3, #0]
 8000ec2:	461a      	mov	r2, r3
 8000ec4:	4b0a      	ldr	r3, [pc, #40]	; (8000ef0 <play_pause+0x3c>)
 8000ec6:	fb93 f3f2 	sdiv	r3, r3, r2
 8000eca:	617b      	str	r3, [r7, #20]
 8000ecc:	697b      	ldr	r3, [r7, #20]
 8000ece:	009a      	lsls	r2, r3, #2
 8000ed0:	79fb      	ldrb	r3, [r7, #7]
 8000ed2:	fbb2 f3f3 	udiv	r3, r2, r3
 8000ed6:	613b      	str	r3, [r7, #16]
 8000ed8:	693b      	ldr	r3, [r7, #16]
 8000eda:	60fb      	str	r3, [r7, #12]
 8000edc:	68f8      	ldr	r0, [r7, #12]
 8000ede:	f7ff ff11 	bl	8000d04 <music_delay>
 8000ee2:	bf00      	nop
 8000ee4:	3718      	adds	r7, #24
 8000ee6:	46bd      	mov	sp, r7
 8000ee8:	bd80      	pop	{r7, pc}
 8000eea:	bf00      	nop
 8000eec:	20000024 	andcs	r0, r0, r4, lsr #32
 8000ef0:	03938700 	orrseq	r8, r3, #0, 14

08000ef4 <startContinuousConversion>:
 8000ef4:	b480      	push	{r7}
 8000ef6:	b085      	sub	sp, #20
 8000ef8:	af00      	add	r7, sp, #0
 8000efa:	6078      	str	r0, [r7, #4]
 8000efc:	460b      	mov	r3, r1
 8000efe:	70fb      	strb	r3, [r7, #3]
 8000f00:	4b26      	ldr	r3, [pc, #152]	; (8000f9c <startContinuousConversion+0xa8>)
 8000f02:	681b      	ldr	r3, [r3, #0]
 8000f04:	4a25      	ldr	r2, [pc, #148]	; (8000f9c <startContinuousConversion+0xa8>)
 8000f06:	f023 030f 	bic.w	r3, r3, #15
 8000f0a:	6013      	str	r3, [r2, #0]
 8000f0c:	4b23      	ldr	r3, [pc, #140]	; (8000f9c <startContinuousConversion+0xa8>)
 8000f0e:	681a      	ldr	r2, [r3, #0]
 8000f10:	78fb      	ldrb	r3, [r7, #3]
 8000f12:	3b01      	subs	r3, #1
 8000f14:	f003 030f 	and.w	r3, r3, #15
 8000f18:	4920      	ldr	r1, [pc, #128]	; (8000f9c <startContinuousConversion+0xa8>)
 8000f1a:	4313      	orrs	r3, r2
 8000f1c:	600b      	str	r3, [r1, #0]
 8000f1e:	2300      	movs	r3, #0
 8000f20:	73fb      	strb	r3, [r7, #15]
 8000f22:	e01a      	b.n	8000f5a <startContinuousConversion+0x66>
 8000f24:	4b1e      	ldr	r3, [pc, #120]	; (8000fa0 <startContinuousConversion+0xac>)
 8000f26:	6819      	ldr	r1, [r3, #0]
 8000f28:	7bfa      	ldrb	r2, [r7, #15]
 8000f2a:	4613      	mov	r3, r2
 8000f2c:	009b      	lsls	r3, r3, #2
 8000f2e:	4413      	add	r3, r2
 8000f30:	221f      	movs	r2, #31
 8000f32:	fa02 f303 	lsl.w	r3, r2, r3
 8000f36:	43db      	mvns	r3, r3
 8000f38:	4a19      	ldr	r2, [pc, #100]	; (8000fa0 <startContinuousConversion+0xac>)
 8000f3a:	400b      	ands	r3, r1
 8000f3c:	6013      	str	r3, [r2, #0]
 8000f3e:	4b18      	ldr	r3, [pc, #96]	; (8000fa0 <startContinuousConversion+0xac>)
 8000f40:	681a      	ldr	r2, [r3, #0]
 8000f42:	7bfb      	ldrb	r3, [r7, #15]
 8000f44:	6879      	ldr	r1, [r7, #4]
 8000f46:	440b      	add	r3, r1
 8000f48:	781b      	ldrb	r3, [r3, #0]
 8000f4a:	f003 031f 	and.w	r3, r3, #31
 8000f4e:	4914      	ldr	r1, [pc, #80]	; (8000fa0 <startContinuousConversion+0xac>)
 8000f50:	4313      	orrs	r3, r2
 8000f52:	600b      	str	r3, [r1, #0]
 8000f54:	7bfb      	ldrb	r3, [r7, #15]
 8000f56:	3301      	adds	r3, #1
 8000f58:	73fb      	strb	r3, [r7, #15]
 8000f5a:	7bfa      	ldrb	r2, [r7, #15]
 8000f5c:	78fb      	ldrb	r3, [r7, #3]
 8000f5e:	429a      	cmp	r2, r3
 8000f60:	d3e0      	bcc.n	8000f24 <startContinuousConversion+0x30>
 8000f62:	4b10      	ldr	r3, [pc, #64]	; (8000fa4 <startContinuousConversion+0xb0>)
 8000f64:	681b      	ldr	r3, [r3, #0]
 8000f66:	4a0f      	ldr	r2, [pc, #60]	; (8000fa4 <startContinuousConversion+0xb0>)
 8000f68:	f043 0302 	orr.w	r3, r3, #2
 8000f6c:	6013      	str	r3, [r2, #0]
 8000f6e:	4b0d      	ldr	r3, [pc, #52]	; (8000fa4 <startContinuousConversion+0xb0>)
 8000f70:	681b      	ldr	r3, [r3, #0]
 8000f72:	4a0c      	ldr	r2, [pc, #48]	; (8000fa4 <startContinuousConversion+0xb0>)
 8000f74:	f043 0301 	orr.w	r3, r3, #1
 8000f78:	6013      	str	r3, [r2, #0]
 8000f7a:	4b0a      	ldr	r3, [pc, #40]	; (8000fa4 <startContinuousConversion+0xb0>)
 8000f7c:	681b      	ldr	r3, [r3, #0]
 8000f7e:	4a09      	ldr	r2, [pc, #36]	; (8000fa4 <startContinuousConversion+0xb0>)
 8000f80:	f043 0304 	orr.w	r3, r3, #4
 8000f84:	6013      	str	r3, [r2, #0]
 8000f86:	4b07      	ldr	r3, [pc, #28]	; (8000fa4 <startContinuousConversion+0xb0>)
 8000f88:	681b      	ldr	r3, [r3, #0]
 8000f8a:	4a06      	ldr	r2, [pc, #24]	; (8000fa4 <startContinuousConversion+0xb0>)
 8000f8c:	f043 0301 	orr.w	r3, r3, #1
 8000f90:	6013      	str	r3, [r2, #0]
 8000f92:	bf00      	nop
 8000f94:	3714      	adds	r7, #20
 8000f96:	46bd      	mov	sp, r7
 8000f98:	bc80      	pop	{r7}
 8000f9a:	4770      	bx	lr
 8000f9c:	4001242c 	andmi	r2, r1, ip, lsr #8
 8000fa0:	40012434 	andmi	r2, r1, r4, lsr r4
 8000fa4:	40012408 	andmi	r2, r1, r8, lsl #8

08000fa8 <readDataConverted>:
 8000fa8:	b480      	push	{r7}
 8000faa:	af00      	add	r7, sp, #0
 8000fac:	bf00      	nop
 8000fae:	4b0a      	ldr	r3, [pc, #40]	; (8000fd8 <readDataConverted+0x30>)
 8000fb0:	681b      	ldr	r3, [r3, #0]
 8000fb2:	085b      	lsrs	r3, r3, #1
 8000fb4:	f003 0301 	and.w	r3, r3, #1
 8000fb8:	2b00      	cmp	r3, #0
 8000fba:	d0f8      	beq.n	8000fae <readDataConverted+0x6>
 8000fbc:	4b06      	ldr	r3, [pc, #24]	; (8000fd8 <readDataConverted+0x30>)
 8000fbe:	681b      	ldr	r3, [r3, #0]
 8000fc0:	4a05      	ldr	r2, [pc, #20]	; (8000fd8 <readDataConverted+0x30>)
 8000fc2:	f023 0302 	bic.w	r3, r3, #2
 8000fc6:	6013      	str	r3, [r2, #0]
 8000fc8:	4b04      	ldr	r3, [pc, #16]	; (8000fdc <readDataConverted+0x34>)
 8000fca:	681b      	ldr	r3, [r3, #0]
 8000fcc:	b29b      	uxth	r3, r3
 8000fce:	4618      	mov	r0, r3
 8000fd0:	46bd      	mov	sp, r7
 8000fd2:	bc80      	pop	{r7}
 8000fd4:	4770      	bx	lr
 8000fd6:	bf00      	nop
 8000fd8:	40012400 	andmi	r2, r1, r0, lsl #8
 8000fdc:	4001244c 	andmi	r2, r1, ip, asr #8

08000fe0 <configPin>:
 8000fe0:	b480      	push	{r7}
 8000fe2:	b089      	sub	sp, #36	; 0x24
 8000fe4:	af00      	add	r7, sp, #0
 8000fe6:	4603      	mov	r3, r0
 8000fe8:	71fb      	strb	r3, [r7, #7]
 8000fea:	460b      	mov	r3, r1
 8000fec:	71bb      	strb	r3, [r7, #6]
 8000fee:	4613      	mov	r3, r2
 8000ff0:	717b      	strb	r3, [r7, #5]
 8000ff2:	79fb      	ldrb	r3, [r7, #7]
 8000ff4:	2b03      	cmp	r3, #3
 8000ff6:	f000 80fc 	beq.w	80011f2 <configPin+0x212>
 8000ffa:	2b03      	cmp	r3, #3
 8000ffc:	f300 8173 	bgt.w	80012e6 <configPin+0x306>
 8001000:	2b01      	cmp	r3, #1
 8001002:	d002      	beq.n	800100a <configPin+0x2a>
 8001004:	2b02      	cmp	r3, #2
 8001006:	d07a      	beq.n	80010fe <configPin+0x11e>
 8001008:	e16d      	b.n	80012e6 <configPin+0x306>
 800100a:	797b      	ldrb	r3, [r7, #5]
 800100c:	2b06      	cmp	r3, #6
 800100e:	d833      	bhi.n	8001078 <configPin+0x98>
 8001010:	a201      	add	r2, pc, #4	; (adr r2, 8001018 <configPin+0x38>)
 8001012:	f852 f023 	ldr.w	pc, [r2, r3, lsl #2]
 8001016:	bf00      	nop
 8001018:	08001035 	stmdaeq	r0, {r0, r2, r4, r5, ip}
 800101c:	0800103f 	stmdaeq	r0, {r0, r1, r2, r3, r4, r5, ip}
 8001020:	08001049 	stmdaeq	r0, {r0, r3, r6, ip}
 8001024:	08001053 	stmdaeq	r0, {r0, r1, r4, r6, ip}
 8001028:	0800105d 	stmdaeq	r0, {r0, r2, r3, r4, r6, ip}
 800102c:	08001067 	stmdaeq	r0, {r0, r1, r2, r5, r6, ip}
 8001030:	08001071 	stmdaeq	r0, {r0, r4, r5, r6, ip}
 8001034:	2302      	movs	r3, #2
 8001036:	61bb      	str	r3, [r7, #24]
 8001038:	2300      	movs	r3, #0
 800103a:	61fb      	str	r3, [r7, #28]
 800103c:	e01c      	b.n	8001078 <configPin+0x98>
 800103e:	2303      	movs	r3, #3
 8001040:	61bb      	str	r3, [r7, #24]
 8001042:	2301      	movs	r3, #1
 8001044:	61fb      	str	r3, [r7, #28]
 8001046:	e017      	b.n	8001078 <configPin+0x98>
 8001048:	2303      	movs	r3, #3
 800104a:	61bb      	str	r3, [r7, #24]
 800104c:	2302      	movs	r3, #2
 800104e:	61fb      	str	r3, [r7, #28]
 8001050:	e012      	b.n	8001078 <configPin+0x98>
 8001052:	2303      	movs	r3, #3
 8001054:	61bb      	str	r3, [r7, #24]
 8001056:	2303      	movs	r3, #3
 8001058:	61fb      	str	r3, [r7, #28]
 800105a:	e00d      	b.n	8001078 <configPin+0x98>
 800105c:	2300      	movs	r3, #0
 800105e:	61bb      	str	r3, [r7, #24]
 8001060:	2300      	movs	r3, #0
 8001062:	61fb      	str	r3, [r7, #28]
 8001064:	e008      	b.n	8001078 <configPin+0x98>
 8001066:	2300      	movs	r3, #0
 8001068:	61bb      	str	r3, [r7, #24]
 800106a:	2301      	movs	r3, #1
 800106c:	61fb      	str	r3, [r7, #28]
 800106e:	e003      	b.n	8001078 <configPin+0x98>
 8001070:	2300      	movs	r3, #0
 8001072:	61bb      	str	r3, [r7, #24]
 8001074:	2302      	movs	r3, #2
 8001076:	61fb      	str	r3, [r7, #28]
 8001078:	bf00      	nop
 800107a:	79bb      	ldrb	r3, [r7, #6]
 800107c:	2b07      	cmp	r3, #7
 800107e:	d81d      	bhi.n	80010bc <configPin+0xdc>
 8001080:	4b9c      	ldr	r3, [pc, #624]	; (80012f4 <configPin+0x314>)
 8001082:	681a      	ldr	r2, [r3, #0]
 8001084:	79bb      	ldrb	r3, [r7, #6]
 8001086:	009b      	lsls	r3, r3, #2
 8001088:	210f      	movs	r1, #15
 800108a:	fa01 f303 	lsl.w	r3, r1, r3
 800108e:	43db      	mvns	r3, r3
 8001090:	4013      	ands	r3, r2
 8001092:	60fb      	str	r3, [r7, #12]
 8001094:	79bb      	ldrb	r3, [r7, #6]
 8001096:	009b      	lsls	r3, r3, #2
 8001098:	3302      	adds	r3, #2
 800109a:	69fa      	ldr	r2, [r7, #28]
 800109c:	409a      	lsls	r2, r3
 800109e:	79bb      	ldrb	r3, [r7, #6]
 80010a0:	009b      	lsls	r3, r3, #2
 80010a2:	69b9      	ldr	r1, [r7, #24]
 80010a4:	fa01 f303 	lsl.w	r3, r1, r3
 80010a8:	4992      	ldr	r1, [pc, #584]	; (80012f4 <configPin+0x314>)
 80010aa:	4313      	orrs	r3, r2
 80010ac:	600b      	str	r3, [r1, #0]
 80010ae:	4b91      	ldr	r3, [pc, #580]	; (80012f4 <configPin+0x314>)
 80010b0:	681a      	ldr	r2, [r3, #0]
 80010b2:	4990      	ldr	r1, [pc, #576]	; (80012f4 <configPin+0x314>)
 80010b4:	68fb      	ldr	r3, [r7, #12]
 80010b6:	4313      	orrs	r3, r2
 80010b8:	600b      	str	r3, [r1, #0]
 80010ba:	e115      	b.n	80012e8 <configPin+0x308>
 80010bc:	4b8e      	ldr	r3, [pc, #568]	; (80012f8 <configPin+0x318>)
 80010be:	681a      	ldr	r2, [r3, #0]
 80010c0:	79bb      	ldrb	r3, [r7, #6]
 80010c2:	3b08      	subs	r3, #8
 80010c4:	009b      	lsls	r3, r3, #2
 80010c6:	210f      	movs	r1, #15
 80010c8:	fa01 f303 	lsl.w	r3, r1, r3
 80010cc:	43db      	mvns	r3, r3
 80010ce:	4013      	ands	r3, r2
 80010d0:	60fb      	str	r3, [r7, #12]
 80010d2:	79bb      	ldrb	r3, [r7, #6]
 80010d4:	3b08      	subs	r3, #8
 80010d6:	009b      	lsls	r3, r3, #2
 80010d8:	3302      	adds	r3, #2
 80010da:	69fa      	ldr	r2, [r7, #28]
 80010dc:	409a      	lsls	r2, r3
 80010de:	79bb      	ldrb	r3, [r7, #6]
 80010e0:	3b08      	subs	r3, #8
 80010e2:	009b      	lsls	r3, r3, #2
 80010e4:	69b9      	ldr	r1, [r7, #24]
 80010e6:	fa01 f303 	lsl.w	r3, r1, r3
 80010ea:	4983      	ldr	r1, [pc, #524]	; (80012f8 <configPin+0x318>)
 80010ec:	4313      	orrs	r3, r2
 80010ee:	600b      	str	r3, [r1, #0]
 80010f0:	4b81      	ldr	r3, [pc, #516]	; (80012f8 <configPin+0x318>)
 80010f2:	681a      	ldr	r2, [r3, #0]
 80010f4:	4980      	ldr	r1, [pc, #512]	; (80012f8 <configPin+0x318>)
 80010f6:	68fb      	ldr	r3, [r7, #12]
 80010f8:	4313      	orrs	r3, r2
 80010fa:	600b      	str	r3, [r1, #0]
 80010fc:	e0f4      	b.n	80012e8 <configPin+0x308>
 80010fe:	797b      	ldrb	r3, [r7, #5]
 8001100:	2b06      	cmp	r3, #6
 8001102:	d833      	bhi.n	800116c <configPin+0x18c>
 8001104:	a201      	add	r2, pc, #4	; (adr r2, 800110c <configPin+0x12c>)
 8001106:	f852 f023 	ldr.w	pc, [r2, r3, lsl #2]
 800110a:	bf00      	nop
 800110c:	08001129 	stmdaeq	r0, {r0, r3, r5, r8, ip}
 8001110:	08001133 	stmdaeq	r0, {r0, r1, r4, r5, r8, ip}
 8001114:	0800113d 	stmdaeq	r0, {r0, r2, r3, r4, r5, r8, ip}
 8001118:	08001147 	stmdaeq	r0, {r0, r1, r2, r6, r8, ip}
 800111c:	08001151 	stmdaeq	r0, {r0, r4, r6, r8, ip}
 8001120:	0800115b 	stmdaeq	r0, {r0, r1, r3, r4, r6, r8, ip}
 8001124:	08001165 	stmdaeq	r0, {r0, r2, r5, r6, r8, ip}
 8001128:	2302      	movs	r3, #2
 800112a:	61bb      	str	r3, [r7, #24]
 800112c:	2300      	movs	r3, #0
 800112e:	61fb      	str	r3, [r7, #28]
 8001130:	e01c      	b.n	800116c <configPin+0x18c>
 8001132:	2303      	movs	r3, #3
 8001134:	61bb      	str	r3, [r7, #24]
 8001136:	2301      	movs	r3, #1
 8001138:	61fb      	str	r3, [r7, #28]
 800113a:	e017      	b.n	800116c <configPin+0x18c>
 800113c:	2303      	movs	r3, #3
 800113e:	61bb      	str	r3, [r7, #24]
 8001140:	2302      	movs	r3, #2
 8001142:	61fb      	str	r3, [r7, #28]
 8001144:	e012      	b.n	800116c <configPin+0x18c>
 8001146:	2303      	movs	r3, #3
 8001148:	61bb      	str	r3, [r7, #24]
 800114a:	2303      	movs	r3, #3
 800114c:	61fb      	str	r3, [r7, #28]
 800114e:	e00d      	b.n	800116c <configPin+0x18c>
 8001150:	2300      	movs	r3, #0
 8001152:	61bb      	str	r3, [r7, #24]
 8001154:	2300      	movs	r3, #0
 8001156:	61fb      	str	r3, [r7, #28]
 8001158:	e008      	b.n	800116c <configPin+0x18c>
 800115a:	2300      	movs	r3, #0
 800115c:	61bb      	str	r3, [r7, #24]
 800115e:	2301      	movs	r3, #1
 8001160:	61fb      	str	r3, [r7, #28]
 8001162:	e003      	b.n	800116c <configPin+0x18c>
 8001164:	2300      	movs	r3, #0
 8001166:	61bb      	str	r3, [r7, #24]
 8001168:	2302      	movs	r3, #2
 800116a:	61fb      	str	r3, [r7, #28]
 800116c:	bf00      	nop
 800116e:	79bb      	ldrb	r3, [r7, #6]
 8001170:	2b07      	cmp	r3, #7
 8001172:	d81d      	bhi.n	80011b0 <configPin+0x1d0>
 8001174:	4b61      	ldr	r3, [pc, #388]	; (80012fc <configPin+0x31c>)
 8001176:	681a      	ldr	r2, [r3, #0]
 8001178:	79bb      	ldrb	r3, [r7, #6]
 800117a:	009b      	lsls	r3, r3, #2
 800117c:	210f      	movs	r1, #15
 800117e:	fa01 f303 	lsl.w	r3, r1, r3
 8001182:	43db      	mvns	r3, r3
 8001184:	4013      	ands	r3, r2
 8001186:	613b      	str	r3, [r7, #16]
 8001188:	79bb      	ldrb	r3, [r7, #6]
 800118a:	009b      	lsls	r3, r3, #2
 800118c:	3302      	adds	r3, #2
 800118e:	69fa      	ldr	r2, [r7, #28]
 8001190:	409a      	lsls	r2, r3
 8001192:	79bb      	ldrb	r3, [r7, #6]
 8001194:	009b      	lsls	r3, r3, #2
 8001196:	69b9      	ldr	r1, [r7, #24]
 8001198:	fa01 f303 	lsl.w	r3, r1, r3
 800119c:	4957      	ldr	r1, [pc, #348]	; (80012fc <configPin+0x31c>)
 800119e:	4313      	orrs	r3, r2
 80011a0:	600b      	str	r3, [r1, #0]
 80011a2:	4b56      	ldr	r3, [pc, #344]	; (80012fc <configPin+0x31c>)
 80011a4:	681a      	ldr	r2, [r3, #0]
 80011a6:	4955      	ldr	r1, [pc, #340]	; (80012fc <configPin+0x31c>)
 80011a8:	693b      	ldr	r3, [r7, #16]
 80011aa:	4313      	orrs	r3, r2
 80011ac:	600b      	str	r3, [r1, #0]
 80011ae:	e09b      	b.n	80012e8 <configPin+0x308>
 80011b0:	4b53      	ldr	r3, [pc, #332]	; (8001300 <configPin+0x320>)
 80011b2:	681a      	ldr	r2, [r3, #0]
 80011b4:	79bb      	ldrb	r3, [r7, #6]
 80011b6:	3b08      	subs	r3, #8
 80011b8:	009b      	lsls	r3, r3, #2
 80011ba:	210f      	movs	r1, #15
 80011bc:	fa01 f303 	lsl.w	r3, r1, r3
 80011c0:	43db      	mvns	r3, r3
 80011c2:	4013      	ands	r3, r2
 80011c4:	613b      	str	r3, [r7, #16]
 80011c6:	79bb      	ldrb	r3, [r7, #6]
 80011c8:	3b08      	subs	r3, #8
 80011ca:	009b      	lsls	r3, r3, #2
 80011cc:	3302      	adds	r3, #2
 80011ce:	69fa      	ldr	r2, [r7, #28]
 80011d0:	409a      	lsls	r2, r3
 80011d2:	79bb      	ldrb	r3, [r7, #6]
 80011d4:	3b08      	subs	r3, #8
 80011d6:	009b      	lsls	r3, r3, #2
 80011d8:	69b9      	ldr	r1, [r7, #24]
 80011da:	fa01 f303 	lsl.w	r3, r1, r3
 80011de:	4948      	ldr	r1, [pc, #288]	; (8001300 <configPin+0x320>)
 80011e0:	4313      	orrs	r3, r2
 80011e2:	600b      	str	r3, [r1, #0]
 80011e4:	4b46      	ldr	r3, [pc, #280]	; (8001300 <configPin+0x320>)
 80011e6:	681a      	ldr	r2, [r3, #0]
 80011e8:	4945      	ldr	r1, [pc, #276]	; (8001300 <configPin+0x320>)
 80011ea:	693b      	ldr	r3, [r7, #16]
 80011ec:	4313      	orrs	r3, r2
 80011ee:	600b      	str	r3, [r1, #0]
 80011f0:	e07a      	b.n	80012e8 <configPin+0x308>
 80011f2:	797b      	ldrb	r3, [r7, #5]
 80011f4:	2b06      	cmp	r3, #6
 80011f6:	d833      	bhi.n	8001260 <configPin+0x280>
 80011f8:	a201      	add	r2, pc, #4	; (adr r2, 8001200 <configPin+0x220>)
 80011fa:	f852 f023 	ldr.w	pc, [r2, r3, lsl #2]
 80011fe:	bf00      	nop
 8001200:	0800121d 	stmdaeq	r0, {r0, r2, r3, r4, r9, ip}
 8001204:	08001227 	stmdaeq	r0, {r0, r1, r2, r5, r9, ip}
 8001208:	08001231 	stmdaeq	r0, {r0, r4, r5, r9, ip}
 800120c:	0800123b 	stmdaeq	r0, {r0, r1, r3, r4, r5, r9, ip}
 8001210:	08001245 	stmdaeq	r0, {r0, r2, r6, r9, ip}
 8001214:	0800124f 	stmdaeq	r0, {r0, r1, r2, r3, r6, r9, ip}
 8001218:	08001259 	stmdaeq	r0, {r0, r3, r4, r6, r9, ip}
 800121c:	2302      	movs	r3, #2
 800121e:	61bb      	str	r3, [r7, #24]
 8001220:	2300      	movs	r3, #0
 8001222:	61fb      	str	r3, [r7, #28]
 8001224:	e01c      	b.n	8001260 <configPin+0x280>
 8001226:	2303      	movs	r3, #3
 8001228:	61bb      	str	r3, [r7, #24]
 800122a:	2301      	movs	r3, #1
 800122c:	61fb      	str	r3, [r7, #28]
 800122e:	e017      	b.n	8001260 <configPin+0x280>
 8001230:	2303      	movs	r3, #3
 8001232:	61bb      	str	r3, [r7, #24]
 8001234:	2302      	movs	r3, #2
 8001236:	61fb      	str	r3, [r7, #28]
 8001238:	e012      	b.n	8001260 <configPin+0x280>
 800123a:	2303      	movs	r3, #3
 800123c:	61bb      	str	r3, [r7, #24]
 800123e:	2303      	movs	r3, #3
 8001240:	61fb      	str	r3, [r7, #28]
 8001242:	e00d      	b.n	8001260 <configPin+0x280>
 8001244:	2300      	movs	r3, #0
 8001246:	61bb      	str	r3, [r7, #24]
 8001248:	2300      	movs	r3, #0
 800124a:	61fb      	str	r3, [r7, #28]
 800124c:	e008      	b.n	8001260 <configPin+0x280>
 800124e:	2300      	movs	r3, #0
 8001250:	61bb      	str	r3, [r7, #24]
 8001252:	2301      	movs	r3, #1
 8001254:	61fb      	str	r3, [r7, #28]
 8001256:	e003      	b.n	8001260 <configPin+0x280>
 8001258:	2300      	movs	r3, #0
 800125a:	61bb      	str	r3, [r7, #24]
 800125c:	2302      	movs	r3, #2
 800125e:	61fb      	str	r3, [r7, #28]
 8001260:	bf00      	nop
 8001262:	79bb      	ldrb	r3, [r7, #6]
 8001264:	2b07      	cmp	r3, #7
 8001266:	d81d      	bhi.n	80012a4 <configPin+0x2c4>
 8001268:	4b26      	ldr	r3, [pc, #152]	; (8001304 <configPin+0x324>)
 800126a:	681a      	ldr	r2, [r3, #0]
 800126c:	79bb      	ldrb	r3, [r7, #6]
 800126e:	009b      	lsls	r3, r3, #2
 8001270:	210f      	movs	r1, #15
 8001272:	fa01 f303 	lsl.w	r3, r1, r3
 8001276:	43db      	mvns	r3, r3
 8001278:	4013      	ands	r3, r2
 800127a:	617b      	str	r3, [r7, #20]
 800127c:	79bb      	ldrb	r3, [r7, #6]
 800127e:	009b      	lsls	r3, r3, #2
 8001280:	3302      	adds	r3, #2
 8001282:	69fa      	ldr	r2, [r7, #28]
 8001284:	409a      	lsls	r2, r3
 8001286:	79bb      	ldrb	r3, [r7, #6]
 8001288:	009b      	lsls	r3, r3, #2
 800128a:	69b9      	ldr	r1, [r7, #24]
 800128c:	fa01 f303 	lsl.w	r3, r1, r3
 8001290:	491c      	ldr	r1, [pc, #112]	; (8001304 <configPin+0x324>)
 8001292:	4313      	orrs	r3, r2
 8001294:	600b      	str	r3, [r1, #0]
 8001296:	4b1b      	ldr	r3, [pc, #108]	; (8001304 <configPin+0x324>)
 8001298:	681a      	ldr	r2, [r3, #0]
 800129a:	491a      	ldr	r1, [pc, #104]	; (8001304 <configPin+0x324>)
 800129c:	697b      	ldr	r3, [r7, #20]
 800129e:	4313      	orrs	r3, r2
 80012a0:	600b      	str	r3, [r1, #0]
 80012a2:	e021      	b.n	80012e8 <configPin+0x308>
 80012a4:	4b18      	ldr	r3, [pc, #96]	; (8001308 <configPin+0x328>)
 80012a6:	681a      	ldr	r2, [r3, #0]
 80012a8:	79bb      	ldrb	r3, [r7, #6]
 80012aa:	3b08      	subs	r3, #8
 80012ac:	009b      	lsls	r3, r3, #2
 80012ae:	210f      	movs	r1, #15
 80012b0:	fa01 f303 	lsl.w	r3, r1, r3
 80012b4:	43db      	mvns	r3, r3
 80012b6:	4013      	ands	r3, r2
 80012b8:	617b      	str	r3, [r7, #20]
 80012ba:	79bb      	ldrb	r3, [r7, #6]
 80012bc:	3b08      	subs	r3, #8
 80012be:	009b      	lsls	r3, r3, #2
 80012c0:	3302      	adds	r3, #2
 80012c2:	69fa      	ldr	r2, [r7, #28]
 80012c4:	409a      	lsls	r2, r3
 80012c6:	79bb      	ldrb	r3, [r7, #6]
 80012c8:	3b08      	subs	r3, #8
 80012ca:	009b      	lsls	r3, r3, #2
 80012cc:	69b9      	ldr	r1, [r7, #24]
 80012ce:	fa01 f303 	lsl.w	r3, r1, r3
 80012d2:	490d      	ldr	r1, [pc, #52]	; (8001308 <configPin+0x328>)
 80012d4:	4313      	orrs	r3, r2
 80012d6:	600b      	str	r3, [r1, #0]
 80012d8:	4b0b      	ldr	r3, [pc, #44]	; (8001308 <configPin+0x328>)
 80012da:	681a      	ldr	r2, [r3, #0]
 80012dc:	490a      	ldr	r1, [pc, #40]	; (8001308 <configPin+0x328>)
 80012de:	697b      	ldr	r3, [r7, #20]
 80012e0:	4313      	orrs	r3, r2
 80012e2:	600b      	str	r3, [r1, #0]
 80012e4:	e000      	b.n	80012e8 <configPin+0x308>
 80012e6:	bf00      	nop
 80012e8:	bf00      	nop
 80012ea:	3724      	adds	r7, #36	; 0x24
 80012ec:	46bd      	mov	sp, r7
 80012ee:	bc80      	pop	{r7}
 80012f0:	4770      	bx	lr
 80012f2:	bf00      	nop
 80012f4:	40010800 	andmi	r0, r1, r0, lsl #16
 80012f8:	40010804 	andmi	r0, r1, r4, lsl #16
 80012fc:	40010c00 	andmi	r0, r1, r0, lsl #24
 8001300:	40010c04 	andmi	r0, r1, r4, lsl #24
 8001304:	40011000 	andmi	r1, r1, r0
 8001308:	40011004 	andmi	r1, r1, r4

0800130c <setPin>:
 800130c:	b480      	push	{r7}
 800130e:	b085      	sub	sp, #20
 8001310:	af00      	add	r7, sp, #0
 8001312:	4603      	mov	r3, r0
 8001314:	71fb      	strb	r3, [r7, #7]
 8001316:	460b      	mov	r3, r1
 8001318:	71bb      	strb	r3, [r7, #6]
 800131a:	4613      	mov	r3, r2
 800131c:	717b      	strb	r3, [r7, #5]
 800131e:	79fb      	ldrb	r3, [r7, #7]
 8001320:	2b03      	cmp	r3, #3
 8001322:	d028      	beq.n	8001376 <setPin+0x6a>
 8001324:	2b03      	cmp	r3, #3
 8001326:	dc37      	bgt.n	8001398 <setPin+0x8c>
 8001328:	2b01      	cmp	r3, #1
 800132a:	d002      	beq.n	8001332 <setPin+0x26>
 800132c:	2b02      	cmp	r3, #2
 800132e:	d011      	beq.n	8001354 <setPin+0x48>
 8001330:	e032      	b.n	8001398 <setPin+0x8c>
 8001332:	4b1c      	ldr	r3, [pc, #112]	; (80013a4 <setPin+0x98>)
 8001334:	681a      	ldr	r2, [r3, #0]
 8001336:	79bb      	ldrb	r3, [r7, #6]
 8001338:	2101      	movs	r1, #1
 800133a:	fa01 f303 	lsl.w	r3, r1, r3
 800133e:	43db      	mvns	r3, r3
 8001340:	4013      	ands	r3, r2
 8001342:	60fb      	str	r3, [r7, #12]
 8001344:	797a      	ldrb	r2, [r7, #5]
 8001346:	79bb      	ldrb	r3, [r7, #6]
 8001348:	409a      	lsls	r2, r3
 800134a:	4916      	ldr	r1, [pc, #88]	; (80013a4 <setPin+0x98>)
 800134c:	68fb      	ldr	r3, [r7, #12]
 800134e:	4313      	orrs	r3, r2
 8001350:	600b      	str	r3, [r1, #0]
 8001352:	e022      	b.n	800139a <setPin+0x8e>
 8001354:	4b14      	ldr	r3, [pc, #80]	; (80013a8 <setPin+0x9c>)
 8001356:	681a      	ldr	r2, [r3, #0]
 8001358:	79bb      	ldrb	r3, [r7, #6]
 800135a:	2101      	movs	r1, #1
 800135c:	fa01 f303 	lsl.w	r3, r1, r3
 8001360:	43db      	mvns	r3, r3
 8001362:	4013      	ands	r3, r2
 8001364:	60fb      	str	r3, [r7, #12]
 8001366:	797a      	ldrb	r2, [r7, #5]
 8001368:	79bb      	ldrb	r3, [r7, #6]
 800136a:	409a      	lsls	r2, r3
 800136c:	490e      	ldr	r1, [pc, #56]	; (80013a8 <setPin+0x9c>)
 800136e:	68fb      	ldr	r3, [r7, #12]
 8001370:	4313      	orrs	r3, r2
 8001372:	600b      	str	r3, [r1, #0]
 8001374:	e011      	b.n	800139a <setPin+0x8e>
 8001376:	4b0d      	ldr	r3, [pc, #52]	; (80013ac <setPin+0xa0>)
 8001378:	681a      	ldr	r2, [r3, #0]
 800137a:	79bb      	ldrb	r3, [r7, #6]
 800137c:	2101      	movs	r1, #1
 800137e:	fa01 f303 	lsl.w	r3, r1, r3
 8001382:	43db      	mvns	r3, r3
 8001384:	4013      	ands	r3, r2
 8001386:	60fb      	str	r3, [r7, #12]
 8001388:	797a      	ldrb	r2, [r7, #5]
 800138a:	79bb      	ldrb	r3, [r7, #6]
 800138c:	409a      	lsls	r2, r3
 800138e:	4907      	ldr	r1, [pc, #28]	; (80013ac <setPin+0xa0>)
 8001390:	68fb      	ldr	r3, [r7, #12]
 8001392:	4313      	orrs	r3, r2
 8001394:	600b      	str	r3, [r1, #0]
 8001396:	e000      	b.n	800139a <setPin+0x8e>
 8001398:	bf00      	nop
 800139a:	bf00      	nop
 800139c:	3714      	adds	r7, #20
 800139e:	46bd      	mov	sp, r7
 80013a0:	bc80      	pop	{r7}
 80013a2:	4770      	bx	lr
 80013a4:	4001080c 	andmi	r0, r1, ip, lsl #16
 80013a8:	40010c0c 	andmi	r0, r1, ip, lsl #24
 80013ac:	4001100c 	andmi	r1, r1, ip

080013b0 <getTimerClockFreq>:
 80013b0:	b580      	push	{r7, lr}
 80013b2:	b088      	sub	sp, #32
 80013b4:	af00      	add	r7, sp, #0
 80013b6:	f7ff f9cd 	bl	8000754 <getClockFreq>
 80013ba:	6138      	str	r0, [r7, #16]
 80013bc:	4b23      	ldr	r3, [pc, #140]	; (800144c <getTimerClockFreq+0x9c>)
 80013be:	681b      	ldr	r3, [r3, #0]
 80013c0:	091b      	lsrs	r3, r3, #4
 80013c2:	f003 036f 	and.w	r3, r3, #111	; 0x6f
 80013c6:	60fb      	str	r3, [r7, #12]
 80013c8:	2301      	movs	r3, #1
 80013ca:	61fb      	str	r3, [r7, #28]
 80013cc:	2300      	movs	r3, #0
 80013ce:	76fb      	strb	r3, [r7, #27]
 80013d0:	e00b      	b.n	80013ea <getTimerClockFreq+0x3a>
 80013d2:	7efb      	ldrb	r3, [r7, #27]
 80013d4:	2b05      	cmp	r3, #5
 80013d6:	d102      	bne.n	80013de <getTimerClockFreq+0x2e>
 80013d8:	69fb      	ldr	r3, [r7, #28]
 80013da:	005b      	lsls	r3, r3, #1
 80013dc:	61fb      	str	r3, [r7, #28]
 80013de:	69fb      	ldr	r3, [r7, #28]
 80013e0:	005b      	lsls	r3, r3, #1
 80013e2:	61fb      	str	r3, [r7, #28]
 80013e4:	7efb      	ldrb	r3, [r7, #27]
 80013e6:	3301      	adds	r3, #1
 80013e8:	76fb      	strb	r3, [r7, #27]
 80013ea:	7efb      	ldrb	r3, [r7, #27]
 80013ec:	68fa      	ldr	r2, [r7, #12]
 80013ee:	429a      	cmp	r2, r3
 80013f0:	d8ef      	bhi.n	80013d2 <getTimerClockFreq+0x22>
 80013f2:	693a      	ldr	r2, [r7, #16]
 80013f4:	69fb      	ldr	r3, [r7, #28]
 80013f6:	fbb2 f3f3 	udiv	r3, r2, r3
 80013fa:	60bb      	str	r3, [r7, #8]
 80013fc:	4b13      	ldr	r3, [pc, #76]	; (800144c <getTimerClockFreq+0x9c>)
 80013fe:	681b      	ldr	r3, [r3, #0]
 8001400:	0a1b      	lsrs	r3, r3, #8
 8001402:	b29a      	uxth	r2, r3
 8001404:	f240 4357 	movw	r3, #1111	; 0x457
 8001408:	4013      	ands	r3, r2
 800140a:	80fb      	strh	r3, [r7, #6]
 800140c:	2301      	movs	r3, #1
 800140e:	833b      	strh	r3, [r7, #24]
 8001410:	2300      	movs	r3, #0
 8001412:	75fb      	strb	r3, [r7, #23]
 8001414:	e005      	b.n	8001422 <getTimerClockFreq+0x72>
 8001416:	8b3b      	ldrh	r3, [r7, #24]
 8001418:	005b      	lsls	r3, r3, #1
 800141a:	833b      	strh	r3, [r7, #24]
 800141c:	7dfb      	ldrb	r3, [r7, #23]
 800141e:	3301      	adds	r3, #1
 8001420:	75fb      	strb	r3, [r7, #23]
 8001422:	7dfb      	ldrb	r3, [r7, #23]
 8001424:	b29b      	uxth	r3, r3
 8001426:	88fa      	ldrh	r2, [r7, #6]
 8001428:	429a      	cmp	r2, r3
 800142a:	d8f4      	bhi.n	8001416 <getTimerClockFreq+0x66>
 800142c:	8b3b      	ldrh	r3, [r7, #24]
 800142e:	68ba      	ldr	r2, [r7, #8]
 8001430:	fbb2 f3f3 	udiv	r3, r2, r3
 8001434:	603b      	str	r3, [r7, #0]
 8001436:	8b3b      	ldrh	r3, [r7, #24]
 8001438:	2b01      	cmp	r3, #1
 800143a:	d101      	bne.n	8001440 <getTimerClockFreq+0x90>
 800143c:	683b      	ldr	r3, [r7, #0]
 800143e:	e001      	b.n	8001444 <getTimerClockFreq+0x94>
 8001440:	683b      	ldr	r3, [r7, #0]
 8001442:	005b      	lsls	r3, r3, #1
 8001444:	4618      	mov	r0, r3
 8001446:	3720      	adds	r7, #32
 8001448:	46bd      	mov	sp, r7
 800144a:	bd80      	pop	{r7, pc}
 800144c:	40021004 	andmi	r1, r2, r4

08001450 <setPWM>:
 8001450:	b580      	push	{r7, lr}
 8001452:	b086      	sub	sp, #24
 8001454:	af00      	add	r7, sp, #0
 8001456:	6078      	str	r0, [r7, #4]
 8001458:	f04f 4380 	mov.w	r3, #1073741824	; 0x40000000
 800145c:	2280      	movs	r2, #128	; 0x80
 800145e:	601a      	str	r2, [r3, #0]
 8001460:	4b1b      	ldr	r3, [pc, #108]	; (80014d0 <setPWM+0x80>)
 8001462:	f44f 22df 	mov.w	r2, #456704	; 0x6f800
 8001466:	601a      	str	r2, [r3, #0]
 8001468:	4b1a      	ldr	r3, [pc, #104]	; (80014d4 <setPWM+0x84>)
 800146a:	2230      	movs	r2, #48	; 0x30
 800146c:	601a      	str	r2, [r3, #0]
 800146e:	f640 73ff 	movw	r3, #4095	; 0xfff
 8001472:	82fb      	strh	r3, [r7, #22]
 8001474:	8afb      	ldrh	r3, [r7, #22]
 8001476:	1e5a      	subs	r2, r3, #1
 8001478:	4b17      	ldr	r3, [pc, #92]	; (80014d8 <setPWM+0x88>)
 800147a:	601a      	str	r2, [r3, #0]
 800147c:	f7ff ff98 	bl	80013b0 <getTimerClockFreq>
 8001480:	6138      	str	r0, [r7, #16]
 8001482:	693b      	ldr	r3, [r7, #16]
 8001484:	f44f 727a 	mov.w	r2, #1000	; 0x3e8
 8001488:	fb03 f202 	mul.w	r2, r3, r2
 800148c:	8afb      	ldrh	r3, [r7, #22]
 800148e:	fbb2 f2f3 	udiv	r2, r2, r3
 8001492:	687b      	ldr	r3, [r7, #4]
 8001494:	fbb2 f3f3 	udiv	r3, r2, r3
 8001498:	60fb      	str	r3, [r7, #12]
 800149a:	4a10      	ldr	r2, [pc, #64]	; (80014dc <setPWM+0x8c>)
 800149c:	68fb      	ldr	r3, [r7, #12]
 800149e:	6013      	str	r3, [r2, #0]
 80014a0:	4a0f      	ldr	r2, [pc, #60]	; (80014e0 <setPWM+0x90>)
 80014a2:	68fb      	ldr	r3, [r7, #12]
 80014a4:	085b      	lsrs	r3, r3, #1
 80014a6:	6013      	str	r3, [r2, #0]
 80014a8:	4b0e      	ldr	r3, [pc, #56]	; (80014e4 <setPWM+0x94>)
 80014aa:	2201      	movs	r2, #1
 80014ac:	601a      	str	r2, [r3, #0]
 80014ae:	4b0e      	ldr	r3, [pc, #56]	; (80014e8 <setPWM+0x98>)
 80014b0:	681b      	ldr	r3, [r3, #0]
 80014b2:	4b0d      	ldr	r3, [pc, #52]	; (80014e8 <setPWM+0x98>)
 80014b4:	2200      	movs	r2, #0
 80014b6:	601a      	str	r2, [r3, #0]
 80014b8:	f04f 4380 	mov.w	r3, #1073741824	; 0x40000000
 80014bc:	681b      	ldr	r3, [r3, #0]
 80014be:	f04f 4280 	mov.w	r2, #1073741824	; 0x40000000
 80014c2:	f043 0301 	orr.w	r3, r3, #1
 80014c6:	6013      	str	r3, [r2, #0]
 80014c8:	bf00      	nop
 80014ca:	3718      	adds	r7, #24
 80014cc:	46bd      	mov	sp, r7
 80014ce:	bd80      	pop	{r7, pc}
 80014d0:	40000018 	andmi	r0, r0, r8, lsl r0
 80014d4:	40000020 	andmi	r0, r0, r0, lsr #32
 80014d8:	40000028 	andmi	r0, r0, r8, lsr #32
 80014dc:	4000002c 	andmi	r0, r0, ip, lsr #32
 80014e0:	40000038 	andmi	r0, r0, r8, lsr r0
 80014e4:	40000014 	andmi	r0, r0, r4, lsl r0
 80014e8:	40000010 	andmi	r0, r0, r0, lsl r0

080014ec <setTimer>:
 80014ec:	b480      	push	{r7}
 80014ee:	b085      	sub	sp, #20
 80014f0:	af00      	add	r7, sp, #0
 80014f2:	60f8      	str	r0, [r7, #12]
 80014f4:	60b9      	str	r1, [r7, #8]
 80014f6:	607a      	str	r2, [r7, #4]
 80014f8:	603b      	str	r3, [r7, #0]
 80014fa:	68fb      	ldr	r3, [r7, #12]
 80014fc:	4a4d      	ldr	r2, [pc, #308]	; (8001634 <setTimer+0x148>)
 80014fe:	4293      	cmp	r3, r2
 8001500:	d073      	beq.n	80015ea <setTimer+0xfe>
 8001502:	68fb      	ldr	r3, [r7, #12]
 8001504:	4a4b      	ldr	r2, [pc, #300]	; (8001634 <setTimer+0x148>)
 8001506:	4293      	cmp	r3, r2
 8001508:	f200 808d 	bhi.w	8001626 <setTimer+0x13a>
 800150c:	68fb      	ldr	r3, [r7, #12]
 800150e:	4a4a      	ldr	r2, [pc, #296]	; (8001638 <setTimer+0x14c>)
 8001510:	4293      	cmp	r3, r2
 8001512:	d04c      	beq.n	80015ae <setTimer+0xc2>
 8001514:	68fb      	ldr	r3, [r7, #12]
 8001516:	4a48      	ldr	r2, [pc, #288]	; (8001638 <setTimer+0x14c>)
 8001518:	4293      	cmp	r3, r2
 800151a:	f200 8084 	bhi.w	8001626 <setTimer+0x13a>
 800151e:	68fb      	ldr	r3, [r7, #12]
 8001520:	f1b3 4f80 	cmp.w	r3, #1073741824	; 0x40000000
 8001524:	d004      	beq.n	8001530 <setTimer+0x44>
 8001526:	68fb      	ldr	r3, [r7, #12]
 8001528:	4a44      	ldr	r2, [pc, #272]	; (800163c <setTimer+0x150>)
 800152a:	4293      	cmp	r3, r2
 800152c:	d021      	beq.n	8001572 <setTimer+0x86>
 800152e:	e07a      	b.n	8001626 <setTimer+0x13a>
 8001530:	4a43      	ldr	r2, [pc, #268]	; (8001640 <setTimer+0x154>)
 8001532:	68bb      	ldr	r3, [r7, #8]
 8001534:	6013      	str	r3, [r2, #0]
 8001536:	4a43      	ldr	r2, [pc, #268]	; (8001644 <setTimer+0x158>)
 8001538:	687b      	ldr	r3, [r7, #4]
 800153a:	6013      	str	r3, [r2, #0]
 800153c:	683b      	ldr	r3, [r7, #0]
 800153e:	011b      	lsls	r3, r3, #4
 8001540:	f04f 4280 	mov.w	r2, #1073741824	; 0x40000000
 8001544:	f043 0380 	orr.w	r3, r3, #128	; 0x80
 8001548:	6013      	str	r3, [r2, #0]
 800154a:	4b3f      	ldr	r3, [pc, #252]	; (8001648 <setTimer+0x15c>)
 800154c:	2201      	movs	r2, #1
 800154e:	601a      	str	r2, [r3, #0]
 8001550:	4b3e      	ldr	r3, [pc, #248]	; (800164c <setTimer+0x160>)
 8001552:	681b      	ldr	r3, [r3, #0]
 8001554:	4b3d      	ldr	r3, [pc, #244]	; (800164c <setTimer+0x160>)
 8001556:	2200      	movs	r2, #0
 8001558:	601a      	str	r2, [r3, #0]
 800155a:	f04f 4380 	mov.w	r3, #1073741824	; 0x40000000
 800155e:	681b      	ldr	r3, [r3, #0]
 8001560:	f04f 4280 	mov.w	r2, #1073741824	; 0x40000000
 8001564:	f043 0301 	orr.w	r3, r3, #1
 8001568:	6013      	str	r3, [r2, #0]
 800156a:	4a39      	ldr	r2, [pc, #228]	; (8001650 <setTimer+0x164>)
 800156c:	69bb      	ldr	r3, [r7, #24]
 800156e:	6013      	str	r3, [r2, #0]
 8001570:	e05a      	b.n	8001628 <setTimer+0x13c>
 8001572:	4a38      	ldr	r2, [pc, #224]	; (8001654 <setTimer+0x168>)
 8001574:	68bb      	ldr	r3, [r7, #8]
 8001576:	6013      	str	r3, [r2, #0]
 8001578:	4a37      	ldr	r2, [pc, #220]	; (8001658 <setTimer+0x16c>)
 800157a:	687b      	ldr	r3, [r7, #4]
 800157c:	6013      	str	r3, [r2, #0]
 800157e:	683b      	ldr	r3, [r7, #0]
 8001580:	011b      	lsls	r3, r3, #4
 8001582:	4a2e      	ldr	r2, [pc, #184]	; (800163c <setTimer+0x150>)
 8001584:	f043 0380 	orr.w	r3, r3, #128	; 0x80
 8001588:	6013      	str	r3, [r2, #0]
 800158a:	4b34      	ldr	r3, [pc, #208]	; (800165c <setTimer+0x170>)
 800158c:	2201      	movs	r2, #1
 800158e:	601a      	str	r2, [r3, #0]
 8001590:	4b33      	ldr	r3, [pc, #204]	; (8001660 <setTimer+0x174>)
 8001592:	681b      	ldr	r3, [r3, #0]
 8001594:	4b32      	ldr	r3, [pc, #200]	; (8001660 <setTimer+0x174>)
 8001596:	2200      	movs	r2, #0
 8001598:	601a      	str	r2, [r3, #0]
 800159a:	4b28      	ldr	r3, [pc, #160]	; (800163c <setTimer+0x150>)
 800159c:	681b      	ldr	r3, [r3, #0]
 800159e:	4a27      	ldr	r2, [pc, #156]	; (800163c <setTimer+0x150>)
 80015a0:	f043 0301 	orr.w	r3, r3, #1
 80015a4:	6013      	str	r3, [r2, #0]
 80015a6:	4a2f      	ldr	r2, [pc, #188]	; (8001664 <setTimer+0x178>)
 80015a8:	69bb      	ldr	r3, [r7, #24]
 80015aa:	6013      	str	r3, [r2, #0]
 80015ac:	e03c      	b.n	8001628 <setTimer+0x13c>
 80015ae:	4a2e      	ldr	r2, [pc, #184]	; (8001668 <setTimer+0x17c>)
 80015b0:	68bb      	ldr	r3, [r7, #8]
 80015b2:	6013      	str	r3, [r2, #0]
 80015b4:	4a2d      	ldr	r2, [pc, #180]	; (800166c <setTimer+0x180>)
 80015b6:	687b      	ldr	r3, [r7, #4]
 80015b8:	6013      	str	r3, [r2, #0]
 80015ba:	683b      	ldr	r3, [r7, #0]
 80015bc:	011b      	lsls	r3, r3, #4
 80015be:	4a1e      	ldr	r2, [pc, #120]	; (8001638 <setTimer+0x14c>)
 80015c0:	f043 0380 	orr.w	r3, r3, #128	; 0x80
 80015c4:	6013      	str	r3, [r2, #0]
 80015c6:	4b2a      	ldr	r3, [pc, #168]	; (8001670 <setTimer+0x184>)
 80015c8:	2201      	movs	r2, #1
 80015ca:	601a      	str	r2, [r3, #0]
 80015cc:	4b29      	ldr	r3, [pc, #164]	; (8001674 <setTimer+0x188>)
 80015ce:	681b      	ldr	r3, [r3, #0]
 80015d0:	4b28      	ldr	r3, [pc, #160]	; (8001674 <setTimer+0x188>)
 80015d2:	2200      	movs	r2, #0
 80015d4:	601a      	str	r2, [r3, #0]
 80015d6:	4b18      	ldr	r3, [pc, #96]	; (8001638 <setTimer+0x14c>)
 80015d8:	681b      	ldr	r3, [r3, #0]
 80015da:	4a17      	ldr	r2, [pc, #92]	; (8001638 <setTimer+0x14c>)
 80015dc:	f043 0301 	orr.w	r3, r3, #1
 80015e0:	6013      	str	r3, [r2, #0]
 80015e2:	4a25      	ldr	r2, [pc, #148]	; (8001678 <setTimer+0x18c>)
 80015e4:	69bb      	ldr	r3, [r7, #24]
 80015e6:	6013      	str	r3, [r2, #0]
 80015e8:	e01e      	b.n	8001628 <setTimer+0x13c>
 80015ea:	4a24      	ldr	r2, [pc, #144]	; (800167c <setTimer+0x190>)
 80015ec:	68bb      	ldr	r3, [r7, #8]
 80015ee:	6013      	str	r3, [r2, #0]
 80015f0:	4a23      	ldr	r2, [pc, #140]	; (8001680 <setTimer+0x194>)
 80015f2:	687b      	ldr	r3, [r7, #4]
 80015f4:	6013      	str	r3, [r2, #0]
 80015f6:	683b      	ldr	r3, [r7, #0]
 80015f8:	011b      	lsls	r3, r3, #4
 80015fa:	4a0e      	ldr	r2, [pc, #56]	; (8001634 <setTimer+0x148>)
 80015fc:	f043 0380 	orr.w	r3, r3, #128	; 0x80
 8001600:	6013      	str	r3, [r2, #0]
 8001602:	4b20      	ldr	r3, [pc, #128]	; (8001684 <setTimer+0x198>)
 8001604:	2201      	movs	r2, #1
 8001606:	601a      	str	r2, [r3, #0]
 8001608:	4b1f      	ldr	r3, [pc, #124]	; (8001688 <setTimer+0x19c>)
 800160a:	681b      	ldr	r3, [r3, #0]
 800160c:	4b1e      	ldr	r3, [pc, #120]	; (8001688 <setTimer+0x19c>)
 800160e:	2200      	movs	r2, #0
 8001610:	601a      	str	r2, [r3, #0]
 8001612:	4b08      	ldr	r3, [pc, #32]	; (8001634 <setTimer+0x148>)
 8001614:	681b      	ldr	r3, [r3, #0]
 8001616:	4a07      	ldr	r2, [pc, #28]	; (8001634 <setTimer+0x148>)
 8001618:	f043 0301 	orr.w	r3, r3, #1
 800161c:	6013      	str	r3, [r2, #0]
 800161e:	4a1b      	ldr	r2, [pc, #108]	; (800168c <setTimer+0x1a0>)
 8001620:	69bb      	ldr	r3, [r7, #24]
 8001622:	6013      	str	r3, [r2, #0]
 8001624:	e000      	b.n	8001628 <setTimer+0x13c>
 8001626:	bf00      	nop
 8001628:	bf00      	nop
 800162a:	3714      	adds	r7, #20
 800162c:	46bd      	mov	sp, r7
 800162e:	bc80      	pop	{r7}
 8001630:	4770      	bx	lr
 8001632:	bf00      	nop
 8001634:	40000c00 	andmi	r0, r0, r0, lsl #24
 8001638:	40000800 	andmi	r0, r0, r0, lsl #16
 800163c:	40000400 	andmi	r0, r0, r0, lsl #8
 8001640:	4000002c 	andmi	r0, r0, ip, lsr #32
 8001644:	40000028 	andmi	r0, r0, r8, lsr #32
 8001648:	40000014 	andmi	r0, r0, r4, lsl r0
 800164c:	40000010 	andmi	r0, r0, r0, lsl r0
 8001650:	4000000c 	andmi	r0, r0, ip
 8001654:	4000042c 	andmi	r0, r0, ip, lsr #8
 8001658:	40000428 	andmi	r0, r0, r8, lsr #8
 800165c:	40000414 	andmi	r0, r0, r4, lsl r4
 8001660:	40000410 	andmi	r0, r0, r0, lsl r4
 8001664:	4000040c 	andmi	r0, r0, ip, lsl #8
 8001668:	4000082c 	andmi	r0, r0, ip, lsr #16
 800166c:	40000828 	andmi	r0, r0, r8, lsr #16
 8001670:	40000814 	andmi	r0, r0, r4, lsl r8
 8001674:	40000810 	andmi	r0, r0, r0, lsl r8
 8001678:	4000080c 	andmi	r0, r0, ip, lsl #16
 800167c:	40000c2c 	andmi	r0, r0, ip, lsr #24
 8001680:	40000c28 	andmi	r0, r0, r8, lsr #24
 8001684:	40000c14 	andmi	r0, r0, r4, lsl ip
 8001688:	40000c10 	andmi	r0, r0, r0, lsl ip
 800168c:	40000c0c 	andmi	r0, r0, ip, lsl #24

08001690 <startUSART>:
 8001690:	b580      	push	{r7, lr}
 8001692:	b088      	sub	sp, #32
 8001694:	af00      	add	r7, sp, #0
 8001696:	6078      	str	r0, [r7, #4]
 8001698:	2202      	movs	r2, #2
 800169a:	2102      	movs	r1, #2
 800169c:	2001      	movs	r0, #1
 800169e:	f7ff fc9f 	bl	8000fe0 <configPin>
 80016a2:	2206      	movs	r2, #6
 80016a4:	2103      	movs	r1, #3
 80016a6:	2001      	movs	r0, #1
 80016a8:	f7ff fc9a 	bl	8000fe0 <configPin>
 80016ac:	4b2c      	ldr	r3, [pc, #176]	; (8001760 <startUSART+0xd0>)
 80016ae:	f44f 5200 	mov.w	r2, #8192	; 0x2000
 80016b2:	601a      	str	r2, [r3, #0]
 80016b4:	4b2b      	ldr	r3, [pc, #172]	; (8001764 <startUSART+0xd4>)
 80016b6:	2200      	movs	r2, #0
 80016b8:	601a      	str	r2, [r3, #0]
 80016ba:	f7ff f84b 	bl	8000754 <getClockFreq>
 80016be:	4603      	mov	r3, r0
 80016c0:	f44f 727a 	mov.w	r2, #1000	; 0x3e8
 80016c4:	fb02 f303 	mul.w	r3, r2, r3
 80016c8:	61fb      	str	r3, [r7, #28]
 80016ca:	4b27      	ldr	r3, [pc, #156]	; (8001768 <startUSART+0xd8>)
 80016cc:	681b      	ldr	r3, [r3, #0]
 80016ce:	091b      	lsrs	r3, r3, #4
 80016d0:	f003 030f 	and.w	r3, r3, #15
 80016d4:	61bb      	str	r3, [r7, #24]
 80016d6:	69bb      	ldr	r3, [r7, #24]
 80016d8:	091b      	lsrs	r3, r3, #4
 80016da:	2b01      	cmp	r3, #1
 80016dc:	d116      	bne.n	800170c <startUSART+0x7c>
 80016de:	69bb      	ldr	r3, [r7, #24]
 80016e0:	f003 0307 	and.w	r3, r3, #7
 80016e4:	61bb      	str	r3, [r7, #24]
 80016e6:	2300      	movs	r3, #0
 80016e8:	75fb      	strb	r3, [r7, #23]
 80016ea:	e00b      	b.n	8001704 <startUSART+0x74>
 80016ec:	7dfb      	ldrb	r3, [r7, #23]
 80016ee:	2b04      	cmp	r3, #4
 80016f0:	d102      	bne.n	80016f8 <startUSART+0x68>
 80016f2:	69fb      	ldr	r3, [r7, #28]
 80016f4:	085b      	lsrs	r3, r3, #1
 80016f6:	61fb      	str	r3, [r7, #28]
 80016f8:	69fb      	ldr	r3, [r7, #28]
 80016fa:	085b      	lsrs	r3, r3, #1
 80016fc:	61fb      	str	r3, [r7, #28]
 80016fe:	7dfb      	ldrb	r3, [r7, #23]
 8001700:	3301      	adds	r3, #1
 8001702:	75fb      	strb	r3, [r7, #23]
 8001704:	7dfb      	ldrb	r3, [r7, #23]
 8001706:	69ba      	ldr	r2, [r7, #24]
 8001708:	429a      	cmp	r2, r3
 800170a:	d8ef      	bhi.n	80016ec <startUSART+0x5c>
 800170c:	4b16      	ldr	r3, [pc, #88]	; (8001768 <startUSART+0xd8>)
 800170e:	681b      	ldr	r3, [r3, #0]
 8001710:	0a1b      	lsrs	r3, r3, #8
 8001712:	f003 0307 	and.w	r3, r3, #7
 8001716:	613b      	str	r3, [r7, #16]
 8001718:	69bb      	ldr	r3, [r7, #24]
 800171a:	091b      	lsrs	r3, r3, #4
 800171c:	2b01      	cmp	r3, #1
 800171e:	d110      	bne.n	8001742 <startUSART+0xb2>
 8001720:	69bb      	ldr	r3, [r7, #24]
 8001722:	f003 0307 	and.w	r3, r3, #7
 8001726:	61bb      	str	r3, [r7, #24]
 8001728:	2300      	movs	r3, #0
 800172a:	75bb      	strb	r3, [r7, #22]
 800172c:	e005      	b.n	800173a <startUSART+0xaa>
 800172e:	69fb      	ldr	r3, [r7, #28]
 8001730:	085b      	lsrs	r3, r3, #1
 8001732:	61fb      	str	r3, [r7, #28]
 8001734:	7dbb      	ldrb	r3, [r7, #22]
 8001736:	3301      	adds	r3, #1
 8001738:	75bb      	strb	r3, [r7, #22]
 800173a:	7dbb      	ldrb	r3, [r7, #22]
 800173c:	693a      	ldr	r2, [r7, #16]
 800173e:	429a      	cmp	r2, r3
 8001740:	d8f5      	bhi.n	800172e <startUSART+0x9e>
 8001742:	69fb      	ldr	r3, [r7, #28]
 8001744:	011a      	lsls	r2, r3, #4
 8001746:	687b      	ldr	r3, [r7, #4]
 8001748:	fbb2 f3f3 	udiv	r3, r2, r3
 800174c:	60fb      	str	r3, [r7, #12]
 800174e:	4a07      	ldr	r2, [pc, #28]	; (800176c <startUSART+0xdc>)
 8001750:	68fb      	ldr	r3, [r7, #12]
 8001752:	011b      	lsls	r3, r3, #4
 8001754:	6013      	str	r3, [r2, #0]
 8001756:	bf00      	nop
 8001758:	3720      	adds	r7, #32
 800175a:	46bd      	mov	sp, r7
 800175c:	bd80      	pop	{r7, pc}
 800175e:	bf00      	nop
 8001760:	4000440c 	andmi	r4, r0, ip, lsl #8
 8001764:	40004410 	andmi	r4, r0, r0, lsl r4
 8001768:	40021004 	andmi	r1, r2, r4
 800176c:	40004408 	andmi	r4, r0, r8, lsl #8

08001770 <startUSARTTransmission>:
 8001770:	b480      	push	{r7}
 8001772:	af00      	add	r7, sp, #0
 8001774:	4b07      	ldr	r3, [pc, #28]	; (8001794 <startUSARTTransmission+0x24>)
 8001776:	681b      	ldr	r3, [r3, #0]
 8001778:	4a06      	ldr	r2, [pc, #24]	; (8001794 <startUSARTTransmission+0x24>)
 800177a:	f023 0308 	bic.w	r3, r3, #8
 800177e:	6013      	str	r3, [r2, #0]
 8001780:	4b04      	ldr	r3, [pc, #16]	; (8001794 <startUSARTTransmission+0x24>)
 8001782:	681b      	ldr	r3, [r3, #0]
 8001784:	4a03      	ldr	r2, [pc, #12]	; (8001794 <startUSARTTransmission+0x24>)
 8001786:	f043 0308 	orr.w	r3, r3, #8
 800178a:	6013      	str	r3, [r2, #0]
 800178c:	bf00      	nop
 800178e:	46bd      	mov	sp, r7
 8001790:	bc80      	pop	{r7}
 8001792:	4770      	bx	lr
 8001794:	4000440c 	andmi	r4, r0, ip, lsl #8

08001798 <sendByteViaUSART>:
 8001798:	b480      	push	{r7}
 800179a:	b083      	sub	sp, #12
 800179c:	af00      	add	r7, sp, #0
 800179e:	4603      	mov	r3, r0
 80017a0:	71fb      	strb	r3, [r7, #7]
 80017a2:	4a04      	ldr	r2, [pc, #16]	; (80017b4 <sendByteViaUSART+0x1c>)
 80017a4:	79fb      	ldrb	r3, [r7, #7]
 80017a6:	6013      	str	r3, [r2, #0]
 80017a8:	bf00      	nop
 80017aa:	370c      	adds	r7, #12
 80017ac:	46bd      	mov	sp, r7
 80017ae:	bc80      	pop	{r7}
 80017b0:	4770      	bx	lr
 80017b2:	bf00      	nop
 80017b4:	40004404 	andmi	r4, r0, r4, lsl #8

080017b8 <empty>:
 80017b8:	b480      	push	{r7}
 80017ba:	af00      	add	r7, sp, #0
 80017bc:	4b05      	ldr	r3, [pc, #20]	; (80017d4 <empty+0x1c>)
 80017be:	681b      	ldr	r3, [r3, #0]
 80017c0:	2b00      	cmp	r3, #0
 80017c2:	d101      	bne.n	80017c8 <empty+0x10>
 80017c4:	2301      	movs	r3, #1
 80017c6:	e000      	b.n	80017ca <empty+0x12>
 80017c8:	2300      	movs	r3, #0
 80017ca:	4618      	mov	r0, r3
 80017cc:	46bd      	mov	sp, r7
 80017ce:	bc80      	pop	{r7}
 80017d0:	4770      	bx	lr
 80017d2:	bf00      	nop
 80017d4:	20000028 	andcs	r0, r0, r8, lsr #32

080017d8 <addPCB>:
 80017d8:	b580      	push	{r7, lr}
 80017da:	b082      	sub	sp, #8
 80017dc:	af00      	add	r7, sp, #0
 80017de:	6078      	str	r0, [r7, #4]
 80017e0:	f7ff ffea 	bl	80017b8 <empty>
 80017e4:	4603      	mov	r3, r0
 80017e6:	2b01      	cmp	r3, #1
 80017e8:	d110      	bne.n	800180c <addPCB+0x34>
 80017ea:	4a18      	ldr	r2, [pc, #96]	; (800184c <addPCB+0x74>)
 80017ec:	687b      	ldr	r3, [r7, #4]
 80017ee:	6013      	str	r3, [r2, #0]
 80017f0:	4a17      	ldr	r2, [pc, #92]	; (8001850 <addPCB+0x78>)
 80017f2:	687b      	ldr	r3, [r7, #4]
 80017f4:	6013      	str	r3, [r2, #0]
 80017f6:	4b15      	ldr	r3, [pc, #84]	; (800184c <addPCB+0x74>)
 80017f8:	681b      	ldr	r3, [r3, #0]
 80017fa:	4a15      	ldr	r2, [pc, #84]	; (8001850 <addPCB+0x78>)
 80017fc:	6812      	ldr	r2, [r2, #0]
 80017fe:	609a      	str	r2, [r3, #8]
 8001800:	4b13      	ldr	r3, [pc, #76]	; (8001850 <addPCB+0x78>)
 8001802:	681b      	ldr	r3, [r3, #0]
 8001804:	4a11      	ldr	r2, [pc, #68]	; (800184c <addPCB+0x74>)
 8001806:	6812      	ldr	r2, [r2, #0]
 8001808:	605a      	str	r2, [r3, #4]
 800180a:	e01a      	b.n	8001842 <addPCB+0x6a>
 800180c:	4b10      	ldr	r3, [pc, #64]	; (8001850 <addPCB+0x78>)
 800180e:	681b      	ldr	r3, [r3, #0]
 8001810:	4a10      	ldr	r2, [pc, #64]	; (8001854 <addPCB+0x7c>)
 8001812:	6013      	str	r3, [r2, #0]
 8001814:	4a0e      	ldr	r2, [pc, #56]	; (8001850 <addPCB+0x78>)
 8001816:	687b      	ldr	r3, [r7, #4]
 8001818:	6013      	str	r3, [r2, #0]
 800181a:	4b0d      	ldr	r3, [pc, #52]	; (8001850 <addPCB+0x78>)
 800181c:	681b      	ldr	r3, [r3, #0]
 800181e:	4a0d      	ldr	r2, [pc, #52]	; (8001854 <addPCB+0x7c>)
 8001820:	6812      	ldr	r2, [r2, #0]
 8001822:	609a      	str	r2, [r3, #8]
 8001824:	4b0a      	ldr	r3, [pc, #40]	; (8001850 <addPCB+0x78>)
 8001826:	681b      	ldr	r3, [r3, #0]
 8001828:	4a08      	ldr	r2, [pc, #32]	; (800184c <addPCB+0x74>)
 800182a:	6812      	ldr	r2, [r2, #0]
 800182c:	605a      	str	r2, [r3, #4]
 800182e:	4b07      	ldr	r3, [pc, #28]	; (800184c <addPCB+0x74>)
 8001830:	681b      	ldr	r3, [r3, #0]
 8001832:	4a07      	ldr	r2, [pc, #28]	; (8001850 <addPCB+0x78>)
 8001834:	6812      	ldr	r2, [r2, #0]
 8001836:	609a      	str	r2, [r3, #8]
 8001838:	4b06      	ldr	r3, [pc, #24]	; (8001854 <addPCB+0x7c>)
 800183a:	681b      	ldr	r3, [r3, #0]
 800183c:	4a04      	ldr	r2, [pc, #16]	; (8001850 <addPCB+0x78>)
 800183e:	6812      	ldr	r2, [r2, #0]
 8001840:	605a      	str	r2, [r3, #4]
 8001842:	bf00      	nop
 8001844:	3708      	adds	r7, #8
 8001846:	46bd      	mov	sp, r7
 8001848:	bd80      	pop	{r7, pc}
 800184a:	bf00      	nop
 800184c:	20000028 	andcs	r0, r0, r8, lsr #32
 8001850:	2000002c 	andcs	r0, r0, ip, lsr #32
 8001854:	20000030 	andcs	r0, r0, r0, lsr r0

08001858 <removePCB>:
 8001858:	b480      	push	{r7}
 800185a:	b085      	sub	sp, #20
 800185c:	af00      	add	r7, sp, #0
 800185e:	6078      	str	r0, [r7, #4]
 8001860:	4b1f      	ldr	r3, [pc, #124]	; (80018e0 <removePCB+0x88>)
 8001862:	681b      	ldr	r3, [r3, #0]
 8001864:	687a      	ldr	r2, [r7, #4]
 8001866:	429a      	cmp	r2, r3
 8001868:	d114      	bne.n	8001894 <removePCB+0x3c>
 800186a:	687b      	ldr	r3, [r7, #4]
 800186c:	685b      	ldr	r3, [r3, #4]
 800186e:	4a1c      	ldr	r2, [pc, #112]	; (80018e0 <removePCB+0x88>)
 8001870:	6013      	str	r3, [r2, #0]
 8001872:	687b      	ldr	r3, [r7, #4]
 8001874:	685a      	ldr	r2, [r3, #4]
 8001876:	4b1a      	ldr	r3, [pc, #104]	; (80018e0 <removePCB+0x88>)
 8001878:	681b      	ldr	r3, [r3, #0]
 800187a:	6852      	ldr	r2, [r2, #4]
 800187c:	605a      	str	r2, [r3, #4]
 800187e:	4b18      	ldr	r3, [pc, #96]	; (80018e0 <removePCB+0x88>)
 8001880:	681b      	ldr	r3, [r3, #0]
 8001882:	4a18      	ldr	r2, [pc, #96]	; (80018e4 <removePCB+0x8c>)
 8001884:	6812      	ldr	r2, [r2, #0]
 8001886:	609a      	str	r2, [r3, #8]
 8001888:	4b16      	ldr	r3, [pc, #88]	; (80018e4 <removePCB+0x8c>)
 800188a:	681b      	ldr	r3, [r3, #0]
 800188c:	4a14      	ldr	r2, [pc, #80]	; (80018e0 <removePCB+0x88>)
 800188e:	6812      	ldr	r2, [r2, #0]
 8001890:	605a      	str	r2, [r3, #4]
 8001892:	e020      	b.n	80018d6 <removePCB+0x7e>
 8001894:	4b13      	ldr	r3, [pc, #76]	; (80018e4 <removePCB+0x8c>)
 8001896:	681b      	ldr	r3, [r3, #0]
 8001898:	687a      	ldr	r2, [r7, #4]
 800189a:	429a      	cmp	r2, r3
 800189c:	d10f      	bne.n	80018be <removePCB+0x66>
 800189e:	687b      	ldr	r3, [r7, #4]
 80018a0:	689b      	ldr	r3, [r3, #8]
 80018a2:	4a10      	ldr	r2, [pc, #64]	; (80018e4 <removePCB+0x8c>)
 80018a4:	6013      	str	r3, [r2, #0]
 80018a6:	4b0f      	ldr	r3, [pc, #60]	; (80018e4 <removePCB+0x8c>)
 80018a8:	681b      	ldr	r3, [r3, #0]
 80018aa:	4a0d      	ldr	r2, [pc, #52]	; (80018e0 <removePCB+0x88>)
 80018ac:	6812      	ldr	r2, [r2, #0]
 80018ae:	605a      	str	r2, [r3, #4]
 80018b0:	687b      	ldr	r3, [r7, #4]
 80018b2:	689a      	ldr	r2, [r3, #8]
 80018b4:	4b0b      	ldr	r3, [pc, #44]	; (80018e4 <removePCB+0x8c>)
 80018b6:	681b      	ldr	r3, [r3, #0]
 80018b8:	6892      	ldr	r2, [r2, #8]
 80018ba:	609a      	str	r2, [r3, #8]
 80018bc:	e00b      	b.n	80018d6 <removePCB+0x7e>
 80018be:	687b      	ldr	r3, [r7, #4]
 80018c0:	685b      	ldr	r3, [r3, #4]
 80018c2:	60fb      	str	r3, [r7, #12]
 80018c4:	687b      	ldr	r3, [r7, #4]
 80018c6:	689b      	ldr	r3, [r3, #8]
 80018c8:	60bb      	str	r3, [r7, #8]
 80018ca:	68fb      	ldr	r3, [r7, #12]
 80018cc:	68ba      	ldr	r2, [r7, #8]
 80018ce:	609a      	str	r2, [r3, #8]
 80018d0:	68bb      	ldr	r3, [r7, #8]
 80018d2:	68fa      	ldr	r2, [r7, #12]
 80018d4:	605a      	str	r2, [r3, #4]
 80018d6:	bf00      	nop
 80018d8:	3714      	adds	r7, #20
 80018da:	46bd      	mov	sp, r7
 80018dc:	bc80      	pop	{r7}
 80018de:	4770      	bx	lr
 80018e0:	20000028 	andcs	r0, r0, r8, lsr #32
 80018e4:	2000002c 	andcs	r0, r0, ip, lsr #32

080018e8 <createNewProcess>:
 80018e8:	e92d 1fff 	stmdb	sp!, {r0, r1, r2, r3, r4, r5, r6, r7, r8, r9, sl, fp, ip}
 80018ec:	b401      	push	{r0}
 80018ee:	b500      	push	{lr}
 80018f0:	f7ff f98c 	bl	8000c0c <findAvailableProcessPage>
 80018f4:	4602      	mov	r2, r0
 80018f6:	4682      	mov	sl, r0
 80018f8:	f502 72c8 	add.w	r2, r2, #400	; 0x190
 80018fc:	b404      	push	{r2}
 80018fe:	f04f 0201 	mov.w	r2, #1
 8001902:	f2c0 0200 	movt	r2, #0
 8001906:	6002      	str	r2, [r0, #0]
 8001908:	f100 0004 	add.w	r0, r0, #4
 800190c:	f8df 2070 	ldr.w	r2, [pc, #112]	; 8001980 <_current_PCB>
 8001910:	6010      	str	r0, [r2, #0]
 8001912:	bc04      	pop	{r2}
 8001914:	f85d eb04 	ldr.w	lr, [sp], #4
 8001918:	bc01      	pop	{r0}
 800191a:	4601      	mov	r1, r0
 800191c:	46f4      	mov	ip, lr
 800191e:	f3ef 8308 	mrs	r3, MSP
 8001922:	f382 8808 	msr	MSP, r2
 8001926:	f3ef 8003 	mrs	r0, PSR
 800192a:	f04f 0200 	mov.w	r2, #0
 800192e:	f2c0 1200 	movt	r2, #256	; 0x100
 8001932:	ea40 0002 	orr.w	r0, r0, r2
 8001936:	b401      	push	{r0}
 8001938:	b402      	push	{r1}
 800193a:	f64f 70f9 	movw	r0, #65529	; 0xfff9
 800193e:	f6cf 70ff 	movt	r0, #65535	; 0xffff
 8001942:	468e      	mov	lr, r1
 8001944:	b500      	push	{lr}
 8001946:	4686      	mov	lr, r0
 8001948:	b41f      	push	{r0, r1, r2, r3, r4}
 800194a:	b401      	push	{r0}
 800194c:	f3ef 8003 	mrs	r0, PSR
 8001950:	b401      	push	{r0}
 8001952:	480b      	ldr	r0, [pc, #44]	; (8001980 <_current_PCB>)
 8001954:	6800      	ldr	r0, [r0, #0]
 8001956:	b401      	push	{r0}
 8001958:	f100 0004 	add.w	r0, r0, #4
 800195c:	e880 5ffe 	stmia.w	r0, {r1, r2, r3, r4, r5, r6, r7, r8, r9, sl, fp, ip, lr}
 8001960:	bc01      	pop	{r0}
 8001962:	4601      	mov	r1, r0
 8001964:	bc01      	pop	{r0}
 8001966:	6388      	str	r0, [r1, #56]	; 0x38
 8001968:	bc01      	pop	{r0}
 800196a:	6008      	str	r0, [r1, #0]
 800196c:	f3ef 8008 	mrs	r0, MSP
 8001970:	63c8      	str	r0, [r1, #60]	; 0x3c
 8001972:	f3ef 8009 	mrs	r0, PSP
 8001976:	6408      	str	r0, [r1, #64]	; 0x40
 8001978:	f3bf 8f4f 	dsb	sy
 800197c:	f3bf 8f6f 	isb	sy

08001980 <_current_PCB>:
 8001980:	20000010 	andcs	r0, r0, r0, lsl r0
 8001984:	f44f 5040 	mov.w	r0, #12288	; 0x3000
 8001988:	f2c2 0000 	movt	r0, #8192	; 0x2000
 800198c:	f85f 2010 	ldr.w	r2, [pc, #-16]	; 8001980 <_current_PCB>
 8001990:	6010      	str	r0, [r2, #0]
 8001992:	46e6      	mov	lr, ip
 8001994:	f383 8808 	msr	MSP, r3
 8001998:	e8bd 1fff 	ldmia.w	sp!, {r0, r1, r2, r3, r4, r5, r6, r7, r8, r9, sl, fp, ip}
 800199c:	4770      	bx	lr
 800199e:	bf00      	nop

080019a0 <initPipeSpace>:
 80019a0:	b480      	push	{r7}
 80019a2:	b083      	sub	sp, #12
 80019a4:	af00      	add	r7, sp, #0
 80019a6:	4b11      	ldr	r3, [pc, #68]	; (80019ec <initPipeSpace+0x4c>)
 80019a8:	607b      	str	r3, [r7, #4]
 80019aa:	2300      	movs	r3, #0
 80019ac:	70fb      	strb	r3, [r7, #3]
 80019ae:	e011      	b.n	80019d4 <initPipeSpace+0x34>
 80019b0:	78fb      	ldrb	r3, [r7, #3]
 80019b2:	4a0f      	ldr	r2, [pc, #60]	; (80019f0 <initPipeSpace+0x50>)
 80019b4:	2100      	movs	r1, #0
 80019b6:	f842 1023 	str.w	r1, [r2, r3, lsl #2]
 80019ba:	687b      	ldr	r3, [r7, #4]
 80019bc:	78fa      	ldrb	r2, [r7, #3]
 80019be:	701a      	strb	r2, [r3, #0]
 80019c0:	687b      	ldr	r3, [r7, #4]
 80019c2:	3301      	adds	r3, #1
 80019c4:	2200      	movs	r2, #0
 80019c6:	701a      	strb	r2, [r3, #0]
 80019c8:	78fb      	ldrb	r3, [r7, #3]
 80019ca:	3301      	adds	r3, #1
 80019cc:	70fb      	strb	r3, [r7, #3]
 80019ce:	687b      	ldr	r3, [r7, #4]
 80019d0:	3320      	adds	r3, #32
 80019d2:	607b      	str	r3, [r7, #4]
 80019d4:	78fb      	ldrb	r3, [r7, #3]
 80019d6:	2b04      	cmp	r3, #4
 80019d8:	d803      	bhi.n	80019e2 <initPipeSpace+0x42>
 80019da:	687b      	ldr	r3, [r7, #4]
 80019dc:	4a05      	ldr	r2, [pc, #20]	; (80019f4 <initPipeSpace+0x54>)
 80019de:	4293      	cmp	r3, r2
 80019e0:	d9e6      	bls.n	80019b0 <initPipeSpace+0x10>
 80019e2:	bf00      	nop
 80019e4:	370c      	adds	r7, #12
 80019e6:	46bd      	mov	sp, r7
 80019e8:	bc80      	pop	{r7}
 80019ea:	4770      	bx	lr
 80019ec:	20003f00 	andcs	r3, r0, r0, lsl #30
 80019f0:	20000034 	andcs	r0, r0, r4, lsr r0
 80019f4:	20003f9f 	mulcs	r0, pc, pc	; <UNPREDICTABLE>

080019f8 <createPipe>:
 80019f8:	b480      	push	{r7}
 80019fa:	b083      	sub	sp, #12
 80019fc:	af00      	add	r7, sp, #0
 80019fe:	f04f 33ff 	mov.w	r3, #4294967295	; 0xffffffff
 8001a02:	603b      	str	r3, [r7, #0]
 8001a04:	2300      	movs	r3, #0
 8001a06:	607b      	str	r3, [r7, #4]
 8001a08:	e011      	b.n	8001a2e <createPipe+0x36>
 8001a0a:	4a0d      	ldr	r2, [pc, #52]	; (8001a40 <createPipe+0x48>)
 8001a0c:	687b      	ldr	r3, [r7, #4]
 8001a0e:	f852 3023 	ldr.w	r3, [r2, r3, lsl #2]
 8001a12:	2b00      	cmp	r3, #0
 8001a14:	d108      	bne.n	8001a28 <createPipe+0x30>
 8001a16:	687b      	ldr	r3, [r7, #4]
 8001a18:	603b      	str	r3, [r7, #0]
 8001a1a:	4a09      	ldr	r2, [pc, #36]	; (8001a40 <createPipe+0x48>)
 8001a1c:	687b      	ldr	r3, [r7, #4]
 8001a1e:	2101      	movs	r1, #1
 8001a20:	f842 1023 	str.w	r1, [r2, r3, lsl #2]
 8001a24:	683b      	ldr	r3, [r7, #0]
 8001a26:	e006      	b.n	8001a36 <createPipe+0x3e>
 8001a28:	687b      	ldr	r3, [r7, #4]
 8001a2a:	3301      	adds	r3, #1
 8001a2c:	607b      	str	r3, [r7, #4]
 8001a2e:	687b      	ldr	r3, [r7, #4]
 8001a30:	2b04      	cmp	r3, #4
 8001a32:	ddea      	ble.n	8001a0a <createPipe+0x12>
 8001a34:	683b      	ldr	r3, [r7, #0]
 8001a36:	4618      	mov	r0, r3
 8001a38:	370c      	adds	r7, #12
 8001a3a:	46bd      	mov	sp, r7
 8001a3c:	bc80      	pop	{r7}
 8001a3e:	4770      	bx	lr
 8001a40:	20000034 	andcs	r0, r0, r4, lsr r0

08001a44 <readPipeByte>:
 8001a44:	b480      	push	{r7}
 8001a46:	b085      	sub	sp, #20
 8001a48:	af00      	add	r7, sp, #0
 8001a4a:	6078      	str	r0, [r7, #4]
 8001a4c:	687b      	ldr	r3, [r7, #4]
 8001a4e:	2b04      	cmp	r3, #4
 8001a50:	dc22      	bgt.n	8001a98 <readPipeByte+0x54>
 8001a52:	687b      	ldr	r3, [r7, #4]
 8001a54:	f103 2301 	add.w	r3, r3, #16777472	; 0x1000100
 8001a58:	33f8      	adds	r3, #248	; 0xf8
 8001a5a:	015b      	lsls	r3, r3, #5
 8001a5c:	60fb      	str	r3, [r7, #12]
 8001a5e:	68fb      	ldr	r3, [r7, #12]
 8001a60:	3301      	adds	r3, #1
 8001a62:	781b      	ldrb	r3, [r3, #0]
 8001a64:	72fb      	strb	r3, [r7, #11]
 8001a66:	7afb      	ldrb	r3, [r7, #11]
 8001a68:	2b00      	cmp	r3, #0
 8001a6a:	d013      	beq.n	8001a94 <readPipeByte+0x50>
 8001a6c:	7afa      	ldrb	r2, [r7, #11]
 8001a6e:	68fb      	ldr	r3, [r7, #12]
 8001a70:	4413      	add	r3, r2
 8001a72:	3301      	adds	r3, #1
 8001a74:	781b      	ldrb	r3, [r3, #0]
 8001a76:	72bb      	strb	r3, [r7, #10]
 8001a78:	7afa      	ldrb	r2, [r7, #11]
 8001a7a:	68fb      	ldr	r3, [r7, #12]
 8001a7c:	4413      	add	r3, r2
 8001a7e:	3301      	adds	r3, #1
 8001a80:	2200      	movs	r2, #0
 8001a82:	701a      	strb	r2, [r3, #0]
 8001a84:	68fb      	ldr	r3, [r7, #12]
 8001a86:	3301      	adds	r3, #1
 8001a88:	781a      	ldrb	r2, [r3, #0]
 8001a8a:	3a01      	subs	r2, #1
 8001a8c:	b2d2      	uxtb	r2, r2
 8001a8e:	701a      	strb	r2, [r3, #0]
 8001a90:	7abb      	ldrb	r3, [r7, #10]
 8001a92:	e003      	b.n	8001a9c <readPipeByte+0x58>
 8001a94:	2300      	movs	r3, #0
 8001a96:	e001      	b.n	8001a9c <readPipeByte+0x58>
 8001a98:	f04f 33ff 	mov.w	r3, #4294967295	; 0xffffffff
 8001a9c:	4618      	mov	r0, r3
 8001a9e:	3714      	adds	r7, #20
 8001aa0:	46bd      	mov	sp, r7
 8001aa2:	bc80      	pop	{r7}
 8001aa4:	4770      	bx	lr

08001aa6 <writePipeByte>:
 8001aa6:	b480      	push	{r7}
 8001aa8:	b085      	sub	sp, #20
 8001aaa:	af00      	add	r7, sp, #0
 8001aac:	6078      	str	r0, [r7, #4]
 8001aae:	460b      	mov	r3, r1
 8001ab0:	70fb      	strb	r3, [r7, #3]
 8001ab2:	687b      	ldr	r3, [r7, #4]
 8001ab4:	2b04      	cmp	r3, #4
 8001ab6:	dc1f      	bgt.n	8001af8 <writePipeByte+0x52>
 8001ab8:	687b      	ldr	r3, [r7, #4]
 8001aba:	f103 2301 	add.w	r3, r3, #16777472	; 0x1000100
 8001abe:	33f8      	adds	r3, #248	; 0xf8
 8001ac0:	015b      	lsls	r3, r3, #5
 8001ac2:	60fb      	str	r3, [r7, #12]
 8001ac4:	68fb      	ldr	r3, [r7, #12]
 8001ac6:	3301      	adds	r3, #1
 8001ac8:	781b      	ldrb	r3, [r3, #0]
 8001aca:	72fb      	strb	r3, [r7, #11]
 8001acc:	7afb      	ldrb	r3, [r7, #11]
 8001ace:	2b1d      	cmp	r3, #29
 8001ad0:	d810      	bhi.n	8001af4 <writePipeByte+0x4e>
 8001ad2:	7afa      	ldrb	r2, [r7, #11]
 8001ad4:	68fb      	ldr	r3, [r7, #12]
 8001ad6:	4413      	add	r3, r2
 8001ad8:	3302      	adds	r3, #2
 8001ada:	461a      	mov	r2, r3
 8001adc:	78fb      	ldrb	r3, [r7, #3]
 8001ade:	7013      	strb	r3, [r2, #0]
 8001ae0:	7afb      	ldrb	r3, [r7, #11]
 8001ae2:	3301      	adds	r3, #1
 8001ae4:	72fb      	strb	r3, [r7, #11]
 8001ae6:	68fb      	ldr	r3, [r7, #12]
 8001ae8:	3301      	adds	r3, #1
 8001aea:	461a      	mov	r2, r3
 8001aec:	7afb      	ldrb	r3, [r7, #11]
 8001aee:	7013      	strb	r3, [r2, #0]
 8001af0:	2301      	movs	r3, #1
 8001af2:	e003      	b.n	8001afc <writePipeByte+0x56>
 8001af4:	2300      	movs	r3, #0
 8001af6:	e001      	b.n	8001afc <writePipeByte+0x56>
 8001af8:	f04f 33ff 	mov.w	r3, #4294967295	; 0xffffffff
 8001afc:	4618      	mov	r0, r3
 8001afe:	3714      	adds	r7, #20
 8001b00:	46bd      	mov	sp, r7
 8001b02:	bc80      	pop	{r7}
 8001b04:	4770      	bx	lr
 8001b06:	bf00      	nop
