
build/out/kernel.elf:     file format elf32-littlearm


Disassembly of section .text:

08000000 <kernel_start-0x40>:
 8000000:	20001fff 	strdcs	r1, [r0], -pc	; <UNPREDICTABLE>
 8000004:	08000041 	stmdaeq	r0, {r0, r6}
 8000008:	00000000 	andeq	r0, r0, r0
 800000c:	08000ab1 	stmdaeq	r0, {r0, r4, r5, r7, r9, fp}
	...
 800003c:	080008d9 	stmdaeq	r0, {r0, r3, r4, r6, r7, fp}

08000040 <kernel_start>:
 8000040:	b661      	cpsie	f
 8000042:	f000 bacd 	b.w	80005e0 <kernel>
	...

08000048 <process1>:
 8000048:	b580      	push	{r7, lr}
 800004a:	b082      	sub	sp, #8
 800004c:	af00      	add	r7, sp, #0
 800004e:	2004      	movs	r0, #4
 8000050:	f000 fe16 	bl	8000c80 <malloc>
 8000054:	6038      	str	r0, [r7, #0]
 8000056:	2200      	movs	r2, #0
 8000058:	210d      	movs	r1, #13
 800005a:	2003      	movs	r0, #3
 800005c:	f000 ffc0 	bl	8000fe0 <configPin>
 8000060:	683b      	ldr	r3, [r7, #0]
 8000062:	2200      	movs	r2, #0
 8000064:	601a      	str	r2, [r3, #0]
 8000066:	2200      	movs	r2, #0
 8000068:	210d      	movs	r1, #13
 800006a:	2003      	movs	r0, #3
 800006c:	f001 f94e 	bl	800130c <setPin>
 8000070:	2300      	movs	r3, #0
 8000072:	607b      	str	r3, [r7, #4]
 8000074:	e002      	b.n	800007c <process1+0x34>
 8000076:	687b      	ldr	r3, [r7, #4]
 8000078:	3301      	adds	r3, #1
 800007a:	607b      	str	r3, [r7, #4]
 800007c:	687b      	ldr	r3, [r7, #4]
 800007e:	f246 12a7 	movw	r2, #24999	; 0x61a7
 8000082:	4293      	cmp	r3, r2
 8000084:	d9f7      	bls.n	8000076 <process1+0x2e>
 8000086:	683b      	ldr	r3, [r7, #0]
 8000088:	2201      	movs	r2, #1
 800008a:	601a      	str	r2, [r3, #0]
 800008c:	2201      	movs	r2, #1
 800008e:	210d      	movs	r1, #13
 8000090:	2003      	movs	r0, #3
 8000092:	f001 f93b 	bl	800130c <setPin>
 8000096:	2300      	movs	r3, #0
 8000098:	607b      	str	r3, [r7, #4]
 800009a:	e002      	b.n	80000a2 <process1+0x5a>
 800009c:	687b      	ldr	r3, [r7, #4]
 800009e:	3301      	adds	r3, #1
 80000a0:	607b      	str	r3, [r7, #4]
 80000a2:	687b      	ldr	r3, [r7, #4]
 80000a4:	f246 12a7 	movw	r2, #24999	; 0x61a7
 80000a8:	4293      	cmp	r3, r2
 80000aa:	d9f7      	bls.n	800009c <process1+0x54>
 80000ac:	e7d8      	b.n	8000060 <process1+0x18>

080000ae <process2>:
 80000ae:	b580      	push	{r7, lr}
 80000b0:	b082      	sub	sp, #8
 80000b2:	af00      	add	r7, sp, #0
 80000b4:	2200      	movs	r2, #0
 80000b6:	2100      	movs	r1, #0
 80000b8:	2001      	movs	r0, #1
 80000ba:	f001 f927 	bl	800130c <setPin>
 80000be:	2300      	movs	r3, #0
 80000c0:	607b      	str	r3, [r7, #4]
 80000c2:	e002      	b.n	80000ca <process2+0x1c>
 80000c4:	687b      	ldr	r3, [r7, #4]
 80000c6:	3301      	adds	r3, #1
 80000c8:	607b      	str	r3, [r7, #4]
 80000ca:	687b      	ldr	r3, [r7, #4]
 80000cc:	4a09      	ldr	r2, [pc, #36]	; (80000f4 <process2+0x46>)
 80000ce:	4293      	cmp	r3, r2
 80000d0:	d9f8      	bls.n	80000c4 <process2+0x16>
 80000d2:	2201      	movs	r2, #1
 80000d4:	2100      	movs	r1, #0
 80000d6:	2001      	movs	r0, #1
 80000d8:	f001 f918 	bl	800130c <setPin>
 80000dc:	2300      	movs	r3, #0
 80000de:	607b      	str	r3, [r7, #4]
 80000e0:	e002      	b.n	80000e8 <process2+0x3a>
 80000e2:	687b      	ldr	r3, [r7, #4]
 80000e4:	3301      	adds	r3, #1
 80000e6:	607b      	str	r3, [r7, #4]
 80000e8:	687b      	ldr	r3, [r7, #4]
 80000ea:	4a02      	ldr	r2, [pc, #8]	; (80000f4 <process2+0x46>)
 80000ec:	4293      	cmp	r3, r2
 80000ee:	d9f8      	bls.n	80000e2 <process2+0x34>
 80000f0:	e7e0      	b.n	80000b4 <process2+0x6>
 80000f2:	bf00      	nop
 80000f4:	000124f7 	strdeq	r2, [r1], -r7

080000f8 <process3>:
 80000f8:	b580      	push	{r7, lr}
 80000fa:	b082      	sub	sp, #8
 80000fc:	af00      	add	r7, sp, #0
 80000fe:	2004      	movs	r0, #4
 8000100:	f000 fdbe 	bl	8000c80 <malloc>
 8000104:	6038      	str	r0, [r7, #0]
 8000106:	2200      	movs	r2, #0
 8000108:	210c      	movs	r1, #12
 800010a:	2002      	movs	r0, #2
 800010c:	f000 ff68 	bl	8000fe0 <configPin>
 8000110:	683b      	ldr	r3, [r7, #0]
 8000112:	2200      	movs	r2, #0
 8000114:	601a      	str	r2, [r3, #0]
 8000116:	683b      	ldr	r3, [r7, #0]
 8000118:	681b      	ldr	r3, [r3, #0]
 800011a:	b2db      	uxtb	r3, r3
 800011c:	461a      	mov	r2, r3
 800011e:	210c      	movs	r1, #12
 8000120:	2002      	movs	r0, #2
 8000122:	f001 f8f3 	bl	800130c <setPin>
 8000126:	2300      	movs	r3, #0
 8000128:	607b      	str	r3, [r7, #4]
 800012a:	e002      	b.n	8000132 <process3+0x3a>
 800012c:	687b      	ldr	r3, [r7, #4]
 800012e:	3301      	adds	r3, #1
 8000130:	607b      	str	r3, [r7, #4]
 8000132:	687b      	ldr	r3, [r7, #4]
 8000134:	4a0c      	ldr	r2, [pc, #48]	; (8000168 <process3+0x70>)
 8000136:	4293      	cmp	r3, r2
 8000138:	d9f8      	bls.n	800012c <process3+0x34>
 800013a:	683b      	ldr	r3, [r7, #0]
 800013c:	2201      	movs	r2, #1
 800013e:	601a      	str	r2, [r3, #0]
 8000140:	683b      	ldr	r3, [r7, #0]
 8000142:	681b      	ldr	r3, [r3, #0]
 8000144:	b2db      	uxtb	r3, r3
 8000146:	461a      	mov	r2, r3
 8000148:	210c      	movs	r1, #12
 800014a:	2002      	movs	r0, #2
 800014c:	f001 f8de 	bl	800130c <setPin>
 8000150:	2300      	movs	r3, #0
 8000152:	607b      	str	r3, [r7, #4]
 8000154:	e002      	b.n	800015c <process3+0x64>
 8000156:	687b      	ldr	r3, [r7, #4]
 8000158:	3301      	adds	r3, #1
 800015a:	607b      	str	r3, [r7, #4]
 800015c:	687b      	ldr	r3, [r7, #4]
 800015e:	4a02      	ldr	r2, [pc, #8]	; (8000168 <process3+0x70>)
 8000160:	4293      	cmp	r3, r2
 8000162:	d9f8      	bls.n	8000156 <process3+0x5e>
 8000164:	e7d4      	b.n	8000110 <process3+0x18>
 8000166:	bf00      	nop
 8000168:	00030d3f 	andeq	r0, r3, pc, lsr sp

0800016c <testADC>:
 800016c:	b580      	push	{r7, lr}
 800016e:	b084      	sub	sp, #16
 8000170:	af00      	add	r7, sp, #0
 8000172:	2300      	movs	r3, #0
 8000174:	60fb      	str	r3, [r7, #12]
 8000176:	e00e      	b.n	8000196 <testADC+0x2a>
 8000178:	68fb      	ldr	r3, [r7, #12]
 800017a:	2b01      	cmp	r3, #1
 800017c:	d007      	beq.n	800018e <testADC+0x22>
 800017e:	68fb      	ldr	r3, [r7, #12]
 8000180:	b2db      	uxtb	r3, r3
 8000182:	2200      	movs	r2, #0
 8000184:	4619      	mov	r1, r3
 8000186:	2001      	movs	r0, #1
 8000188:	f000 ff2a 	bl	8000fe0 <configPin>
 800018c:	e000      	b.n	8000190 <testADC+0x24>
 800018e:	bf00      	nop
 8000190:	68fb      	ldr	r3, [r7, #12]
 8000192:	3301      	adds	r3, #1
 8000194:	60fb      	str	r3, [r7, #12]
 8000196:	68fb      	ldr	r3, [r7, #12]
 8000198:	2b08      	cmp	r3, #8
 800019a:	dded      	ble.n	8000178 <testADC+0xc>
 800019c:	2308      	movs	r3, #8
 800019e:	703b      	strb	r3, [r7, #0]
 80001a0:	463b      	mov	r3, r7
 80001a2:	2101      	movs	r1, #1
 80001a4:	4618      	mov	r0, r3
 80001a6:	f000 fea5 	bl	8000ef4 <startContinuousConversion>
 80001aa:	f000 fefd 	bl	8000fa8 <readDataConverted>
 80001ae:	4603      	mov	r3, r0
 80001b0:	091b      	lsrs	r3, r3, #4
 80001b2:	817b      	strh	r3, [r7, #10]
 80001b4:	2300      	movs	r3, #0
 80001b6:	607b      	str	r3, [r7, #4]
 80001b8:	e01e      	b.n	80001f8 <testADC+0x8c>
 80001ba:	687b      	ldr	r3, [r7, #4]
 80001bc:	2b01      	cmp	r3, #1
 80001be:	d10a      	bne.n	80001d6 <testADC+0x6a>
 80001c0:	897b      	ldrh	r3, [r7, #10]
 80001c2:	b2db      	uxtb	r3, r3
 80001c4:	f003 0301 	and.w	r3, r3, #1
 80001c8:	b2db      	uxtb	r3, r3
 80001ca:	461a      	mov	r2, r3
 80001cc:	2108      	movs	r1, #8
 80001ce:	2001      	movs	r0, #1
 80001d0:	f001 f89c 	bl	800130c <setPin>
 80001d4:	e00a      	b.n	80001ec <testADC+0x80>
 80001d6:	687b      	ldr	r3, [r7, #4]
 80001d8:	b2d9      	uxtb	r1, r3
 80001da:	897b      	ldrh	r3, [r7, #10]
 80001dc:	b2db      	uxtb	r3, r3
 80001de:	f003 0301 	and.w	r3, r3, #1
 80001e2:	b2db      	uxtb	r3, r3
 80001e4:	461a      	mov	r2, r3
 80001e6:	2001      	movs	r0, #1
 80001e8:	f001 f890 	bl	800130c <setPin>
 80001ec:	897b      	ldrh	r3, [r7, #10]
 80001ee:	085b      	lsrs	r3, r3, #1
 80001f0:	817b      	strh	r3, [r7, #10]
 80001f2:	687b      	ldr	r3, [r7, #4]
 80001f4:	3301      	adds	r3, #1
 80001f6:	607b      	str	r3, [r7, #4]
 80001f8:	687b      	ldr	r3, [r7, #4]
 80001fa:	2b07      	cmp	r3, #7
 80001fc:	dddd      	ble.n	80001ba <testADC+0x4e>
 80001fe:	e7d4      	b.n	80001aa <testADC+0x3e>

08000200 <testUSART>:
 8000200:	b580      	push	{r7, lr}
 8000202:	af00      	add	r7, sp, #0
 8000204:	f44f 30e1 	mov.w	r0, #115200	; 0x1c200
 8000208:	f001 fa42 	bl	8001690 <startUSART>
 800020c:	f001 fab0 	bl	8001770 <startUSARTTransmission>
 8000210:	f001 faae 	bl	8001770 <startUSARTTransmission>
 8000214:	2061      	movs	r0, #97	; 0x61
 8000216:	f001 fabf 	bl	8001798 <sendByteViaUSART>
 800021a:	e7f9      	b.n	8000210 <testUSART+0x10>

0800021c <testDelay>:
 800021c:	b580      	push	{r7, lr}
 800021e:	b082      	sub	sp, #8
 8000220:	af00      	add	r7, sp, #0
 8000222:	2200      	movs	r2, #0
 8000224:	210c      	movs	r1, #12
 8000226:	2002      	movs	r0, #2
 8000228:	f000 feda 	bl	8000fe0 <configPin>
 800022c:	2200      	movs	r2, #0
 800022e:	210c      	movs	r1, #12
 8000230:	2002      	movs	r0, #2
 8000232:	f000 fed5 	bl	8000fe0 <configPin>
 8000236:	2301      	movs	r3, #1
 8000238:	607b      	str	r3, [r7, #4]
 800023a:	f000 fadb 	bl	80007f4 <getUsecWorking>
 800023e:	6038      	str	r0, [r7, #0]
 8000240:	bf00      	nop
 8000242:	f000 fad7 	bl	80007f4 <getUsecWorking>
 8000246:	4602      	mov	r2, r0
 8000248:	683b      	ldr	r3, [r7, #0]
 800024a:	1ad3      	subs	r3, r2, r3
 800024c:	4a06      	ldr	r2, [pc, #24]	; (8000268 <testDelay+0x4c>)
 800024e:	4293      	cmp	r3, r2
 8000250:	d9f7      	bls.n	8000242 <testDelay+0x26>
 8000252:	687b      	ldr	r3, [r7, #4]
 8000254:	b2db      	uxtb	r3, r3
 8000256:	461a      	mov	r2, r3
 8000258:	210c      	movs	r1, #12
 800025a:	2002      	movs	r0, #2
 800025c:	f001 f856 	bl	800130c <setPin>
 8000260:	687b      	ldr	r3, [r7, #4]
 8000262:	43db      	mvns	r3, r3
 8000264:	607b      	str	r3, [r7, #4]
 8000266:	e7e8      	b.n	800023a <testDelay+0x1e>
 8000268:	000f423f 	andeq	r4, pc, pc, lsr r2	; <UNPREDICTABLE>

0800026c <test_pwm>:
 800026c:	b580      	push	{r7, lr}
 800026e:	af00      	add	r7, sp, #0
 8000270:	2202      	movs	r2, #2
 8000272:	2101      	movs	r1, #1
 8000274:	2001      	movs	r0, #1
 8000276:	f000 feb3 	bl	8000fe0 <configPin>
 800027a:	f44f 70dc 	mov.w	r0, #440	; 0x1b8
 800027e:	f001 f8e7 	bl	8001450 <setPWM>
 8000282:	e7fe      	b.n	8000282 <test_pwm+0x16>

08000284 <testTIM2>:
 8000284:	b580      	push	{r7, lr}
 8000286:	b082      	sub	sp, #8
 8000288:	af02      	add	r7, sp, #8
 800028a:	2300      	movs	r3, #0
 800028c:	9300      	str	r3, [sp, #0]
 800028e:	2300      	movs	r3, #0
 8000290:	f64f 72ff 	movw	r2, #65535	; 0xffff
 8000294:	21ff      	movs	r1, #255	; 0xff
 8000296:	f04f 4080 	mov.w	r0, #1073741824	; 0x40000000
 800029a:	f001 f927 	bl	80014ec <setTimer>
 800029e:	4b07      	ldr	r3, [pc, #28]	; (80002bc <testTIM2+0x38>)
 80002a0:	681b      	ldr	r3, [r3, #0]
 80002a2:	2b00      	cmp	r3, #0
 80002a4:	d0fb      	beq.n	800029e <testTIM2+0x1a>
 80002a6:	4b05      	ldr	r3, [pc, #20]	; (80002bc <testTIM2+0x38>)
 80002a8:	681b      	ldr	r3, [r3, #0]
 80002aa:	4b04      	ldr	r3, [pc, #16]	; (80002bc <testTIM2+0x38>)
 80002ac:	2200      	movs	r2, #0
 80002ae:	601a      	str	r2, [r3, #0]
 80002b0:	2201      	movs	r2, #1
 80002b2:	210c      	movs	r1, #12
 80002b4:	2002      	movs	r0, #2
 80002b6:	f001 f829 	bl	800130c <setPin>
 80002ba:	e7f0      	b.n	800029e <testTIM2+0x1a>
 80002bc:	40000010 	andmi	r0, r0, r0, lsl r0

080002c0 <testTIM4>:
 80002c0:	b580      	push	{r7, lr}
 80002c2:	b082      	sub	sp, #8
 80002c4:	af02      	add	r7, sp, #8
 80002c6:	2200      	movs	r2, #0
 80002c8:	210d      	movs	r1, #13
 80002ca:	2002      	movs	r0, #2
 80002cc:	f000 fe88 	bl	8000fe0 <configPin>
 80002d0:	2200      	movs	r2, #0
 80002d2:	210d      	movs	r1, #13
 80002d4:	2002      	movs	r0, #2
 80002d6:	f001 f819 	bl	800130c <setPin>
 80002da:	2301      	movs	r3, #1
 80002dc:	9300      	str	r3, [sp, #0]
 80002de:	2300      	movs	r3, #0
 80002e0:	f64f 72ff 	movw	r2, #65535	; 0xffff
 80002e4:	21ff      	movs	r1, #255	; 0xff
 80002e6:	4803      	ldr	r0, [pc, #12]	; (80002f4 <testTIM4+0x34>)
 80002e8:	f001 f900 	bl	80014ec <setTimer>
 80002ec:	201e      	movs	r0, #30
 80002ee:	f000 fb87 	bl	8000a00 <setInterrupt>
 80002f2:	e7fe      	b.n	80002f2 <testTIM4+0x32>
 80002f4:	40000800 	andmi	r0, r0, r0, lsl #16

080002f8 <play_music>:
 80002f8:	b580      	push	{r7, lr}
 80002fa:	b082      	sub	sp, #8
 80002fc:	af00      	add	r7, sp, #0
 80002fe:	2202      	movs	r2, #2
 8000300:	2101      	movs	r1, #1
 8000302:	2001      	movs	r0, #1
 8000304:	f000 fe6c 	bl	8000fe0 <configPin>
 8000308:	20c8      	movs	r0, #200	; 0xc8
 800030a:	f000 fceb 	bl	8000ce4 <setBPM>
 800030e:	2300      	movs	r3, #0
 8000310:	607b      	str	r3, [r7, #4]
 8000312:	e042      	b.n	800039a <play_music+0xa2>
 8000314:	2108      	movs	r1, #8
 8000316:	4884      	ldr	r0, [pc, #528]	; (8000528 <play_music+0x230>)
 8000318:	f000 fd0d 	bl	8000d36 <play_note>
 800031c:	2108      	movs	r1, #8
 800031e:	4883      	ldr	r0, [pc, #524]	; (800052c <play_music+0x234>)
 8000320:	f000 fd09 	bl	8000d36 <play_note>
 8000324:	2104      	movs	r1, #4
 8000326:	4882      	ldr	r0, [pc, #520]	; (8000530 <play_music+0x238>)
 8000328:	f000 fd05 	bl	8000d36 <play_note>
 800032c:	2104      	movs	r1, #4
 800032e:	4880      	ldr	r0, [pc, #512]	; (8000530 <play_music+0x238>)
 8000330:	f000 fd01 	bl	8000d36 <play_note>
 8000334:	2108      	movs	r1, #8
 8000336:	487e      	ldr	r0, [pc, #504]	; (8000530 <play_music+0x238>)
 8000338:	f000 fcfd 	bl	8000d36 <play_note>
 800033c:	2108      	movs	r1, #8
 800033e:	487d      	ldr	r0, [pc, #500]	; (8000534 <play_music+0x23c>)
 8000340:	f000 fcf9 	bl	8000d36 <play_note>
 8000344:	2104      	movs	r1, #4
 8000346:	487c      	ldr	r0, [pc, #496]	; (8000538 <play_music+0x240>)
 8000348:	f000 fcf5 	bl	8000d36 <play_note>
 800034c:	2104      	movs	r1, #4
 800034e:	487a      	ldr	r0, [pc, #488]	; (8000538 <play_music+0x240>)
 8000350:	f000 fcf1 	bl	8000d36 <play_note>
 8000354:	2108      	movs	r1, #8
 8000356:	4878      	ldr	r0, [pc, #480]	; (8000538 <play_music+0x240>)
 8000358:	f000 fced 	bl	8000d36 <play_note>
 800035c:	2108      	movs	r1, #8
 800035e:	4877      	ldr	r0, [pc, #476]	; (800053c <play_music+0x244>)
 8000360:	f000 fce9 	bl	8000d36 <play_note>
 8000364:	2104      	movs	r1, #4
 8000366:	4873      	ldr	r0, [pc, #460]	; (8000534 <play_music+0x23c>)
 8000368:	f000 fce5 	bl	8000d36 <play_note>
 800036c:	2104      	movs	r1, #4
 800036e:	4871      	ldr	r0, [pc, #452]	; (8000534 <play_music+0x23c>)
 8000370:	f000 fce1 	bl	8000d36 <play_note>
 8000374:	2108      	movs	r1, #8
 8000376:	486e      	ldr	r0, [pc, #440]	; (8000530 <play_music+0x238>)
 8000378:	f000 fcdd 	bl	8000d36 <play_note>
 800037c:	2108      	movs	r1, #8
 800037e:	486b      	ldr	r0, [pc, #428]	; (800052c <play_music+0x234>)
 8000380:	f000 fcd9 	bl	8000d36 <play_note>
 8000384:	2104      	movs	r1, #4
 8000386:	486a      	ldr	r0, [pc, #424]	; (8000530 <play_music+0x238>)
 8000388:	f000 fcd5 	bl	8000d36 <play_note>
 800038c:	2104      	movs	r1, #4
 800038e:	4868      	ldr	r0, [pc, #416]	; (8000530 <play_music+0x238>)
 8000390:	f000 fcd1 	bl	8000d36 <play_note>
 8000394:	687b      	ldr	r3, [r7, #4]
 8000396:	3301      	adds	r3, #1
 8000398:	607b      	str	r3, [r7, #4]
 800039a:	687b      	ldr	r3, [r7, #4]
 800039c:	2b01      	cmp	r3, #1
 800039e:	ddb9      	ble.n	8000314 <play_music+0x1c>
 80003a0:	2108      	movs	r1, #8
 80003a2:	4861      	ldr	r0, [pc, #388]	; (8000528 <play_music+0x230>)
 80003a4:	f000 fcc7 	bl	8000d36 <play_note>
 80003a8:	2108      	movs	r1, #8
 80003aa:	4860      	ldr	r0, [pc, #384]	; (800052c <play_music+0x234>)
 80003ac:	f000 fcc3 	bl	8000d36 <play_note>
 80003b0:	2104      	movs	r1, #4
 80003b2:	485f      	ldr	r0, [pc, #380]	; (8000530 <play_music+0x238>)
 80003b4:	f000 fcbf 	bl	8000d36 <play_note>
 80003b8:	2104      	movs	r1, #4
 80003ba:	485d      	ldr	r0, [pc, #372]	; (8000530 <play_music+0x238>)
 80003bc:	f000 fcbb 	bl	8000d36 <play_note>
 80003c0:	2108      	movs	r1, #8
 80003c2:	485b      	ldr	r0, [pc, #364]	; (8000530 <play_music+0x238>)
 80003c4:	f000 fcb7 	bl	8000d36 <play_note>
 80003c8:	2108      	movs	r1, #8
 80003ca:	485a      	ldr	r0, [pc, #360]	; (8000534 <play_music+0x23c>)
 80003cc:	f000 fcb3 	bl	8000d36 <play_note>
 80003d0:	2104      	movs	r1, #4
 80003d2:	4859      	ldr	r0, [pc, #356]	; (8000538 <play_music+0x240>)
 80003d4:	f000 fcaf 	bl	8000d36 <play_note>
 80003d8:	2104      	movs	r1, #4
 80003da:	4857      	ldr	r0, [pc, #348]	; (8000538 <play_music+0x240>)
 80003dc:	f000 fcab 	bl	8000d36 <play_note>
 80003e0:	2108      	movs	r1, #8
 80003e2:	4855      	ldr	r0, [pc, #340]	; (8000538 <play_music+0x240>)
 80003e4:	f000 fca7 	bl	8000d36 <play_note>
 80003e8:	2108      	movs	r1, #8
 80003ea:	4854      	ldr	r0, [pc, #336]	; (800053c <play_music+0x244>)
 80003ec:	f000 fca3 	bl	8000d36 <play_note>
 80003f0:	2104      	movs	r1, #4
 80003f2:	4853      	ldr	r0, [pc, #332]	; (8000540 <play_music+0x248>)
 80003f4:	f000 fc9f 	bl	8000d36 <play_note>
 80003f8:	2104      	movs	r1, #4
 80003fa:	4851      	ldr	r0, [pc, #324]	; (8000540 <play_music+0x248>)
 80003fc:	f000 fc9b 	bl	8000d36 <play_note>
 8000400:	2108      	movs	r1, #8
 8000402:	484e      	ldr	r0, [pc, #312]	; (800053c <play_music+0x244>)
 8000404:	f000 fc97 	bl	8000d36 <play_note>
 8000408:	2108      	movs	r1, #8
 800040a:	484b      	ldr	r0, [pc, #300]	; (8000538 <play_music+0x240>)
 800040c:	f000 fc93 	bl	8000d36 <play_note>
 8000410:	2104      	movs	r1, #4
 8000412:	484a      	ldr	r0, [pc, #296]	; (800053c <play_music+0x244>)
 8000414:	f000 fc8f 	bl	8000d36 <play_note>
 8000418:	2104      	movs	r1, #4
 800041a:	4845      	ldr	r0, [pc, #276]	; (8000530 <play_music+0x238>)
 800041c:	f000 fc8b 	bl	8000d36 <play_note>
 8000420:	2008      	movs	r0, #8
 8000422:	f000 fd47 	bl	8000eb4 <play_pause>
 8000426:	2108      	movs	r1, #8
 8000428:	4842      	ldr	r0, [pc, #264]	; (8000534 <play_music+0x23c>)
 800042a:	f000 fc84 	bl	8000d36 <play_note>
 800042e:	2104      	movs	r1, #4
 8000430:	4841      	ldr	r0, [pc, #260]	; (8000538 <play_music+0x240>)
 8000432:	f000 fc80 	bl	8000d36 <play_note>
 8000436:	2104      	movs	r1, #4
 8000438:	483f      	ldr	r0, [pc, #252]	; (8000538 <play_music+0x240>)
 800043a:	f000 fc7c 	bl	8000d36 <play_note>
 800043e:	2104      	movs	r1, #4
 8000440:	483e      	ldr	r0, [pc, #248]	; (800053c <play_music+0x244>)
 8000442:	f000 fc78 	bl	8000d36 <play_note>
 8000446:	2108      	movs	r1, #8
 8000448:	483d      	ldr	r0, [pc, #244]	; (8000540 <play_music+0x248>)
 800044a:	f000 fc74 	bl	8000d36 <play_note>
 800044e:	2104      	movs	r1, #4
 8000450:	4837      	ldr	r0, [pc, #220]	; (8000530 <play_music+0x238>)
 8000452:	f000 fc70 	bl	8000d36 <play_note>
 8000456:	2008      	movs	r0, #8
 8000458:	f000 fd2c 	bl	8000eb4 <play_pause>
 800045c:	2108      	movs	r1, #8
 800045e:	4834      	ldr	r0, [pc, #208]	; (8000530 <play_music+0x238>)
 8000460:	f000 fc69 	bl	8000d36 <play_note>
 8000464:	2108      	movs	r1, #8
 8000466:	4834      	ldr	r0, [pc, #208]	; (8000538 <play_music+0x240>)
 8000468:	f000 fc65 	bl	8000d36 <play_note>
 800046c:	2104      	movs	r1, #4
 800046e:	4831      	ldr	r0, [pc, #196]	; (8000534 <play_music+0x23c>)
 8000470:	f000 fc61 	bl	8000d36 <play_note>
 8000474:	2104      	movs	r1, #4
 8000476:	482f      	ldr	r0, [pc, #188]	; (8000534 <play_music+0x23c>)
 8000478:	f000 fc5d 	bl	8000d36 <play_note>
 800047c:	2108      	movs	r1, #8
 800047e:	482d      	ldr	r0, [pc, #180]	; (8000534 <play_music+0x23c>)
 8000480:	f000 fc59 	bl	8000d36 <play_note>
 8000484:	2108      	movs	r1, #8
 8000486:	482a      	ldr	r0, [pc, #168]	; (8000530 <play_music+0x238>)
 8000488:	f000 fc55 	bl	8000d36 <play_note>
 800048c:	2102      	movs	r1, #2
 800048e:	4829      	ldr	r0, [pc, #164]	; (8000534 <play_music+0x23c>)
 8000490:	f000 fc51 	bl	8000d36 <play_note>
 8000494:	2004      	movs	r0, #4
 8000496:	f000 fd0d 	bl	8000eb4 <play_pause>
 800049a:	2102      	movs	r1, #2
 800049c:	4828      	ldr	r0, [pc, #160]	; (8000540 <play_music+0x248>)
 800049e:	f000 fc4a 	bl	8000d36 <play_note>
 80004a2:	2102      	movs	r1, #2
 80004a4:	4827      	ldr	r0, [pc, #156]	; (8000544 <play_music+0x24c>)
 80004a6:	f000 fc46 	bl	8000d36 <play_note>
 80004aa:	2108      	movs	r1, #8
 80004ac:	4824      	ldr	r0, [pc, #144]	; (8000540 <play_music+0x248>)
 80004ae:	f000 fc42 	bl	8000d36 <play_note>
 80004b2:	2010      	movs	r0, #16
 80004b4:	f000 fcfe 	bl	8000eb4 <play_pause>
 80004b8:	2108      	movs	r1, #8
 80004ba:	4821      	ldr	r0, [pc, #132]	; (8000540 <play_music+0x248>)
 80004bc:	f000 fc3b 	bl	8000d36 <play_note>
 80004c0:	2010      	movs	r0, #16
 80004c2:	f000 fcf7 	bl	8000eb4 <play_pause>
 80004c6:	2108      	movs	r1, #8
 80004c8:	481d      	ldr	r0, [pc, #116]	; (8000540 <play_music+0x248>)
 80004ca:	f000 fc34 	bl	8000d36 <play_note>
 80004ce:	2110      	movs	r1, #16
 80004d0:	481b      	ldr	r0, [pc, #108]	; (8000540 <play_music+0x248>)
 80004d2:	f000 fc30 	bl	8000d36 <play_note>
 80004d6:	2102      	movs	r1, #2
 80004d8:	4818      	ldr	r0, [pc, #96]	; (800053c <play_music+0x244>)
 80004da:	f000 fc2c 	bl	8000d36 <play_note>
 80004de:	2102      	movs	r1, #2
 80004e0:	4816      	ldr	r0, [pc, #88]	; (800053c <play_music+0x244>)
 80004e2:	f000 fc28 	bl	8000d36 <play_note>
 80004e6:	2102      	movs	r1, #2
 80004e8:	4813      	ldr	r0, [pc, #76]	; (8000538 <play_music+0x240>)
 80004ea:	f000 fc24 	bl	8000d36 <play_note>
 80004ee:	2108      	movs	r1, #8
 80004f0:	4810      	ldr	r0, [pc, #64]	; (8000534 <play_music+0x23c>)
 80004f2:	f000 fc20 	bl	8000d36 <play_note>
 80004f6:	2010      	movs	r0, #16
 80004f8:	f000 fcdc 	bl	8000eb4 <play_pause>
 80004fc:	2108      	movs	r1, #8
 80004fe:	480e      	ldr	r0, [pc, #56]	; (8000538 <play_music+0x240>)
 8000500:	f000 fc19 	bl	8000d36 <play_note>
 8000504:	2010      	movs	r0, #16
 8000506:	f000 fcd5 	bl	8000eb4 <play_pause>
 800050a:	2108      	movs	r1, #8
 800050c:	4809      	ldr	r0, [pc, #36]	; (8000534 <play_music+0x23c>)
 800050e:	f000 fc12 	bl	8000d36 <play_note>
 8000512:	2102      	movs	r1, #2
 8000514:	4806      	ldr	r0, [pc, #24]	; (8000530 <play_music+0x238>)
 8000516:	f000 fc0e 	bl	8000d36 <play_note>
 800051a:	2004      	movs	r0, #4
 800051c:	f000 fcca 	bl	8000eb4 <play_pause>
 8000520:	f000 f812 	bl	8000548 <dukes_of_hazard_music>
 8000524:	e6f3      	b.n	800030e <play_music+0x16>
 8000526:	bf00      	nop
 8000528:	08001b08 	stmdaeq	r0, {r3, r8, r9, fp, ip}
 800052c:	08001b0c 	stmdaeq	r0, {r2, r3, r8, r9, fp, ip}
 8000530:	08001b10 	stmdaeq	r0, {r4, r8, r9, fp, ip}
 8000534:	08001b14 	stmdaeq	r0, {r2, r4, r8, r9, fp, ip}
 8000538:	08001b18 	stmdaeq	r0, {r3, r4, r8, r9, fp, ip}
 800053c:	08001b1c 	stmdaeq	r0, {r2, r3, r4, r8, r9, fp, ip}
 8000540:	08001b20 	stmdaeq	r0, {r5, r8, r9, fp, ip}
 8000544:	08001b24 	stmdaeq	r0, {r2, r5, r8, r9, fp, ip}

08000548 <dukes_of_hazard_music>:
 8000548:	b580      	push	{r7, lr}
 800054a:	af00      	add	r7, sp, #0
 800054c:	2202      	movs	r2, #2
 800054e:	2101      	movs	r1, #1
 8000550:	2001      	movs	r0, #1
 8000552:	f000 fd45 	bl	8000fe0 <configPin>
 8000556:	20c8      	movs	r0, #200	; 0xc8
 8000558:	f000 fbc4 	bl	8000ce4 <setBPM>
 800055c:	2108      	movs	r1, #8
 800055e:	481b      	ldr	r0, [pc, #108]	; (80005cc <dukes_of_hazard_music+0x84>)
 8000560:	f000 fbe9 	bl	8000d36 <play_note>
 8000564:	2108      	movs	r1, #8
 8000566:	481a      	ldr	r0, [pc, #104]	; (80005d0 <dukes_of_hazard_music+0x88>)
 8000568:	f000 fbe5 	bl	8000d36 <play_note>
 800056c:	2104      	movs	r1, #4
 800056e:	4819      	ldr	r0, [pc, #100]	; (80005d4 <dukes_of_hazard_music+0x8c>)
 8000570:	f000 fbe1 	bl	8000d36 <play_note>
 8000574:	2104      	movs	r1, #4
 8000576:	4817      	ldr	r0, [pc, #92]	; (80005d4 <dukes_of_hazard_music+0x8c>)
 8000578:	f000 fbdd 	bl	8000d36 <play_note>
 800057c:	2108      	movs	r1, #8
 800057e:	4815      	ldr	r0, [pc, #84]	; (80005d4 <dukes_of_hazard_music+0x8c>)
 8000580:	f000 fbd9 	bl	8000d36 <play_note>
 8000584:	2108      	movs	r1, #8
 8000586:	4814      	ldr	r0, [pc, #80]	; (80005d8 <dukes_of_hazard_music+0x90>)
 8000588:	f000 fbd5 	bl	8000d36 <play_note>
 800058c:	2108      	movs	r1, #8
 800058e:	4810      	ldr	r0, [pc, #64]	; (80005d0 <dukes_of_hazard_music+0x88>)
 8000590:	f000 fbd1 	bl	8000d36 <play_note>
 8000594:	2108      	movs	r1, #8
 8000596:	4811      	ldr	r0, [pc, #68]	; (80005dc <dukes_of_hazard_music+0x94>)
 8000598:	f000 fbcd 	bl	8000d36 <play_note>
 800059c:	2104      	movs	r1, #4
 800059e:	480b      	ldr	r0, [pc, #44]	; (80005cc <dukes_of_hazard_music+0x84>)
 80005a0:	f000 fbc9 	bl	8000d36 <play_note>
 80005a4:	2108      	movs	r1, #8
 80005a6:	4809      	ldr	r0, [pc, #36]	; (80005cc <dukes_of_hazard_music+0x84>)
 80005a8:	f000 fbc5 	bl	8000d36 <play_note>
 80005ac:	2104      	movs	r1, #4
 80005ae:	4807      	ldr	r0, [pc, #28]	; (80005cc <dukes_of_hazard_music+0x84>)
 80005b0:	f000 fbc1 	bl	8000d36 <play_note>
 80005b4:	2104      	movs	r1, #4
 80005b6:	4806      	ldr	r0, [pc, #24]	; (80005d0 <dukes_of_hazard_music+0x88>)
 80005b8:	f000 fbbd 	bl	8000d36 <play_note>
 80005bc:	2001      	movs	r0, #1
 80005be:	f000 fc79 	bl	8000eb4 <play_pause>
 80005c2:	2001      	movs	r0, #1
 80005c4:	f000 fc76 	bl	8000eb4 <play_pause>
 80005c8:	e7c8      	b.n	800055c <dukes_of_hazard_music+0x14>
 80005ca:	bf00      	nop
 80005cc:	08001b28 	stmdaeq	r0, {r3, r5, r8, r9, fp, ip}
 80005d0:	08001b2c 	stmdaeq	r0, {r2, r3, r5, r8, r9, fp, ip}
 80005d4:	08001b30 	stmdaeq	r0, {r4, r5, r8, r9, fp, ip}
 80005d8:	08001b34 	stmdaeq	r0, {r2, r4, r5, r8, r9, fp, ip}
 80005dc:	08001b38 	stmdaeq	r0, {r3, r4, r5, r8, r9, fp, ip}

080005e0 <kernel>:
 80005e0:	b580      	push	{r7, lr}
 80005e2:	af00      	add	r7, sp, #0
 80005e4:	f000 fae8 	bl	8000bb8 <disableUnalignedAddressFault>
 80005e8:	f000 fb30 	bl	8000c4c <initDallocSpace>
 80005ec:	f000 faf2 	bl	8000bd4 <initProcessPages>
 80005f0:	f000 f826 	bl	8000640 <enable_external_clock>
 80005f4:	f000 f838 	bl	8000668 <enableGpioClocks>
 80005f8:	f000 f844 	bl	8000684 <enable_timer_clocks>
 80005fc:	f000 f850 	bl	80006a0 <enableADCClocks>
 8000600:	2004      	movs	r0, #4
 8000602:	f000 f871 	bl	80006e8 <enable_external_clock_pll>
 8000606:	f000 f859 	bl	80006bc <enable_uart_clocks>
 800060a:	f000 f90f 	bl	800082c <startScheduler>
 800060e:	4808      	ldr	r0, [pc, #32]	; (8000630 <kernel+0x50>)
 8000610:	f001 f96a 	bl	80018e8 <createNewProcess>
 8000614:	4807      	ldr	r0, [pc, #28]	; (8000634 <kernel+0x54>)
 8000616:	f001 f967 	bl	80018e8 <createNewProcess>
 800061a:	4807      	ldr	r0, [pc, #28]	; (8000638 <kernel+0x58>)
 800061c:	f001 f964 	bl	80018e8 <createNewProcess>
 8000620:	4806      	ldr	r0, [pc, #24]	; (800063c <kernel+0x5c>)
 8000622:	f001 f961 	bl	80018e8 <createNewProcess>
 8000626:	f7ff fd0f 	bl	8000048 <process1>
 800062a:	bf00      	nop
 800062c:	bd80      	pop	{r7, pc}
 800062e:	bf00      	nop
 8000630:	08000049 	stmdaeq	r0, {r0, r3, r6}
 8000634:	0800021d 	stmdaeq	r0, {r0, r2, r3, r4, r9}
 8000638:	0800016d 	stmdaeq	r0, {r0, r2, r3, r5, r6, r8}
 800063c:	080002c1 	stmdaeq	r0, {r0, r6, r7, r9}

08000640 <enable_external_clock>:
 8000640:	b480      	push	{r7}
 8000642:	af00      	add	r7, sp, #0
 8000644:	4b07      	ldr	r3, [pc, #28]	; (8000664 <enable_external_clock+0x24>)
 8000646:	681b      	ldr	r3, [r3, #0]
 8000648:	4a06      	ldr	r2, [pc, #24]	; (8000664 <enable_external_clock+0x24>)
 800064a:	f443 3380 	orr.w	r3, r3, #65536	; 0x10000
 800064e:	6013      	str	r3, [r2, #0]
 8000650:	4b04      	ldr	r3, [pc, #16]	; (8000664 <enable_external_clock+0x24>)
 8000652:	681b      	ldr	r3, [r3, #0]
 8000654:	4a03      	ldr	r2, [pc, #12]	; (8000664 <enable_external_clock+0x24>)
 8000656:	f443 3380 	orr.w	r3, r3, #65536	; 0x10000
 800065a:	6013      	str	r3, [r2, #0]
 800065c:	bf00      	nop
 800065e:	46bd      	mov	sp, r7
 8000660:	bc80      	pop	{r7}
 8000662:	4770      	bx	lr
 8000664:	40021000 	andmi	r1, r2, r0

08000668 <enableGpioClocks>:
 8000668:	b480      	push	{r7}
 800066a:	af00      	add	r7, sp, #0
 800066c:	4b04      	ldr	r3, [pc, #16]	; (8000680 <enableGpioClocks+0x18>)
 800066e:	681b      	ldr	r3, [r3, #0]
 8000670:	4a03      	ldr	r2, [pc, #12]	; (8000680 <enableGpioClocks+0x18>)
 8000672:	f043 037c 	orr.w	r3, r3, #124	; 0x7c
 8000676:	6013      	str	r3, [r2, #0]
 8000678:	bf00      	nop
 800067a:	46bd      	mov	sp, r7
 800067c:	bc80      	pop	{r7}
 800067e:	4770      	bx	lr
 8000680:	40021018 	andmi	r1, r2, r8, lsl r0

08000684 <enable_timer_clocks>:
 8000684:	b480      	push	{r7}
 8000686:	af00      	add	r7, sp, #0
 8000688:	4b04      	ldr	r3, [pc, #16]	; (800069c <enable_timer_clocks+0x18>)
 800068a:	681b      	ldr	r3, [r3, #0]
 800068c:	4a03      	ldr	r2, [pc, #12]	; (800069c <enable_timer_clocks+0x18>)
 800068e:	f043 033f 	orr.w	r3, r3, #63	; 0x3f
 8000692:	6013      	str	r3, [r2, #0]
 8000694:	bf00      	nop
 8000696:	46bd      	mov	sp, r7
 8000698:	bc80      	pop	{r7}
 800069a:	4770      	bx	lr
 800069c:	4002101c 	andmi	r1, r2, ip, lsl r0

080006a0 <enableADCClocks>:
 80006a0:	b480      	push	{r7}
 80006a2:	af00      	add	r7, sp, #0
 80006a4:	4b04      	ldr	r3, [pc, #16]	; (80006b8 <enableADCClocks+0x18>)
 80006a6:	681b      	ldr	r3, [r3, #0]
 80006a8:	4a03      	ldr	r2, [pc, #12]	; (80006b8 <enableADCClocks+0x18>)
 80006aa:	f443 4306 	orr.w	r3, r3, #34304	; 0x8600
 80006ae:	6013      	str	r3, [r2, #0]
 80006b0:	bf00      	nop
 80006b2:	46bd      	mov	sp, r7
 80006b4:	bc80      	pop	{r7}
 80006b6:	4770      	bx	lr
 80006b8:	40021018 	andmi	r1, r2, r8, lsl r0

080006bc <enable_uart_clocks>:
 80006bc:	b480      	push	{r7}
 80006be:	af00      	add	r7, sp, #0
 80006c0:	4b07      	ldr	r3, [pc, #28]	; (80006e0 <enable_uart_clocks+0x24>)
 80006c2:	681b      	ldr	r3, [r3, #0]
 80006c4:	4a06      	ldr	r2, [pc, #24]	; (80006e0 <enable_uart_clocks+0x24>)
 80006c6:	f443 3300 	orr.w	r3, r3, #131072	; 0x20000
 80006ca:	6013      	str	r3, [r2, #0]
 80006cc:	4b05      	ldr	r3, [pc, #20]	; (80006e4 <enable_uart_clocks+0x28>)
 80006ce:	681b      	ldr	r3, [r3, #0]
 80006d0:	4a04      	ldr	r2, [pc, #16]	; (80006e4 <enable_uart_clocks+0x28>)
 80006d2:	f043 0301 	orr.w	r3, r3, #1
 80006d6:	6013      	str	r3, [r2, #0]
 80006d8:	bf00      	nop
 80006da:	46bd      	mov	sp, r7
 80006dc:	bc80      	pop	{r7}
 80006de:	4770      	bx	lr
 80006e0:	4002101c 	andmi	r1, r2, ip, lsl r0
 80006e4:	40021018 	andmi	r1, r2, r8, lsl r0

080006e8 <enable_external_clock_pll>:
 80006e8:	b480      	push	{r7}
 80006ea:	b085      	sub	sp, #20
 80006ec:	af00      	add	r7, sp, #0
 80006ee:	4603      	mov	r3, r0
 80006f0:	71fb      	strb	r3, [r7, #7]
 80006f2:	4b16      	ldr	r3, [pc, #88]	; (800074c <enable_external_clock_pll+0x64>)
 80006f4:	681b      	ldr	r3, [r3, #0]
 80006f6:	4a15      	ldr	r2, [pc, #84]	; (800074c <enable_external_clock_pll+0x64>)
 80006f8:	f443 3380 	orr.w	r3, r3, #65536	; 0x10000
 80006fc:	6013      	str	r3, [r2, #0]
 80006fe:	4b13      	ldr	r3, [pc, #76]	; (800074c <enable_external_clock_pll+0x64>)
 8000700:	681b      	ldr	r3, [r3, #0]
 8000702:	4a12      	ldr	r2, [pc, #72]	; (800074c <enable_external_clock_pll+0x64>)
 8000704:	f423 1370 	bic.w	r3, r3, #3932160	; 0x3c0000
 8000708:	6013      	str	r3, [r2, #0]
 800070a:	79fb      	ldrb	r3, [r7, #7]
 800070c:	3b02      	subs	r3, #2
 800070e:	60fb      	str	r3, [r7, #12]
 8000710:	4b0e      	ldr	r3, [pc, #56]	; (800074c <enable_external_clock_pll+0x64>)
 8000712:	681a      	ldr	r2, [r3, #0]
 8000714:	68fb      	ldr	r3, [r7, #12]
 8000716:	049b      	lsls	r3, r3, #18
 8000718:	490c      	ldr	r1, [pc, #48]	; (800074c <enable_external_clock_pll+0x64>)
 800071a:	4313      	orrs	r3, r2
 800071c:	600b      	str	r3, [r1, #0]
 800071e:	4b0c      	ldr	r3, [pc, #48]	; (8000750 <enable_external_clock_pll+0x68>)
 8000720:	681b      	ldr	r3, [r3, #0]
 8000722:	4a0b      	ldr	r2, [pc, #44]	; (8000750 <enable_external_clock_pll+0x68>)
 8000724:	f043 7380 	orr.w	r3, r3, #16777216	; 0x1000000
 8000728:	6013      	str	r3, [r2, #0]
 800072a:	4b08      	ldr	r3, [pc, #32]	; (800074c <enable_external_clock_pll+0x64>)
 800072c:	681b      	ldr	r3, [r3, #0]
 800072e:	4a07      	ldr	r2, [pc, #28]	; (800074c <enable_external_clock_pll+0x64>)
 8000730:	f023 0301 	bic.w	r3, r3, #1
 8000734:	6013      	str	r3, [r2, #0]
 8000736:	4b05      	ldr	r3, [pc, #20]	; (800074c <enable_external_clock_pll+0x64>)
 8000738:	681b      	ldr	r3, [r3, #0]
 800073a:	4a04      	ldr	r2, [pc, #16]	; (800074c <enable_external_clock_pll+0x64>)
 800073c:	f043 0302 	orr.w	r3, r3, #2
 8000740:	6013      	str	r3, [r2, #0]
 8000742:	bf00      	nop
 8000744:	3714      	adds	r7, #20
 8000746:	46bd      	mov	sp, r7
 8000748:	bc80      	pop	{r7}
 800074a:	4770      	bx	lr
 800074c:	40021004 	andmi	r1, r2, r4
 8000750:	40021000 	andmi	r1, r2, r0

08000754 <getClockFreq>:
 8000754:	b480      	push	{r7}
 8000756:	b085      	sub	sp, #20
 8000758:	af00      	add	r7, sp, #0
 800075a:	f44f 53fa 	mov.w	r3, #8000	; 0x1f40
 800075e:	60fb      	str	r3, [r7, #12]
 8000760:	4b0d      	ldr	r3, [pc, #52]	; (8000798 <getClockFreq+0x44>)
 8000762:	681b      	ldr	r3, [r3, #0]
 8000764:	0e1b      	lsrs	r3, r3, #24
 8000766:	f003 0301 	and.w	r3, r3, #1
 800076a:	60bb      	str	r3, [r7, #8]
 800076c:	4b0b      	ldr	r3, [pc, #44]	; (800079c <getClockFreq+0x48>)
 800076e:	681b      	ldr	r3, [r3, #0]
 8000770:	0c9b      	lsrs	r3, r3, #18
 8000772:	f003 030f 	and.w	r3, r3, #15
 8000776:	3302      	adds	r3, #2
 8000778:	607b      	str	r3, [r7, #4]
 800077a:	68bb      	ldr	r3, [r7, #8]
 800077c:	2b00      	cmp	r3, #0
 800077e:	d005      	beq.n	800078c <getClockFreq+0x38>
 8000780:	687b      	ldr	r3, [r7, #4]
 8000782:	f44f 52fa 	mov.w	r2, #8000	; 0x1f40
 8000786:	fb02 f303 	mul.w	r3, r2, r3
 800078a:	60fb      	str	r3, [r7, #12]
 800078c:	68fb      	ldr	r3, [r7, #12]
 800078e:	4618      	mov	r0, r3
 8000790:	3714      	adds	r7, #20
 8000792:	46bd      	mov	sp, r7
 8000794:	bc80      	pop	{r7}
 8000796:	4770      	bx	lr
 8000798:	40021000 	andmi	r1, r2, r0
 800079c:	40021004 	andmi	r1, r2, r4

080007a0 <delay_1_msec>:
 80007a0:	b401      	push	{r0}

080007a2 <delay_loop>:
 80007a2:	f1a0 0001 	sub.w	r0, r0, #1
 80007a6:	2800      	cmp	r0, #0
 80007a8:	d1fb      	bne.n	80007a2 <delay_loop>
 80007aa:	bc01      	pop	{r0}
 80007ac:	4770      	bx	lr
 80007ae:	bf00      	nop

080007b0 <delay_msec>:
 80007b0:	b580      	push	{r7, lr}
 80007b2:	b084      	sub	sp, #16
 80007b4:	af00      	add	r7, sp, #0
 80007b6:	6078      	str	r0, [r7, #4]
 80007b8:	f7ff ffcc 	bl	8000754 <getClockFreq>
 80007bc:	60b8      	str	r0, [r7, #8]
 80007be:	68bb      	ldr	r3, [r7, #8]
 80007c0:	085b      	lsrs	r3, r3, #1
 80007c2:	4a0b      	ldr	r2, [pc, #44]	; (80007f0 <delay_msec+0x40>)
 80007c4:	fba2 2303 	umull	r2, r3, r2, r3
 80007c8:	089b      	lsrs	r3, r3, #2
 80007ca:	60bb      	str	r3, [r7, #8]
 80007cc:	2300      	movs	r3, #0
 80007ce:	60fb      	str	r3, [r7, #12]
 80007d0:	e005      	b.n	80007de <delay_msec+0x2e>
 80007d2:	68b8      	ldr	r0, [r7, #8]
 80007d4:	f7ff ffe4 	bl	80007a0 <delay_1_msec>
 80007d8:	68fb      	ldr	r3, [r7, #12]
 80007da:	3301      	adds	r3, #1
 80007dc:	60fb      	str	r3, [r7, #12]
 80007de:	68fa      	ldr	r2, [r7, #12]
 80007e0:	687b      	ldr	r3, [r7, #4]
 80007e2:	429a      	cmp	r2, r3
 80007e4:	d3f5      	bcc.n	80007d2 <delay_msec+0x22>
 80007e6:	bf00      	nop
 80007e8:	bf00      	nop
 80007ea:	3710      	adds	r7, #16
 80007ec:	46bd      	mov	sp, r7
 80007ee:	bd80      	pop	{r7, pc}
 80007f0:	92492493 	subls	r2, r9, #-1828716544	; 0x93000000

080007f4 <getUsecWorking>:
 80007f4:	b480      	push	{r7}
 80007f6:	af00      	add	r7, sp, #0
 80007f8:	4b02      	ldr	r3, [pc, #8]	; (8000804 <getUsecWorking+0x10>)
 80007fa:	681b      	ldr	r3, [r3, #0]
 80007fc:	4618      	mov	r0, r3
 80007fe:	46bd      	mov	sp, r7
 8000800:	bc80      	pop	{r7}
 8000802:	4770      	bx	lr
 8000804:	20000000 	andcs	r0, r0, r0

08000808 <add_to_PCB_list>:
 8000808:	b480      	push	{r7}
 800080a:	b083      	sub	sp, #12
 800080c:	af00      	add	r7, sp, #0
 800080e:	6078      	str	r0, [r7, #4]
 8000810:	6039      	str	r1, [r7, #0]
 8000812:	683b      	ldr	r3, [r7, #0]
 8000814:	009b      	lsls	r3, r3, #2
 8000816:	4a04      	ldr	r2, [pc, #16]	; (8000828 <add_to_PCB_list+0x20>)
 8000818:	4413      	add	r3, r2
 800081a:	687a      	ldr	r2, [r7, #4]
 800081c:	601a      	str	r2, [r3, #0]
 800081e:	bf00      	nop
 8000820:	370c      	adds	r7, #12
 8000822:	46bd      	mov	sp, r7
 8000824:	bc80      	pop	{r7}
 8000826:	4770      	bx	lr
 8000828:	20000008 	andcs	r0, r0, r8

0800082c <startScheduler>:
 800082c:	b580      	push	{r7, lr}
 800082e:	af00      	add	r7, sp, #0
 8000830:	f640 70ff 	movw	r0, #4095	; 0xfff
 8000834:	f000 f8af 	bl	8000996 <setSystickReload>
 8000838:	f000 f8c6 	bl	80009c8 <enableSystick>
 800083c:	4b02      	ldr	r3, [pc, #8]	; (8000848 <startScheduler+0x1c>)
 800083e:	2200      	movs	r2, #0
 8000840:	601a      	str	r2, [r3, #0]
 8000842:	bf00      	nop
 8000844:	bd80      	pop	{r7, pc}
 8000846:	bf00      	nop
 8000848:	20000014 	andcs	r0, r0, r4, lsl r0

0800084c <scheduleNextProcess>:
 800084c:	b480      	push	{r7}
 800084e:	b083      	sub	sp, #12
 8000850:	af00      	add	r7, sp, #0
 8000852:	4b1c      	ldr	r3, [pc, #112]	; (80008c4 <scheduleNextProcess+0x78>)
 8000854:	681b      	ldr	r3, [r3, #0]
 8000856:	2b00      	cmp	r3, #0
 8000858:	d107      	bne.n	800086a <scheduleNextProcess+0x1e>
 800085a:	4b1b      	ldr	r3, [pc, #108]	; (80008c8 <scheduleNextProcess+0x7c>)
 800085c:	4a1b      	ldr	r2, [pc, #108]	; (80008cc <scheduleNextProcess+0x80>)
 800085e:	601a      	str	r2, [r3, #0]
 8000860:	4b19      	ldr	r3, [pc, #100]	; (80008c8 <scheduleNextProcess+0x7c>)
 8000862:	681b      	ldr	r3, [r3, #0]
 8000864:	4a17      	ldr	r2, [pc, #92]	; (80008c4 <scheduleNextProcess+0x78>)
 8000866:	6013      	str	r3, [r2, #0]
 8000868:	e028      	b.n	80008bc <scheduleNextProcess+0x70>
 800086a:	4b16      	ldr	r3, [pc, #88]	; (80008c4 <scheduleNextProcess+0x78>)
 800086c:	681b      	ldr	r3, [r3, #0]
 800086e:	f503 73c6 	add.w	r3, r3, #396	; 0x18c
 8000872:	607b      	str	r3, [r7, #4]
 8000874:	e017      	b.n	80008a6 <scheduleNextProcess+0x5a>
 8000876:	687b      	ldr	r3, [r7, #4]
 8000878:	681b      	ldr	r3, [r3, #0]
 800087a:	2b00      	cmp	r3, #0
 800087c:	d00f      	beq.n	800089e <scheduleNextProcess+0x52>
 800087e:	4b12      	ldr	r3, [pc, #72]	; (80008c8 <scheduleNextProcess+0x7c>)
 8000880:	681b      	ldr	r3, [r3, #0]
 8000882:	3b04      	subs	r3, #4
 8000884:	687a      	ldr	r2, [r7, #4]
 8000886:	429a      	cmp	r2, r3
 8000888:	d009      	beq.n	800089e <scheduleNextProcess+0x52>
 800088a:	687b      	ldr	r3, [r7, #4]
 800088c:	3304      	adds	r3, #4
 800088e:	461a      	mov	r2, r3
 8000890:	4b0d      	ldr	r3, [pc, #52]	; (80008c8 <scheduleNextProcess+0x7c>)
 8000892:	601a      	str	r2, [r3, #0]
 8000894:	4b0c      	ldr	r3, [pc, #48]	; (80008c8 <scheduleNextProcess+0x7c>)
 8000896:	681b      	ldr	r3, [r3, #0]
 8000898:	4a0a      	ldr	r2, [pc, #40]	; (80008c4 <scheduleNextProcess+0x78>)
 800089a:	6013      	str	r3, [r2, #0]
 800089c:	e00e      	b.n	80008bc <scheduleNextProcess+0x70>
 800089e:	687b      	ldr	r3, [r7, #4]
 80008a0:	f503 73c8 	add.w	r3, r3, #400	; 0x190
 80008a4:	607b      	str	r3, [r7, #4]
 80008a6:	687b      	ldr	r3, [r7, #4]
 80008a8:	4a09      	ldr	r2, [pc, #36]	; (80008d0 <scheduleNextProcess+0x84>)
 80008aa:	4293      	cmp	r3, r2
 80008ac:	d9e3      	bls.n	8000876 <scheduleNextProcess+0x2a>
 80008ae:	4b06      	ldr	r3, [pc, #24]	; (80008c8 <scheduleNextProcess+0x7c>)
 80008b0:	4a06      	ldr	r2, [pc, #24]	; (80008cc <scheduleNextProcess+0x80>)
 80008b2:	601a      	str	r2, [r3, #0]
 80008b4:	4b04      	ldr	r3, [pc, #16]	; (80008c8 <scheduleNextProcess+0x7c>)
 80008b6:	681b      	ldr	r3, [r3, #0]
 80008b8:	4a02      	ldr	r2, [pc, #8]	; (80008c4 <scheduleNextProcess+0x78>)
 80008ba:	6013      	str	r3, [r2, #0]
 80008bc:	370c      	adds	r7, #12
 80008be:	46bd      	mov	sp, r7
 80008c0:	bc80      	pop	{r7}
 80008c2:	4770      	bx	lr
 80008c4:	20000014 	andcs	r0, r0, r4, lsl r0
 80008c8:	20000010 	andcs	r0, r0, r0, lsl r0
 80008cc:	20004004 	andcs	r4, r0, r4
 80008d0:	20004e6f 	andcs	r4, r0, pc, ror #28
 80008d4:	f3af 8000 	nop.w

080008d8 <SysTick_ISR>:
 80008d8:	b401      	push	{r0}
 80008da:	f3ef 8003 	mrs	r0, PSR
 80008de:	b401      	push	{r0}
 80008e0:	f8df 002c 	ldr.w	r0, [pc, #44]	; 8000910 <current_PCB>
 80008e4:	6800      	ldr	r0, [r0, #0]
 80008e6:	b401      	push	{r0}
 80008e8:	f100 0004 	add.w	r0, r0, #4
 80008ec:	e880 5ffe 	stmia.w	r0, {r1, r2, r3, r4, r5, r6, r7, r8, r9, sl, fp, ip, lr}
 80008f0:	bc01      	pop	{r0}
 80008f2:	4601      	mov	r1, r0
 80008f4:	bc01      	pop	{r0}
 80008f6:	6388      	str	r0, [r1, #56]	; 0x38
 80008f8:	bc01      	pop	{r0}
 80008fa:	6008      	str	r0, [r1, #0]
 80008fc:	f3ef 8008 	mrs	r0, MSP
 8000900:	63c8      	str	r0, [r1, #60]	; 0x3c
 8000902:	f3ef 8009 	mrs	r0, PSP
 8000906:	6408      	str	r0, [r1, #64]	; 0x40
 8000908:	f3bf 8f4f 	dsb	sy
 800090c:	f3bf 8f6f 	isb	sy

08000910 <current_PCB>:
 8000910:	20000010 	andcs	r0, r0, r0, lsl r0
 8000914:	f7ff ff9a 	bl	800084c <scheduleNextProcess>
 8000918:	4b16      	ldr	r3, [pc, #88]	; (8000974 <current_PCB+0x64>)
 800091a:	681b      	ldr	r3, [r3, #0]
 800091c:	f44f 727a 	mov.w	r2, #1000	; 0x3e8
 8000920:	fb02 f403 	mul.w	r4, r2, r3
 8000924:	f7ff ff16 	bl	8000754 <getClockFreq>
 8000928:	4603      	mov	r3, r0
 800092a:	fbb4 f2f3 	udiv	r2, r4, r3
 800092e:	4b12      	ldr	r3, [pc, #72]	; (8000978 <current_PCB+0x68>)
 8000930:	681b      	ldr	r3, [r3, #0]
 8000932:	4413      	add	r3, r2
 8000934:	4a10      	ldr	r2, [pc, #64]	; (8000978 <current_PCB+0x68>)
 8000936:	6013      	str	r3, [r2, #0]
 8000938:	f85f 002c 	ldr.w	r0, [pc, #-44]	; 8000910 <current_PCB>
 800093c:	6800      	ldr	r0, [r0, #0]
 800093e:	b401      	push	{r0}
 8000940:	f100 0004 	add.w	r0, r0, #4
 8000944:	e890 5ffe 	ldmia.w	r0, {r1, r2, r3, r4, r5, r6, r7, r8, r9, sl, fp, ip, lr}
 8000948:	bc01      	pop	{r0}
 800094a:	4601      	mov	r1, r0
 800094c:	6b88      	ldr	r0, [r1, #56]	; 0x38
 800094e:	f380 8803 	msr	PSR, r0
 8000952:	6bc8      	ldr	r0, [r1, #60]	; 0x3c
 8000954:	f380 8808 	msr	MSP, r0
 8000958:	6c08      	ldr	r0, [r1, #64]	; 0x40
 800095a:	f380 8809 	msr	PSP, r0
 800095e:	f85f 0050 	ldr.w	r0, [pc, #-80]	; 8000910 <current_PCB>
 8000962:	6800      	ldr	r0, [r0, #0]
 8000964:	6841      	ldr	r1, [r0, #4]
 8000966:	6800      	ldr	r0, [r0, #0]
 8000968:	f3bf 8f4f 	dsb	sy
 800096c:	f3bf 8f6f 	isb	sy
 8000970:	4770      	bx	lr
 8000972:	bf00      	nop
 8000974:	e000e018 	and	lr, r0, r8, lsl r0
 8000978:	20000000 	andcs	r0, r0, r0

0800097c <attachHandler>:
 800097c:	b480      	push	{r7}
 800097e:	b083      	sub	sp, #12
 8000980:	af00      	add	r7, sp, #0
 8000982:	6078      	str	r0, [r7, #4]
 8000984:	6039      	str	r1, [r7, #0]
 8000986:	683a      	ldr	r2, [r7, #0]
 8000988:	687b      	ldr	r3, [r7, #4]
 800098a:	601a      	str	r2, [r3, #0]
 800098c:	bf00      	nop
 800098e:	370c      	adds	r7, #12
 8000990:	46bd      	mov	sp, r7
 8000992:	bc80      	pop	{r7}
 8000994:	4770      	bx	lr

08000996 <setSystickReload>:
 8000996:	b480      	push	{r7}
 8000998:	b083      	sub	sp, #12
 800099a:	af00      	add	r7, sp, #0
 800099c:	6078      	str	r0, [r7, #4]
 800099e:	4b09      	ldr	r3, [pc, #36]	; (80009c4 <setSystickReload+0x2e>)
 80009a0:	681b      	ldr	r3, [r3, #0]
 80009a2:	4a08      	ldr	r2, [pc, #32]	; (80009c4 <setSystickReload+0x2e>)
 80009a4:	f003 437f 	and.w	r3, r3, #4278190080	; 0xff000000
 80009a8:	6013      	str	r3, [r2, #0]
 80009aa:	4b06      	ldr	r3, [pc, #24]	; (80009c4 <setSystickReload+0x2e>)
 80009ac:	681a      	ldr	r2, [r3, #0]
 80009ae:	687b      	ldr	r3, [r7, #4]
 80009b0:	f023 437f 	bic.w	r3, r3, #4278190080	; 0xff000000
 80009b4:	4903      	ldr	r1, [pc, #12]	; (80009c4 <setSystickReload+0x2e>)
 80009b6:	4313      	orrs	r3, r2
 80009b8:	600b      	str	r3, [r1, #0]
 80009ba:	bf00      	nop
 80009bc:	370c      	adds	r7, #12
 80009be:	46bd      	mov	sp, r7
 80009c0:	bc80      	pop	{r7}
 80009c2:	4770      	bx	lr
 80009c4:	e000e014 	and	lr, r0, r4, lsl r0

080009c8 <enableSystick>:
 80009c8:	b480      	push	{r7}
 80009ca:	b083      	sub	sp, #12
 80009cc:	af00      	add	r7, sp, #0
 80009ce:	4b09      	ldr	r3, [pc, #36]	; (80009f4 <enableSystick+0x2c>)
 80009d0:	681b      	ldr	r3, [r3, #0]
 80009d2:	f023 0307 	bic.w	r3, r3, #7
 80009d6:	607b      	str	r3, [r7, #4]
 80009d8:	4a06      	ldr	r2, [pc, #24]	; (80009f4 <enableSystick+0x2c>)
 80009da:	687b      	ldr	r3, [r7, #4]
 80009dc:	f043 0307 	orr.w	r3, r3, #7
 80009e0:	6013      	str	r3, [r2, #0]
 80009e2:	4b05      	ldr	r3, [pc, #20]	; (80009f8 <enableSystick+0x30>)
 80009e4:	4a05      	ldr	r2, [pc, #20]	; (80009fc <enableSystick+0x34>)
 80009e6:	601a      	str	r2, [r3, #0]
 80009e8:	bf00      	nop
 80009ea:	370c      	adds	r7, #12
 80009ec:	46bd      	mov	sp, r7
 80009ee:	bc80      	pop	{r7}
 80009f0:	4770      	bx	lr
 80009f2:	bf00      	nop
 80009f4:	e000e010 	and	lr, r0, r0, lsl r0
 80009f8:	e000e018 	and	lr, r0, r8, lsl r0
 80009fc:	000186a0 	andeq	r8, r1, r0, lsr #13

08000a00 <setInterrupt>:
 8000a00:	b480      	push	{r7}
 8000a02:	b083      	sub	sp, #12
 8000a04:	af00      	add	r7, sp, #0
 8000a06:	6078      	str	r0, [r7, #4]
 8000a08:	687b      	ldr	r3, [r7, #4]
 8000a0a:	2b1f      	cmp	r3, #31
 8000a0c:	d80a      	bhi.n	8000a24 <setInterrupt+0x24>
 8000a0e:	4b10      	ldr	r3, [pc, #64]	; (8000a50 <setInterrupt+0x50>)
 8000a10:	681b      	ldr	r3, [r3, #0]
 8000a12:	2101      	movs	r1, #1
 8000a14:	687a      	ldr	r2, [r7, #4]
 8000a16:	fa01 f202 	lsl.w	r2, r1, r2
 8000a1a:	4611      	mov	r1, r2
 8000a1c:	4a0c      	ldr	r2, [pc, #48]	; (8000a50 <setInterrupt+0x50>)
 8000a1e:	430b      	orrs	r3, r1
 8000a20:	6013      	str	r3, [r2, #0]
 8000a22:	e005      	b.n	8000a30 <setInterrupt+0x30>
 8000a24:	687b      	ldr	r3, [r7, #4]
 8000a26:	2b3f      	cmp	r3, #63	; 0x3f
 8000a28:	d802      	bhi.n	8000a30 <setInterrupt+0x30>
 8000a2a:	687b      	ldr	r3, [r7, #4]
 8000a2c:	3b20      	subs	r3, #32
 8000a2e:	607b      	str	r3, [r7, #4]
 8000a30:	4b08      	ldr	r3, [pc, #32]	; (8000a54 <setInterrupt+0x54>)
 8000a32:	681b      	ldr	r3, [r3, #0]
 8000a34:	2101      	movs	r1, #1
 8000a36:	687a      	ldr	r2, [r7, #4]
 8000a38:	fa01 f202 	lsl.w	r2, r1, r2
 8000a3c:	4611      	mov	r1, r2
 8000a3e:	4a05      	ldr	r2, [pc, #20]	; (8000a54 <setInterrupt+0x54>)
 8000a40:	430b      	orrs	r3, r1
 8000a42:	6013      	str	r3, [r2, #0]
 8000a44:	bf00      	nop
 8000a46:	370c      	adds	r7, #12
 8000a48:	46bd      	mov	sp, r7
 8000a4a:	bc80      	pop	{r7}
 8000a4c:	4770      	bx	lr
 8000a4e:	bf00      	nop
 8000a50:	e000e100 	and	lr, r0, r0, lsl #2
 8000a54:	e000e104 	and	lr, r0, r4, lsl #2

08000a58 <clearInterrupt>:
 8000a58:	b480      	push	{r7}
 8000a5a:	b083      	sub	sp, #12
 8000a5c:	af00      	add	r7, sp, #0
 8000a5e:	6078      	str	r0, [r7, #4]
 8000a60:	687b      	ldr	r3, [r7, #4]
 8000a62:	2b1f      	cmp	r3, #31
 8000a64:	d80a      	bhi.n	8000a7c <clearInterrupt+0x24>
 8000a66:	4b10      	ldr	r3, [pc, #64]	; (8000aa8 <clearInterrupt+0x50>)
 8000a68:	681b      	ldr	r3, [r3, #0]
 8000a6a:	2101      	movs	r1, #1
 8000a6c:	687a      	ldr	r2, [r7, #4]
 8000a6e:	fa01 f202 	lsl.w	r2, r1, r2
 8000a72:	4611      	mov	r1, r2
 8000a74:	4a0c      	ldr	r2, [pc, #48]	; (8000aa8 <clearInterrupt+0x50>)
 8000a76:	430b      	orrs	r3, r1
 8000a78:	6013      	str	r3, [r2, #0]
 8000a7a:	e005      	b.n	8000a88 <clearInterrupt+0x30>
 8000a7c:	687b      	ldr	r3, [r7, #4]
 8000a7e:	2b3f      	cmp	r3, #63	; 0x3f
 8000a80:	d802      	bhi.n	8000a88 <clearInterrupt+0x30>
 8000a82:	687b      	ldr	r3, [r7, #4]
 8000a84:	3b20      	subs	r3, #32
 8000a86:	607b      	str	r3, [r7, #4]
 8000a88:	4b08      	ldr	r3, [pc, #32]	; (8000aac <clearInterrupt+0x54>)
 8000a8a:	681b      	ldr	r3, [r3, #0]
 8000a8c:	2101      	movs	r1, #1
 8000a8e:	687a      	ldr	r2, [r7, #4]
 8000a90:	fa01 f202 	lsl.w	r2, r1, r2
 8000a94:	4611      	mov	r1, r2
 8000a96:	4a05      	ldr	r2, [pc, #20]	; (8000aac <clearInterrupt+0x54>)
 8000a98:	430b      	orrs	r3, r1
 8000a9a:	6013      	str	r3, [r2, #0]
 8000a9c:	bf00      	nop
 8000a9e:	370c      	adds	r7, #12
 8000aa0:	46bd      	mov	sp, r7
 8000aa2:	bc80      	pop	{r7}
 8000aa4:	4770      	bx	lr
 8000aa6:	bf00      	nop
 8000aa8:	e000e180 	and	lr, r0, r0, lsl #3
 8000aac:	e000e184 	and	lr, r0, r4, lsl #3

08000ab0 <HardFault_ISR>:
 8000ab0:	4668      	mov	r0, sp
 8000ab2:	f020 0107 	bic.w	r1, r0, #7
 8000ab6:	468d      	mov	sp, r1
 8000ab8:	b589      	push	{r0, r3, r7, lr}
 8000aba:	af00      	add	r7, sp, #0
 8000abc:	2200      	movs	r2, #0
 8000abe:	210c      	movs	r1, #12
 8000ac0:	2002      	movs	r0, #2
 8000ac2:	f000 fc23 	bl	800130c <setPin>
 8000ac6:	bf00      	nop
 8000ac8:	46bd      	mov	sp, r7
 8000aca:	e8bd 4089 	ldmia.w	sp!, {r0, r3, r7, lr}
 8000ace:	4685      	mov	sp, r0
 8000ad0:	4770      	bx	lr

08000ad2 <TIM2_ISR>:
 8000ad2:	4668      	mov	r0, sp
 8000ad4:	f020 0107 	bic.w	r1, r0, #7
 8000ad8:	468d      	mov	sp, r1
 8000ada:	b589      	push	{r0, r3, r7, lr}
 8000adc:	af00      	add	r7, sp, #0
 8000ade:	4b0c      	ldr	r3, [pc, #48]	; (8000b10 <TIM2_ISR+0x3e>)
 8000ae0:	681b      	ldr	r3, [r3, #0]
 8000ae2:	43db      	mvns	r3, r3
 8000ae4:	4a0a      	ldr	r2, [pc, #40]	; (8000b10 <TIM2_ISR+0x3e>)
 8000ae6:	6013      	str	r3, [r2, #0]
 8000ae8:	4b09      	ldr	r3, [pc, #36]	; (8000b10 <TIM2_ISR+0x3e>)
 8000aea:	681b      	ldr	r3, [r3, #0]
 8000aec:	b2db      	uxtb	r3, r3
 8000aee:	461a      	mov	r2, r3
 8000af0:	2105      	movs	r1, #5
 8000af2:	2002      	movs	r0, #2
 8000af4:	f000 fc0a 	bl	800130c <setPin>
 8000af8:	4b06      	ldr	r3, [pc, #24]	; (8000b14 <TIM2_ISR+0x42>)
 8000afa:	681b      	ldr	r3, [r3, #0]
 8000afc:	4b05      	ldr	r3, [pc, #20]	; (8000b14 <TIM2_ISR+0x42>)
 8000afe:	2200      	movs	r2, #0
 8000b00:	601a      	str	r2, [r3, #0]
 8000b02:	bf00      	nop
 8000b04:	46bd      	mov	sp, r7
 8000b06:	e8bd 4089 	ldmia.w	sp!, {r0, r3, r7, lr}
 8000b0a:	4685      	mov	sp, r0
 8000b0c:	4770      	bx	lr
 8000b0e:	bf00      	nop
 8000b10:	20000018 	andcs	r0, r0, r8, lsl r0
 8000b14:	40000010 	andmi	r0, r0, r0, lsl r0

08000b18 <TIM3_ISR>:
 8000b18:	4668      	mov	r0, sp
 8000b1a:	f020 0107 	bic.w	r1, r0, #7
 8000b1e:	468d      	mov	sp, r1
 8000b20:	b481      	push	{r0, r7}
 8000b22:	af00      	add	r7, sp, #0
 8000b24:	bf00      	nop
 8000b26:	46bd      	mov	sp, r7
 8000b28:	bc81      	pop	{r0, r7}
 8000b2a:	4685      	mov	sp, r0
 8000b2c:	4770      	bx	lr

08000b2e <TIM4_ISR>:
 8000b2e:	4668      	mov	r0, sp
 8000b30:	f020 0107 	bic.w	r1, r0, #7
 8000b34:	468d      	mov	sp, r1
 8000b36:	b589      	push	{r0, r3, r7, lr}
 8000b38:	af00      	add	r7, sp, #0
 8000b3a:	4b0c      	ldr	r3, [pc, #48]	; (8000b6c <TIM4_ISR+0x3e>)
 8000b3c:	681b      	ldr	r3, [r3, #0]
 8000b3e:	43db      	mvns	r3, r3
 8000b40:	4a0a      	ldr	r2, [pc, #40]	; (8000b6c <TIM4_ISR+0x3e>)
 8000b42:	6013      	str	r3, [r2, #0]
 8000b44:	4b09      	ldr	r3, [pc, #36]	; (8000b6c <TIM4_ISR+0x3e>)
 8000b46:	681b      	ldr	r3, [r3, #0]
 8000b48:	b2db      	uxtb	r3, r3
 8000b4a:	461a      	mov	r2, r3
 8000b4c:	210d      	movs	r1, #13
 8000b4e:	2002      	movs	r0, #2
 8000b50:	f000 fbdc 	bl	800130c <setPin>
 8000b54:	4b06      	ldr	r3, [pc, #24]	; (8000b70 <TIM4_ISR+0x42>)
 8000b56:	681b      	ldr	r3, [r3, #0]
 8000b58:	4b05      	ldr	r3, [pc, #20]	; (8000b70 <TIM4_ISR+0x42>)
 8000b5a:	2200      	movs	r2, #0
 8000b5c:	601a      	str	r2, [r3, #0]
 8000b5e:	bf00      	nop
 8000b60:	46bd      	mov	sp, r7
 8000b62:	e8bd 4089 	ldmia.w	sp!, {r0, r3, r7, lr}
 8000b66:	4685      	mov	sp, r0
 8000b68:	4770      	bx	lr
 8000b6a:	bf00      	nop
 8000b6c:	20000020 	andcs	r0, r0, r0, lsr #32
 8000b70:	40000810 	andmi	r0, r0, r0, lsl r8

08000b74 <TIM5_ISR>:
 8000b74:	4668      	mov	r0, sp
 8000b76:	f020 0107 	bic.w	r1, r0, #7
 8000b7a:	468d      	mov	sp, r1
 8000b7c:	b589      	push	{r0, r3, r7, lr}
 8000b7e:	af00      	add	r7, sp, #0
 8000b80:	4b0b      	ldr	r3, [pc, #44]	; (8000bb0 <TIM5_ISR+0x3c>)
 8000b82:	681b      	ldr	r3, [r3, #0]
 8000b84:	43db      	mvns	r3, r3
 8000b86:	4a0a      	ldr	r2, [pc, #40]	; (8000bb0 <TIM5_ISR+0x3c>)
 8000b88:	6013      	str	r3, [r2, #0]
 8000b8a:	4b09      	ldr	r3, [pc, #36]	; (8000bb0 <TIM5_ISR+0x3c>)
 8000b8c:	681b      	ldr	r3, [r3, #0]
 8000b8e:	b2db      	uxtb	r3, r3
 8000b90:	461a      	mov	r2, r3
 8000b92:	210f      	movs	r1, #15
 8000b94:	2002      	movs	r0, #2
 8000b96:	f000 fbb9 	bl	800130c <setPin>
 8000b9a:	4b06      	ldr	r3, [pc, #24]	; (8000bb4 <TIM5_ISR+0x40>)
 8000b9c:	681b      	ldr	r3, [r3, #0]
 8000b9e:	4b05      	ldr	r3, [pc, #20]	; (8000bb4 <TIM5_ISR+0x40>)
 8000ba0:	2200      	movs	r2, #0
 8000ba2:	601a      	str	r2, [r3, #0]
 8000ba4:	bf00      	nop
 8000ba6:	46bd      	mov	sp, r7
 8000ba8:	e8bd 4089 	ldmia.w	sp!, {r0, r3, r7, lr}
 8000bac:	4685      	mov	sp, r0
 8000bae:	4770      	bx	lr
 8000bb0:	20000020 	andcs	r0, r0, r0, lsr #32
 8000bb4:	40000810 	andmi	r0, r0, r0, lsl r8

08000bb8 <disableUnalignedAddressFault>:
 8000bb8:	b480      	push	{r7}
 8000bba:	af00      	add	r7, sp, #0
 8000bbc:	4b04      	ldr	r3, [pc, #16]	; (8000bd0 <disableUnalignedAddressFault+0x18>)
 8000bbe:	681b      	ldr	r3, [r3, #0]
 8000bc0:	4a03      	ldr	r2, [pc, #12]	; (8000bd0 <disableUnalignedAddressFault+0x18>)
 8000bc2:	f023 0308 	bic.w	r3, r3, #8
 8000bc6:	6013      	str	r3, [r2, #0]
 8000bc8:	bf00      	nop
 8000bca:	46bd      	mov	sp, r7
 8000bcc:	bc80      	pop	{r7}
 8000bce:	4770      	bx	lr
 8000bd0:	e000ed14 	and	lr, r0, r4, lsl sp

08000bd4 <initProcessPages>:
 8000bd4:	b480      	push	{r7}
 8000bd6:	b083      	sub	sp, #12
 8000bd8:	af00      	add	r7, sp, #0
 8000bda:	4b0a      	ldr	r3, [pc, #40]	; (8000c04 <initProcessPages+0x30>)
 8000bdc:	607b      	str	r3, [r7, #4]
 8000bde:	e006      	b.n	8000bee <initProcessPages+0x1a>
 8000be0:	687b      	ldr	r3, [r7, #4]
 8000be2:	2200      	movs	r2, #0
 8000be4:	601a      	str	r2, [r3, #0]
 8000be6:	687b      	ldr	r3, [r7, #4]
 8000be8:	f503 73c8 	add.w	r3, r3, #400	; 0x190
 8000bec:	607b      	str	r3, [r7, #4]
 8000bee:	687b      	ldr	r3, [r7, #4]
 8000bf0:	4a05      	ldr	r2, [pc, #20]	; (8000c08 <initProcessPages+0x34>)
 8000bf2:	4293      	cmp	r3, r2
 8000bf4:	d9f4      	bls.n	8000be0 <initProcessPages+0xc>
 8000bf6:	bf00      	nop
 8000bf8:	bf00      	nop
 8000bfa:	370c      	adds	r7, #12
 8000bfc:	46bd      	mov	sp, r7
 8000bfe:	bc80      	pop	{r7}
 8000c00:	4770      	bx	lr
 8000c02:	bf00      	nop
 8000c04:	20004000 	andcs	r4, r0, r0
 8000c08:	20004e6f 	andcs	r4, r0, pc, ror #28

08000c0c <findAvailableProcessPage>:
 8000c0c:	b480      	push	{r7}
 8000c0e:	b083      	sub	sp, #12
 8000c10:	af00      	add	r7, sp, #0
 8000c12:	4b0c      	ldr	r3, [pc, #48]	; (8000c44 <findAvailableProcessPage+0x38>)
 8000c14:	607b      	str	r3, [r7, #4]
 8000c16:	e00b      	b.n	8000c30 <findAvailableProcessPage+0x24>
 8000c18:	687b      	ldr	r3, [r7, #4]
 8000c1a:	681b      	ldr	r3, [r3, #0]
 8000c1c:	603b      	str	r3, [r7, #0]
 8000c1e:	683b      	ldr	r3, [r7, #0]
 8000c20:	2b00      	cmp	r3, #0
 8000c22:	d101      	bne.n	8000c28 <findAvailableProcessPage+0x1c>
 8000c24:	687b      	ldr	r3, [r7, #4]
 8000c26:	e008      	b.n	8000c3a <findAvailableProcessPage+0x2e>
 8000c28:	687b      	ldr	r3, [r7, #4]
 8000c2a:	f503 73c8 	add.w	r3, r3, #400	; 0x190
 8000c2e:	607b      	str	r3, [r7, #4]
 8000c30:	687b      	ldr	r3, [r7, #4]
 8000c32:	4a05      	ldr	r2, [pc, #20]	; (8000c48 <findAvailableProcessPage+0x3c>)
 8000c34:	4293      	cmp	r3, r2
 8000c36:	d9ef      	bls.n	8000c18 <findAvailableProcessPage+0xc>
 8000c38:	2300      	movs	r3, #0
 8000c3a:	4618      	mov	r0, r3
 8000c3c:	370c      	adds	r7, #12
 8000c3e:	46bd      	mov	sp, r7
 8000c40:	bc80      	pop	{r7}
 8000c42:	4770      	bx	lr
 8000c44:	20004000 	andcs	r4, r0, r0
 8000c48:	20004e6f 	andcs	r4, r0, pc, ror #28

08000c4c <initDallocSpace>:
 8000c4c:	b480      	push	{r7}
 8000c4e:	b083      	sub	sp, #12
 8000c50:	af00      	add	r7, sp, #0
 8000c52:	f04f 2320 	mov.w	r3, #536879104	; 0x20002000
 8000c56:	607b      	str	r3, [r7, #4]
 8000c58:	e005      	b.n	8000c66 <initDallocSpace+0x1a>
 8000c5a:	687b      	ldr	r3, [r7, #4]
 8000c5c:	2200      	movs	r2, #0
 8000c5e:	601a      	str	r2, [r3, #0]
 8000c60:	687b      	ldr	r3, [r7, #4]
 8000c62:	3301      	adds	r3, #1
 8000c64:	607b      	str	r3, [r7, #4]
 8000c66:	687b      	ldr	r3, [r7, #4]
 8000c68:	4a04      	ldr	r2, [pc, #16]	; (8000c7c <initDallocSpace+0x30>)
 8000c6a:	4293      	cmp	r3, r2
 8000c6c:	d3f5      	bcc.n	8000c5a <initDallocSpace+0xe>
 8000c6e:	bf00      	nop
 8000c70:	bf00      	nop
 8000c72:	370c      	adds	r7, #12
 8000c74:	46bd      	mov	sp, r7
 8000c76:	bc80      	pop	{r7}
 8000c78:	4770      	bx	lr
 8000c7a:	bf00      	nop
 8000c7c:	20004000 	andcs	r4, r0, r0

08000c80 <malloc>:
 8000c80:	b480      	push	{r7}
 8000c82:	b085      	sub	sp, #20
 8000c84:	af00      	add	r7, sp, #0
 8000c86:	4603      	mov	r3, r0
 8000c88:	80fb      	strh	r3, [r7, #6]
 8000c8a:	f04f 2320 	mov.w	r3, #536879104	; 0x20002000
 8000c8e:	60fb      	str	r3, [r7, #12]
 8000c90:	68fb      	ldr	r3, [r7, #12]
 8000c92:	881b      	ldrh	r3, [r3, #0]
 8000c94:	817b      	strh	r3, [r7, #10]
 8000c96:	e007      	b.n	8000ca8 <malloc+0x28>
 8000c98:	897a      	ldrh	r2, [r7, #10]
 8000c9a:	68fb      	ldr	r3, [r7, #12]
 8000c9c:	4413      	add	r3, r2
 8000c9e:	3302      	adds	r3, #2
 8000ca0:	60fb      	str	r3, [r7, #12]
 8000ca2:	68fb      	ldr	r3, [r7, #12]
 8000ca4:	881b      	ldrh	r3, [r3, #0]
 8000ca6:	817b      	strh	r3, [r7, #10]
 8000ca8:	897b      	ldrh	r3, [r7, #10]
 8000caa:	2b00      	cmp	r3, #0
 8000cac:	d003      	beq.n	8000cb6 <malloc+0x36>
 8000cae:	68fb      	ldr	r3, [r7, #12]
 8000cb0:	4a0a      	ldr	r2, [pc, #40]	; (8000cdc <malloc+0x5c>)
 8000cb2:	4293      	cmp	r3, r2
 8000cb4:	d9f0      	bls.n	8000c98 <malloc+0x18>
 8000cb6:	88fa      	ldrh	r2, [r7, #6]
 8000cb8:	68fb      	ldr	r3, [r7, #12]
 8000cba:	4413      	add	r3, r2
 8000cbc:	3301      	adds	r3, #1
 8000cbe:	4a08      	ldr	r2, [pc, #32]	; (8000ce0 <malloc+0x60>)
 8000cc0:	4293      	cmp	r3, r2
 8000cc2:	d301      	bcc.n	8000cc8 <malloc+0x48>
 8000cc4:	2300      	movs	r3, #0
 8000cc6:	e004      	b.n	8000cd2 <malloc+0x52>
 8000cc8:	68fb      	ldr	r3, [r7, #12]
 8000cca:	88fa      	ldrh	r2, [r7, #6]
 8000ccc:	801a      	strh	r2, [r3, #0]
 8000cce:	68fb      	ldr	r3, [r7, #12]
 8000cd0:	3302      	adds	r3, #2
 8000cd2:	4618      	mov	r0, r3
 8000cd4:	3714      	adds	r7, #20
 8000cd6:	46bd      	mov	sp, r7
 8000cd8:	bc80      	pop	{r7}
 8000cda:	4770      	bx	lr
 8000cdc:	20003ffe 	strdcs	r3, [r0], -lr
 8000ce0:	20004000 	andcs	r4, r0, r0

08000ce4 <setBPM>:
 8000ce4:	b480      	push	{r7}
 8000ce6:	b083      	sub	sp, #12
 8000ce8:	af00      	add	r7, sp, #0
 8000cea:	4603      	mov	r3, r0
 8000cec:	71fb      	strb	r3, [r7, #7]
 8000cee:	79fb      	ldrb	r3, [r7, #7]
 8000cf0:	b29a      	uxth	r2, r3
 8000cf2:	4b03      	ldr	r3, [pc, #12]	; (8000d00 <setBPM+0x1c>)
 8000cf4:	801a      	strh	r2, [r3, #0]
 8000cf6:	bf00      	nop
 8000cf8:	370c      	adds	r7, #12
 8000cfa:	46bd      	mov	sp, r7
 8000cfc:	bc80      	pop	{r7}
 8000cfe:	4770      	bx	lr
 8000d00:	20000024 	andcs	r0, r0, r4, lsr #32

08000d04 <music_delay>:
 8000d04:	b580      	push	{r7, lr}
 8000d06:	b084      	sub	sp, #16
 8000d08:	af00      	add	r7, sp, #0
 8000d0a:	6078      	str	r0, [r7, #4]
 8000d0c:	f7ff fd72 	bl	80007f4 <getUsecWorking>
 8000d10:	60b8      	str	r0, [r7, #8]
 8000d12:	f7ff fd6f 	bl	80007f4 <getUsecWorking>
 8000d16:	60f8      	str	r0, [r7, #12]
 8000d18:	e002      	b.n	8000d20 <music_delay+0x1c>
 8000d1a:	f7ff fd6b 	bl	80007f4 <getUsecWorking>
 8000d1e:	60f8      	str	r0, [r7, #12]
 8000d20:	68fa      	ldr	r2, [r7, #12]
 8000d22:	68bb      	ldr	r3, [r7, #8]
 8000d24:	1ad3      	subs	r3, r2, r3
 8000d26:	687a      	ldr	r2, [r7, #4]
 8000d28:	429a      	cmp	r2, r3
 8000d2a:	d8f6      	bhi.n	8000d1a <music_delay+0x16>
 8000d2c:	bf00      	nop
 8000d2e:	bf00      	nop
 8000d30:	3710      	adds	r7, #16
 8000d32:	46bd      	mov	sp, r7
 8000d34:	bd80      	pop	{r7, pc}

08000d36 <play_note>:
 8000d36:	b580      	push	{r7, lr}
 8000d38:	b088      	sub	sp, #32
 8000d3a:	af00      	add	r7, sp, #0
 8000d3c:	6078      	str	r0, [r7, #4]
 8000d3e:	460b      	mov	r3, r1
 8000d40:	70fb      	strb	r3, [r7, #3]
 8000d42:	2301      	movs	r3, #1
 8000d44:	837b      	strh	r3, [r7, #26]
 8000d46:	2300      	movs	r3, #0
 8000d48:	617b      	str	r3, [r7, #20]
 8000d4a:	e005      	b.n	8000d58 <play_note+0x22>
 8000d4c:	8b7b      	ldrh	r3, [r7, #26]
 8000d4e:	005b      	lsls	r3, r3, #1
 8000d50:	837b      	strh	r3, [r7, #26]
 8000d52:	697b      	ldr	r3, [r7, #20]
 8000d54:	3301      	adds	r3, #1
 8000d56:	617b      	str	r3, [r7, #20]
 8000d58:	687b      	ldr	r3, [r7, #4]
 8000d5a:	3301      	adds	r3, #1
 8000d5c:	781b      	ldrb	r3, [r3, #0]
 8000d5e:	3b30      	subs	r3, #48	; 0x30
 8000d60:	697a      	ldr	r2, [r7, #20]
 8000d62:	429a      	cmp	r2, r3
 8000d64:	dbf2      	blt.n	8000d4c <play_note+0x16>
 8000d66:	687b      	ldr	r3, [r7, #4]
 8000d68:	3302      	adds	r3, #2
 8000d6a:	781b      	ldrb	r3, [r3, #0]
 8000d6c:	2b00      	cmp	r3, #0
 8000d6e:	d170      	bne.n	8000e52 <play_note+0x11c>
 8000d70:	687b      	ldr	r3, [r7, #4]
 8000d72:	781b      	ldrb	r3, [r3, #0]
 8000d74:	3b41      	subs	r3, #65	; 0x41
 8000d76:	2b06      	cmp	r3, #6
 8000d78:	d86c      	bhi.n	8000e54 <play_note+0x11e>
 8000d7a:	a201      	add	r2, pc, #4	; (adr r2, 8000d80 <play_note+0x4a>)
 8000d7c:	f852 f023 	ldr.w	pc, [r2, r3, lsl #2]
 8000d80:	08000d9d 	stmdaeq	r0, {r0, r2, r3, r4, r7, r8, sl, fp}
 8000d84:	08000db7 	stmdaeq	r0, {r0, r1, r2, r4, r5, r7, r8, sl, fp}
 8000d88:	08000dd1 	stmdaeq	r0, {r0, r4, r6, r7, r8, sl, fp}
 8000d8c:	08000deb 	stmdaeq	r0, {r0, r1, r3, r5, r6, r7, r8, sl, fp}
 8000d90:	08000e05 	stmdaeq	r0, {r0, r2, r9, sl, fp}
 8000d94:	08000e1f 	stmdaeq	r0, {r0, r1, r2, r3, r4, r9, sl, fp}
 8000d98:	08000e39 	stmdaeq	r0, {r0, r3, r4, r5, r9, sl, fp}
 8000d9c:	8b7b      	ldrh	r3, [r7, #26]
 8000d9e:	f646 326c 	movw	r2, #27500	; 0x6b6c
 8000da2:	fb02 f303 	mul.w	r3, r2, r3
 8000da6:	4a40      	ldr	r2, [pc, #256]	; (8000ea8 <play_note+0x172>)
 8000da8:	fb82 1203 	smull	r1, r2, r2, r3
 8000dac:	1192      	asrs	r2, r2, #6
 8000dae:	17db      	asrs	r3, r3, #31
 8000db0:	1ad3      	subs	r3, r2, r3
 8000db2:	61fb      	str	r3, [r7, #28]
 8000db4:	e04e      	b.n	8000e54 <play_note+0x11e>
 8000db6:	8b7b      	ldrh	r3, [r7, #26]
 8000db8:	f647 0296 	movw	r2, #30870	; 0x7896
 8000dbc:	fb02 f303 	mul.w	r3, r2, r3
 8000dc0:	4a39      	ldr	r2, [pc, #228]	; (8000ea8 <play_note+0x172>)
 8000dc2:	fb82 1203 	smull	r1, r2, r2, r3
 8000dc6:	1192      	asrs	r2, r2, #6
 8000dc8:	17db      	asrs	r3, r3, #31
 8000dca:	1ad3      	subs	r3, r2, r3
 8000dcc:	61fb      	str	r3, [r7, #28]
 8000dce:	e041      	b.n	8000e54 <play_note+0x11e>
 8000dd0:	8b7b      	ldrh	r3, [r7, #26]
 8000dd2:	f643 72de 	movw	r2, #16350	; 0x3fde
 8000dd6:	fb02 f303 	mul.w	r3, r2, r3
 8000dda:	4a33      	ldr	r2, [pc, #204]	; (8000ea8 <play_note+0x172>)
 8000ddc:	fb82 1203 	smull	r1, r2, r2, r3
 8000de0:	1192      	asrs	r2, r2, #6
 8000de2:	17db      	asrs	r3, r3, #31
 8000de4:	1ad3      	subs	r3, r2, r3
 8000de6:	61fb      	str	r3, [r7, #28]
 8000de8:	e034      	b.n	8000e54 <play_note+0x11e>
 8000dea:	8b7b      	ldrh	r3, [r7, #26]
 8000dec:	f244 72ae 	movw	r2, #18350	; 0x47ae
 8000df0:	fb02 f303 	mul.w	r3, r2, r3
 8000df4:	4a2c      	ldr	r2, [pc, #176]	; (8000ea8 <play_note+0x172>)
 8000df6:	fb82 1203 	smull	r1, r2, r2, r3
 8000dfa:	1192      	asrs	r2, r2, #6
 8000dfc:	17db      	asrs	r3, r3, #31
 8000dfe:	1ad3      	subs	r3, r2, r3
 8000e00:	61fb      	str	r3, [r7, #28]
 8000e02:	e027      	b.n	8000e54 <play_note+0x11e>
 8000e04:	8b7b      	ldrh	r3, [r7, #26]
 8000e06:	f245 0278 	movw	r2, #20600	; 0x5078
 8000e0a:	fb02 f303 	mul.w	r3, r2, r3
 8000e0e:	4a26      	ldr	r2, [pc, #152]	; (8000ea8 <play_note+0x172>)
 8000e10:	fb82 1203 	smull	r1, r2, r2, r3
 8000e14:	1192      	asrs	r2, r2, #6
 8000e16:	17db      	asrs	r3, r3, #31
 8000e18:	1ad3      	subs	r3, r2, r3
 8000e1a:	61fb      	str	r3, [r7, #28]
 8000e1c:	e01a      	b.n	8000e54 <play_note+0x11e>
 8000e1e:	8b7b      	ldrh	r3, [r7, #26]
 8000e20:	f245 5246 	movw	r2, #21830	; 0x5546
 8000e24:	fb02 f303 	mul.w	r3, r2, r3
 8000e28:	4a1f      	ldr	r2, [pc, #124]	; (8000ea8 <play_note+0x172>)
 8000e2a:	fb82 1203 	smull	r1, r2, r2, r3
 8000e2e:	1192      	asrs	r2, r2, #6
 8000e30:	17db      	asrs	r3, r3, #31
 8000e32:	1ad3      	subs	r3, r2, r3
 8000e34:	61fb      	str	r3, [r7, #28]
 8000e36:	e00d      	b.n	8000e54 <play_note+0x11e>
 8000e38:	8b7b      	ldrh	r3, [r7, #26]
 8000e3a:	f645 72b4 	movw	r2, #24500	; 0x5fb4
 8000e3e:	fb02 f303 	mul.w	r3, r2, r3
 8000e42:	4a19      	ldr	r2, [pc, #100]	; (8000ea8 <play_note+0x172>)
 8000e44:	fb82 1203 	smull	r1, r2, r2, r3
 8000e48:	1192      	asrs	r2, r2, #6
 8000e4a:	17db      	asrs	r3, r3, #31
 8000e4c:	1ad3      	subs	r3, r2, r3
 8000e4e:	61fb      	str	r3, [r7, #28]
 8000e50:	e000      	b.n	8000e54 <play_note+0x11e>
 8000e52:	bf00      	nop
 8000e54:	69f8      	ldr	r0, [r7, #28]
 8000e56:	f000 fafb 	bl	8001450 <setPWM>
 8000e5a:	4b14      	ldr	r3, [pc, #80]	; (8000eac <play_note+0x176>)
 8000e5c:	881b      	ldrh	r3, [r3, #0]
 8000e5e:	461a      	mov	r2, r3
 8000e60:	4b13      	ldr	r3, [pc, #76]	; (8000eb0 <play_note+0x17a>)
 8000e62:	fb93 f3f2 	sdiv	r3, r3, r2
 8000e66:	613b      	str	r3, [r7, #16]
 8000e68:	693b      	ldr	r3, [r7, #16]
 8000e6a:	009a      	lsls	r2, r3, #2
 8000e6c:	78fb      	ldrb	r3, [r7, #3]
 8000e6e:	fbb2 f3f3 	udiv	r3, r2, r3
 8000e72:	60fb      	str	r3, [r7, #12]
 8000e74:	68fb      	ldr	r3, [r7, #12]
 8000e76:	f5a3 439c 	sub.w	r3, r3, #19968	; 0x4e00
 8000e7a:	3b20      	subs	r3, #32
 8000e7c:	60bb      	str	r3, [r7, #8]
 8000e7e:	68b8      	ldr	r0, [r7, #8]
 8000e80:	f7ff ff40 	bl	8000d04 <music_delay>
 8000e84:	2000      	movs	r0, #0
 8000e86:	f000 fae3 	bl	8001450 <setPWM>
 8000e8a:	68fa      	ldr	r2, [r7, #12]
 8000e8c:	68bb      	ldr	r3, [r7, #8]
 8000e8e:	1ad3      	subs	r3, r2, r3
 8000e90:	4618      	mov	r0, r3
 8000e92:	f7ff ff37 	bl	8000d04 <music_delay>
 8000e96:	f04f 4380 	mov.w	r3, #1073741824	; 0x40000000
 8000e9a:	2200      	movs	r2, #0
 8000e9c:	601a      	str	r2, [r3, #0]
 8000e9e:	bf00      	nop
 8000ea0:	3720      	adds	r7, #32
 8000ea2:	46bd      	mov	sp, r7
 8000ea4:	bd80      	pop	{r7, pc}
 8000ea6:	bf00      	nop
 8000ea8:	10624dd3 	ldrdne	r4, [r2], #-211	; 0xffffff2d	; <UNPREDICTABLE>
 8000eac:	20000024 	andcs	r0, r0, r4, lsr #32
 8000eb0:	03938700 	orrseq	r8, r3, #0, 14

08000eb4 <play_pause>:
 8000eb4:	b580      	push	{r7, lr}
 8000eb6:	b086      	sub	sp, #24
 8000eb8:	af00      	add	r7, sp, #0
 8000eba:	4603      	mov	r3, r0
 8000ebc:	71fb      	strb	r3, [r7, #7]
 8000ebe:	4b0b      	ldr	r3, [pc, #44]	; (8000eec <play_pause+0x38>)
 8000ec0:	881b      	ldrh	r3, [r3, #0]
 8000ec2:	461a      	mov	r2, r3
 8000ec4:	4b0a      	ldr	r3, [pc, #40]	; (8000ef0 <play_pause+0x3c>)
 8000ec6:	fb93 f3f2 	sdiv	r3, r3, r2
 8000eca:	617b      	str	r3, [r7, #20]
 8000ecc:	697b      	ldr	r3, [r7, #20]
 8000ece:	009a      	lsls	r2, r3, #2
 8000ed0:	79fb      	ldrb	r3, [r7, #7]
 8000ed2:	fbb2 f3f3 	udiv	r3, r2, r3
 8000ed6:	613b      	str	r3, [r7, #16]
 8000ed8:	693b      	ldr	r3, [r7, #16]
 8000eda:	60fb      	str	r3, [r7, #12]
 8000edc:	68f8      	ldr	r0, [r7, #12]
 8000ede:	f7ff ff11 	bl	8000d04 <music_delay>
 8000ee2:	bf00      	nop
 8000ee4:	3718      	adds	r7, #24
 8000ee6:	46bd      	mov	sp, r7
 8000ee8:	bd80      	pop	{r7, pc}
 8000eea:	bf00      	nop
 8000eec:	20000024 	andcs	r0, r0, r4, lsr #32
 8000ef0:	03938700 	orrseq	r8, r3, #0, 14

08000ef4 <startContinuousConversion>:
 8000ef4:	b480      	push	{r7}
 8000ef6:	b085      	sub	sp, #20
 8000ef8:	af00      	add	r7, sp, #0
 8000efa:	6078      	str	r0, [r7, #4]
 8000efc:	460b      	mov	r3, r1
 8000efe:	70fb      	strb	r3, [r7, #3]
 8000f00:	4b26      	ldr	r3, [pc, #152]	; (8000f9c <startContinuousConversion+0xa8>)
 8000f02:	681b      	ldr	r3, [r3, #0]
 8000f04:	4a25      	ldr	r2, [pc, #148]	; (8000f9c <startContinuousConversion+0xa8>)
 8000f06:	f023 030f 	bic.w	r3, r3, #15
 8000f0a:	6013      	str	r3, [r2, #0]
 8000f0c:	4b23      	ldr	r3, [pc, #140]	; (8000f9c <startContinuousConversion+0xa8>)
 8000f0e:	681a      	ldr	r2, [r3, #0]
 8000f10:	78fb      	ldrb	r3, [r7, #3]
 8000f12:	3b01      	subs	r3, #1
 8000f14:	f003 030f 	and.w	r3, r3, #15
 8000f18:	4920      	ldr	r1, [pc, #128]	; (8000f9c <startContinuousConversion+0xa8>)
 8000f1a:	4313      	orrs	r3, r2
 8000f1c:	600b      	str	r3, [r1, #0]
 8000f1e:	2300      	movs	r3, #0
 8000f20:	73fb      	strb	r3, [r7, #15]
 8000f22:	e01a      	b.n	8000f5a <startContinuousConversion+0x66>
 8000f24:	4b1e      	ldr	r3, [pc, #120]	; (8000fa0 <startContinuousConversion+0xac>)
 8000f26:	6819      	ldr	r1, [r3, #0]
 8000f28:	7bfa      	ldrb	r2, [r7, #15]
 8000f2a:	4613      	mov	r3, r2
 8000f2c:	009b      	lsls	r3, r3, #2
 8000f2e:	4413      	add	r3, r2
 8000f30:	221f      	movs	r2, #31
 8000f32:	fa02 f303 	lsl.w	r3, r2, r3
 8000f36:	43db      	mvns	r3, r3
 8000f38:	4a19      	ldr	r2, [pc, #100]	; (8000fa0 <startContinuousConversion+0xac>)
 8000f3a:	400b      	ands	r3, r1
 8000f3c:	6013      	str	r3, [r2, #0]
 8000f3e:	4b18      	ldr	r3, [pc, #96]	; (8000fa0 <startContinuousConversion+0xac>)
 8000f40:	681a      	ldr	r2, [r3, #0]
 8000f42:	7bfb      	ldrb	r3, [r7, #15]
 8000f44:	6879      	ldr	r1, [r7, #4]
 8000f46:	440b      	add	r3, r1
 8000f48:	781b      	ldrb	r3, [r3, #0]
 8000f4a:	f003 031f 	and.w	r3, r3, #31
 8000f4e:	4914      	ldr	r1, [pc, #80]	; (8000fa0 <startContinuousConversion+0xac>)
 8000f50:	4313      	orrs	r3, r2
 8000f52:	600b      	str	r3, [r1, #0]
 8000f54:	7bfb      	ldrb	r3, [r7, #15]
 8000f56:	3301      	adds	r3, #1
 8000f58:	73fb      	strb	r3, [r7, #15]
 8000f5a:	7bfa      	ldrb	r2, [r7, #15]
 8000f5c:	78fb      	ldrb	r3, [r7, #3]
 8000f5e:	429a      	cmp	r2, r3
 8000f60:	d3e0      	bcc.n	8000f24 <startContinuousConversion+0x30>
 8000f62:	4b10      	ldr	r3, [pc, #64]	; (8000fa4 <startContinuousConversion+0xb0>)
 8000f64:	681b      	ldr	r3, [r3, #0]
 8000f66:	4a0f      	ldr	r2, [pc, #60]	; (8000fa4 <startContinuousConversion+0xb0>)
 8000f68:	f043 0302 	orr.w	r3, r3, #2
 8000f6c:	6013      	str	r3, [r2, #0]
 8000f6e:	4b0d      	ldr	r3, [pc, #52]	; (8000fa4 <startContinuousConversion+0xb0>)
 8000f70:	681b      	ldr	r3, [r3, #0]
 8000f72:	4a0c      	ldr	r2, [pc, #48]	; (8000fa4 <startContinuousConversion+0xb0>)
 8000f74:	f043 0301 	orr.w	r3, r3, #1
 8000f78:	6013      	str	r3, [r2, #0]
 8000f7a:	4b0a      	ldr	r3, [pc, #40]	; (8000fa4 <startContinuousConversion+0xb0>)
 8000f7c:	681b      	ldr	r3, [r3, #0]
 8000f7e:	4a09      	ldr	r2, [pc, #36]	; (8000fa4 <startContinuousConversion+0xb0>)
 8000f80:	f043 0304 	orr.w	r3, r3, #4
 8000f84:	6013      	str	r3, [r2, #0]
 8000f86:	4b07      	ldr	r3, [pc, #28]	; (8000fa4 <startContinuousConversion+0xb0>)
 8000f88:	681b      	ldr	r3, [r3, #0]
 8000f8a:	4a06      	ldr	r2, [pc, #24]	; (8000fa4 <startContinuousConversion+0xb0>)
 8000f8c:	f043 0301 	orr.w	r3, r3, #1
 8000f90:	6013      	str	r3, [r2, #0]
 8000f92:	bf00      	nop
 8000f94:	3714      	adds	r7, #20
 8000f96:	46bd      	mov	sp, r7
 8000f98:	bc80      	pop	{r7}
 8000f9a:	4770      	bx	lr
 8000f9c:	4001242c 	andmi	r2, r1, ip, lsr #8
 8000fa0:	40012434 	andmi	r2, r1, r4, lsr r4
 8000fa4:	40012408 	andmi	r2, r1, r8, lsl #8

08000fa8 <readDataConverted>:
 8000fa8:	b480      	push	{r7}
 8000faa:	af00      	add	r7, sp, #0
 8000fac:	bf00      	nop
 8000fae:	4b0a      	ldr	r3, [pc, #40]	; (8000fd8 <readDataConverted+0x30>)
 8000fb0:	681b      	ldr	r3, [r3, #0]
 8000fb2:	085b      	lsrs	r3, r3, #1
 8000fb4:	f003 0301 	and.w	r3, r3, #1
 8000fb8:	2b00      	cmp	r3, #0
 8000fba:	d0f8      	beq.n	8000fae <readDataConverted+0x6>
 8000fbc:	4b06      	ldr	r3, [pc, #24]	; (8000fd8 <readDataConverted+0x30>)
 8000fbe:	681b      	ldr	r3, [r3, #0]
 8000fc0:	4a05      	ldr	r2, [pc, #20]	; (8000fd8 <readDataConverted+0x30>)
 8000fc2:	f023 0302 	bic.w	r3, r3, #2
 8000fc6:	6013      	str	r3, [r2, #0]
 8000fc8:	4b04      	ldr	r3, [pc, #16]	; (8000fdc <readDataConverted+0x34>)
 8000fca:	681b      	ldr	r3, [r3, #0]
 8000fcc:	b29b      	uxth	r3, r3
 8000fce:	4618      	mov	r0, r3
 8000fd0:	46bd      	mov	sp, r7
 8000fd2:	bc80      	pop	{r7}
 8000fd4:	4770      	bx	lr
 8000fd6:	bf00      	nop
 8000fd8:	40012400 	andmi	r2, r1, r0, lsl #8
 8000fdc:	4001244c 	andmi	r2, r1, ip, asr #8

08000fe0 <configPin>:
 8000fe0:	b480      	push	{r7}
 8000fe2:	b089      	sub	sp, #36	; 0x24
 8000fe4:	af00      	add	r7, sp, #0
 8000fe6:	4603      	mov	r3, r0
 8000fe8:	71fb      	strb	r3, [r7, #7]
 8000fea:	460b      	mov	r3, r1
 8000fec:	71bb      	strb	r3, [r7, #6]
 8000fee:	4613      	mov	r3, r2
 8000ff0:	717b      	strb	r3, [r7, #5]
 8000ff2:	79fb      	ldrb	r3, [r7, #7]
 8000ff4:	2b03      	cmp	r3, #3
 8000ff6:	f000 80fc 	beq.w	80011f2 <configPin+0x212>
 8000ffa:	2b03      	cmp	r3, #3
 8000ffc:	f300 8173 	bgt.w	80012e6 <configPin+0x306>
 8001000:	2b01      	cmp	r3, #1
 8001002:	d002      	beq.n	800100a <configPin+0x2a>
 8001004:	2b02      	cmp	r3, #2
 8001006:	d07a      	beq.n	80010fe <configPin+0x11e>
 8001008:	e16d      	b.n	80012e6 <configPin+0x306>
 800100a:	797b      	ldrb	r3, [r7, #5]
 800100c:	2b06      	cmp	r3, #6
 800100e:	d833      	bhi.n	8001078 <configPin+0x98>
 8001010:	a201      	add	r2, pc, #4	; (adr r2, 8001018 <configPin+0x38>)
 8001012:	f852 f023 	ldr.w	pc, [r2, r3, lsl #2]
 8001016:	bf00      	nop
 8001018:	08001035 	stmdaeq	r0, {r0, r2, r4, r5, ip}
 800101c:	0800103f 	stmdaeq	r0, {r0, r1, r2, r3, r4, r5, ip}
 8001020:	08001049 	stmdaeq	r0, {r0, r3, r6, ip}
 8001024:	08001053 	stmdaeq	r0, {r0, r1, r4, r6, ip}
 8001028:	0800105d 	stmdaeq	r0, {r0, r2, r3, r4, r6, ip}
 800102c:	08001067 	stmdaeq	r0, {r0, r1, r2, r5, r6, ip}
 8001030:	08001071 	stmdaeq	r0, {r0, r4, r5, r6, ip}
 8001034:	2302      	movs	r3, #2
 8001036:	61bb      	str	r3, [r7, #24]
 8001038:	2300      	movs	r3, #0
 800103a:	61fb      	str	r3, [r7, #28]
 800103c:	e01c      	b.n	8001078 <configPin+0x98>
 800103e:	2303      	movs	r3, #3
 8001040:	61bb      	str	r3, [r7, #24]
 8001042:	2301      	movs	r3, #1
 8001044:	61fb      	str	r3, [r7, #28]
 8001046:	e017      	b.n	8001078 <configPin+0x98>
 8001048:	2303      	movs	r3, #3
 800104a:	61bb      	str	r3, [r7, #24]
 800104c:	2302      	movs	r3, #2
 800104e:	61fb      	str	r3, [r7, #28]
 8001050:	e012      	b.n	8001078 <configPin+0x98>
 8001052:	2303      	movs	r3, #3
 8001054:	61bb      	str	r3, [r7, #24]
 8001056:	2303      	movs	r3, #3
 8001058:	61fb      	str	r3, [r7, #28]
 800105a:	e00d      	b.n	8001078 <configPin+0x98>
 800105c:	2300      	movs	r3, #0
 800105e:	61bb      	str	r3, [r7, #24]
 8001060:	2300      	movs	r3, #0
 8001062:	61fb      	str	r3, [r7, #28]
 8001064:	e008      	b.n	8001078 <configPin+0x98>
 8001066:	2300      	movs	r3, #0
 8001068:	61bb      	str	r3, [r7, #24]
 800106a:	2301      	movs	r3, #1
 800106c:	61fb      	str	r3, [r7, #28]
 800106e:	e003      	b.n	8001078 <configPin+0x98>
 8001070:	2300      	movs	r3, #0
 8001072:	61bb      	str	r3, [r7, #24]
 8001074:	2302      	movs	r3, #2
 8001076:	61fb      	str	r3, [r7, #28]
 8001078:	bf00      	nop
 800107a:	79bb      	ldrb	r3, [r7, #6]
 800107c:	2b07      	cmp	r3, #7
 800107e:	d81d      	bhi.n	80010bc <configPin+0xdc>
 8001080:	4b9c      	ldr	r3, [pc, #624]	; (80012f4 <configPin+0x314>)
 8001082:	681a      	ldr	r2, [r3, #0]
 8001084:	79bb      	ldrb	r3, [r7, #6]
 8001086:	009b      	lsls	r3, r3, #2
 8001088:	210f      	movs	r1, #15
 800108a:	fa01 f303 	lsl.w	r3, r1, r3
 800108e:	43db      	mvns	r3, r3
 8001090:	4013      	ands	r3, r2
 8001092:	60fb      	str	r3, [r7, #12]
 8001094:	79bb      	ldrb	r3, [r7, #6]
 8001096:	009b      	lsls	r3, r3, #2
 8001098:	3302      	adds	r3, #2
 800109a:	69fa      	ldr	r2, [r7, #28]
 800109c:	409a      	lsls	r2, r3
 800109e:	79bb      	ldrb	r3, [r7, #6]
 80010a0:	009b      	lsls	r3, r3, #2
 80010a2:	69b9      	ldr	r1, [r7, #24]
 80010a4:	fa01 f303 	lsl.w	r3, r1, r3
 80010a8:	4992      	ldr	r1, [pc, #584]	; (80012f4 <configPin+0x314>)
 80010aa:	4313      	orrs	r3, r2
 80010ac:	600b      	str	r3, [r1, #0]
 80010ae:	4b91      	ldr	r3, [pc, #580]	; (80012f4 <configPin+0x314>)
 80010b0:	681a      	ldr	r2, [r3, #0]
 80010b2:	4990      	ldr	r1, [pc, #576]	; (80012f4 <configPin+0x314>)
 80010b4:	68fb      	ldr	r3, [r7, #12]
 80010b6:	4313      	orrs	r3, r2
 80010b8:	600b      	str	r3, [r1, #0]
 80010ba:	e115      	b.n	80012e8 <configPin+0x308>
 80010bc:	4b8e      	ldr	r3, [pc, #568]	; (80012f8 <configPin+0x318>)
 80010be:	681a      	ldr	r2, [r3, #0]
 80010c0:	79bb      	ldrb	r3, [r7, #6]
 80010c2:	3b08      	subs	r3, #8
 80010c4:	009b      	lsls	r3, r3, #2
 80010c6:	210f      	movs	r1, #15
 80010c8:	fa01 f303 	lsl.w	r3, r1, r3
 80010cc:	43db      	mvns	r3, r3
 80010ce:	4013      	ands	r3, r2
 80010d0:	60fb      	str	r3, [r7, #12]
 80010d2:	79bb      	ldrb	r3, [r7, #6]
 80010d4:	3b08      	subs	r3, #8
 80010d6:	009b      	lsls	r3, r3, #2
 80010d8:	3302      	adds	r3, #2
 80010da:	69fa      	ldr	r2, [r7, #28]
 80010dc:	409a      	lsls	r2, r3
 80010de:	79bb      	ldrb	r3, [r7, #6]
 80010e0:	3b08      	subs	r3, #8
 80010e2:	009b      	lsls	r3, r3, #2
 80010e4:	69b9      	ldr	r1, [r7, #24]
 80010e6:	fa01 f303 	lsl.w	r3, r1, r3
 80010ea:	4983      	ldr	r1, [pc, #524]	; (80012f8 <configPin+0x318>)
 80010ec:	4313      	orrs	r3, r2
 80010ee:	600b      	str	r3, [r1, #0]
 80010f0:	4b81      	ldr	r3, [pc, #516]	; (80012f8 <configPin+0x318>)
 80010f2:	681a      	ldr	r2, [r3, #0]
 80010f4:	4980      	ldr	r1, [pc, #512]	; (80012f8 <configPin+0x318>)
 80010f6:	68fb      	ldr	r3, [r7, #12]
 80010f8:	4313      	orrs	r3, r2
 80010fa:	600b      	str	r3, [r1, #0]
 80010fc:	e0f4      	b.n	80012e8 <configPin+0x308>
 80010fe:	797b      	ldrb	r3, [r7, #5]
 8001100:	2b06      	cmp	r3, #6
 8001102:	d833      	bhi.n	800116c <configPin+0x18c>
 8001104:	a201      	add	r2, pc, #4	; (adr r2, 800110c <configPin+0x12c>)
 8001106:	f852 f023 	ldr.w	pc, [r2, r3, lsl #2]
 800110a:	bf00      	nop
 800110c:	08001129 	stmdaeq	r0, {r0, r3, r5, r8, ip}
 8001110:	08001133 	stmdaeq	r0, {r0, r1, r4, r5, r8, ip}
 8001114:	0800113d 	stmdaeq	r0, {r0, r2, r3, r4, r5, r8, ip}
 8001118:	08001147 	stmdaeq	r0, {r0, r1, r2, r6, r8, ip}
 800111c:	08001151 	stmdaeq	r0, {r0, r4, r6, r8, ip}
 8001120:	0800115b 	stmdaeq	r0, {r0, r1, r3, r4, r6, r8, ip}
 8001124:	08001165 	stmdaeq	r0, {r0, r2, r5, r6, r8, ip}
 8001128:	2302      	movs	r3, #2
 800112a:	61bb      	str	r3, [r7, #24]
 800112c:	2300      	movs	r3, #0
 800112e:	61fb      	str	r3, [r7, #28]
 8001130:	e01c      	b.n	800116c <configPin+0x18c>
 8001132:	2303      	movs	r3, #3
 8001134:	61bb      	str	r3, [r7, #24]
 8001136:	2301      	movs	r3, #1
 8001138:	61fb      	str	r3, [r7, #28]
 800113a:	e017      	b.n	800116c <configPin+0x18c>
 800113c:	2303      	movs	r3, #3
 800113e:	61bb      	str	r3, [r7, #24]
 8001140:	2302      	movs	r3, #2
 8001142:	61fb      	str	r3, [r7, #28]
 8001144:	e012      	b.n	800116c <configPin+0x18c>
 8001146:	2303      	movs	r3, #3
 8001148:	61bb      	str	r3, [r7, #24]
 800114a:	2303      	movs	r3, #3
 800114c:	61fb      	str	r3, [r7, #28]
 800114e:	e00d      	b.n	800116c <configPin+0x18c>
 8001150:	2300      	movs	r3, #0
 8001152:	61bb      	str	r3, [r7, #24]
 8001154:	2300      	movs	r3, #0
 8001156:	61fb      	str	r3, [r7, #28]
 8001158:	e008      	b.n	800116c <configPin+0x18c>
 800115a:	2300      	movs	r3, #0
 800115c:	61bb      	str	r3, [r7, #24]
 800115e:	2301      	movs	r3, #1
 8001160:	61fb      	str	r3, [r7, #28]
 8001162:	e003      	b.n	800116c <configPin+0x18c>
 8001164:	2300      	movs	r3, #0
 8001166:	61bb      	str	r3, [r7, #24]
 8001168:	2302      	movs	r3, #2
 800116a:	61fb      	str	r3, [r7, #28]
 800116c:	bf00      	nop
 800116e:	79bb      	ldrb	r3, [r7, #6]
 8001170:	2b07      	cmp	r3, #7
 8001172:	d81d      	bhi.n	80011b0 <configPin+0x1d0>
 8001174:	4b61      	ldr	r3, [pc, #388]	; (80012fc <configPin+0x31c>)
 8001176:	681a      	ldr	r2, [r3, #0]
 8001178:	79bb      	ldrb	r3, [r7, #6]
 800117a:	009b      	lsls	r3, r3, #2
 800117c:	210f      	movs	r1, #15
 800117e:	fa01 f303 	lsl.w	r3, r1, r3
 8001182:	43db      	mvns	r3, r3
 8001184:	4013      	ands	r3, r2
 8001186:	613b      	str	r3, [r7, #16]
 8001188:	79bb      	ldrb	r3, [r7, #6]
 800118a:	009b      	lsls	r3, r3, #2
 800118c:	3302      	adds	r3, #2
 800118e:	69fa      	ldr	r2, [r7, #28]
 8001190:	409a      	lsls	r2, r3
 8001192:	79bb      	ldrb	r3, [r7, #6]
 8001194:	009b      	lsls	r3, r3, #2
 8001196:	69b9      	ldr	r1, [r7, #24]
 8001198:	fa01 f303 	lsl.w	r3, r1, r3
 800119c:	4957      	ldr	r1, [pc, #348]	; (80012fc <configPin+0x31c>)
 800119e:	4313      	orrs	r3, r2
 80011a0:	600b      	str	r3, [r1, #0]
 80011a2:	4b56      	ldr	r3, [pc, #344]	; (80012fc <configPin+0x31c>)
 80011a4:	681a      	ldr	r2, [r3, #0]
 80011a6:	4955      	ldr	r1, [pc, #340]	; (80012fc <configPin+0x31c>)
 80011a8:	693b      	ldr	r3, [r7, #16]
 80011aa:	4313      	orrs	r3, r2
 80011ac:	600b      	str	r3, [r1, #0]
 80011ae:	e09b      	b.n	80012e8 <configPin+0x308>
 80011b0:	4b53      	ldr	r3, [pc, #332]	; (8001300 <configPin+0x320>)
 80011b2:	681a      	ldr	r2, [r3, #0]
 80011b4:	79bb      	ldrb	r3, [r7, #6]
 80011b6:	3b08      	subs	r3, #8
 80011b8:	009b      	lsls	r3, r3, #2
 80011ba:	210f      	movs	r1, #15
 80011bc:	fa01 f303 	lsl.w	r3, r1, r3
 80011c0:	43db      	mvns	r3, r3
 80011c2:	4013      	ands	r3, r2
 80011c4:	613b      	str	r3, [r7, #16]
 80011c6:	79bb      	ldrb	r3, [r7, #6]
 80011c8:	3b08      	subs	r3, #8
 80011ca:	009b      	lsls	r3, r3, #2
 80011cc:	3302      	adds	r3, #2
 80011ce:	69fa      	ldr	r2, [r7, #28]
 80011d0:	409a      	lsls	r2, r3
 80011d2:	79bb      	ldrb	r3, [r7, #6]
 80011d4:	3b08      	subs	r3, #8
 80011d6:	009b      	lsls	r3, r3, #2
 80011d8:	69b9      	ldr	r1, [r7, #24]
 80011da:	fa01 f303 	lsl.w	r3, r1, r3
 80011de:	4948      	ldr	r1, [pc, #288]	; (8001300 <configPin+0x320>)
 80011e0:	4313      	orrs	r3, r2
 80011e2:	600b      	str	r3, [r1, #0]
 80011e4:	4b46      	ldr	r3, [pc, #280]	; (8001300 <configPin+0x320>)
 80011e6:	681a      	ldr	r2, [r3, #0]
 80011e8:	4945      	ldr	r1, [pc, #276]	; (8001300 <configPin+0x320>)
 80011ea:	693b      	ldr	r3, [r7, #16]
 80011ec:	4313      	orrs	r3, r2
 80011ee:	600b      	str	r3, [r1, #0]
 80011f0:	e07a      	b.n	80012e8 <configPin+0x308>
 80011f2:	797b      	ldrb	r3, [r7, #5]
 80011f4:	2b06      	cmp	r3, #6
 80011f6:	d833      	bhi.n	8001260 <configPin+0x280>
 80011f8:	a201      	add	r2, pc, #4	; (adr r2, 8001200 <configPin+0x220>)
 80011fa:	f852 f023 	ldr.w	pc, [r2, r3, lsl #2]
 80011fe:	bf00      	nop
 8001200:	0800121d 	stmdaeq	r0, {r0, r2, r3, r4, r9, ip}
 8001204:	08001227 	stmdaeq	r0, {r0, r1, r2, r5, r9, ip}
 8001208:	08001231 	stmdaeq	r0, {r0, r4, r5, r9, ip}
 800120c:	0800123b 	stmdaeq	r0, {r0, r1, r3, r4, r5, r9, ip}
 8001210:	08001245 	stmdaeq	r0, {r0, r2, r6, r9, ip}
 8001214:	0800124f 	stmdaeq	r0, {r0, r1, r2, r3, r6, r9, ip}
 8001218:	08001259 	stmdaeq	r0, {r0, r3, r4, r6, r9, ip}
 800121c:	2302      	movs	r3, #2
 800121e:	61bb      	str	r3, [r7, #24]
 8001220:	2300      	movs	r3, #0
 8001222:	61fb      	str	r3, [r7, #28]
 8001224:	e01c      	b.n	8001260 <configPin+0x280>
 8001226:	2303      	movs	r3, #3
 8001228:	61bb      	str	r3, [r7, #24]
 800122a:	2301      	movs	r3, #1
 800122c:	61fb      	str	r3, [r7, #28]
 800122e:	e017      	b.n	8001260 <configPin+0x280>
 8001230:	2303      	movs	r3, #3
 8001232:	61bb      	str	r3, [r7, #24]
 8001234:	2302      	movs	r3, #2
 8001236:	61fb      	str	r3, [r7, #28]
 8001238:	e012      	b.n	8001260 <configPin+0x280>
 800123a:	2303      	movs	r3, #3
 800123c:	61bb      	str	r3, [r7, #24]
 800123e:	2303      	movs	r3, #3
 8001240:	61fb      	str	r3, [r7, #28]
 8001242:	e00d      	b.n	8001260 <configPin+0x280>
 8001244:	2300      	movs	r3, #0
 8001246:	61bb      	str	r3, [r7, #24]
 8001248:	2300      	movs	r3, #0
 800124a:	61fb      	str	r3, [r7, #28]
 800124c:	e008      	b.n	8001260 <configPin+0x280>
 800124e:	2300      	movs	r3, #0
 8001250:	61bb      	str	r3, [r7, #24]
 8001252:	2301      	movs	r3, #1
 8001254:	61fb      	str	r3, [r7, #28]
 8001256:	e003      	b.n	8001260 <configPin+0x280>
 8001258:	2300      	movs	r3, #0
 800125a:	61bb      	str	r3, [r7, #24]
 800125c:	2302      	movs	r3, #2
 800125e:	61fb      	str	r3, [r7, #28]
 8001260:	bf00      	nop
 8001262:	79bb      	ldrb	r3, [r7, #6]
 8001264:	2b07      	cmp	r3, #7
 8001266:	d81d      	bhi.n	80012a4 <configPin+0x2c4>
 8001268:	4b26      	ldr	r3, [pc, #152]	; (8001304 <configPin+0x324>)
 800126a:	681a      	ldr	r2, [r3, #0]
 800126c:	79bb      	ldrb	r3, [r7, #6]
 800126e:	009b      	lsls	r3, r3, #2
 8001270:	210f      	movs	r1, #15
 8001272:	fa01 f303 	lsl.w	r3, r1, r3
 8001276:	43db      	mvns	r3, r3
 8001278:	4013      	ands	r3, r2
 800127a:	617b      	str	r3, [r7, #20]
 800127c:	79bb      	ldrb	r3, [r7, #6]
 800127e:	009b      	lsls	r3, r3, #2
 8001280:	3302      	adds	r3, #2
 8001282:	69fa      	ldr	r2, [r7, #28]
 8001284:	409a      	lsls	r2, r3
 8001286:	79bb      	ldrb	r3, [r7, #6]
 8001288:	009b      	lsls	r3, r3, #2
 800128a:	69b9      	ldr	r1, [r7, #24]
 800128c:	fa01 f303 	lsl.w	r3, r1, r3
 8001290:	491c      	ldr	r1, [pc, #112]	; (8001304 <configPin+0x324>)
 8001292:	4313      	orrs	r3, r2
 8001294:	600b      	str	r3, [r1, #0]
 8001296:	4b1b      	ldr	r3, [pc, #108]	; (8001304 <configPin+0x324>)
 8001298:	681a      	ldr	r2, [r3, #0]
 800129a:	491a      	ldr	r1, [pc, #104]	; (8001304 <configPin+0x324>)
 800129c:	697b      	ldr	r3, [r7, #20]
 800129e:	4313      	orrs	r3, r2
 80012a0:	600b      	str	r3, [r1, #0]
 80012a2:	e021      	b.n	80012e8 <configPin+0x308>
 80012a4:	4b18      	ldr	r3, [pc, #96]	; (8001308 <configPin+0x328>)
 80012a6:	681a      	ldr	r2, [r3, #0]
 80012a8:	79bb      	ldrb	r3, [r7, #6]
 80012aa:	3b08      	subs	r3, #8
 80012ac:	009b      	lsls	r3, r3, #2
 80012ae:	210f      	movs	r1, #15
 80012b0:	fa01 f303 	lsl.w	r3, r1, r3
 80012b4:	43db      	mvns	r3, r3
 80012b6:	4013      	ands	r3, r2
 80012b8:	617b      	str	r3, [r7, #20]
 80012ba:	79bb      	ldrb	r3, [r7, #6]
 80012bc:	3b08      	subs	r3, #8
 80012be:	009b      	lsls	r3, r3, #2
 80012c0:	3302      	adds	r3, #2
 80012c2:	69fa      	ldr	r2, [r7, #28]
 80012c4:	409a      	lsls	r2, r3
 80012c6:	79bb      	ldrb	r3, [r7, #6]
 80012c8:	3b08      	subs	r3, #8
 80012ca:	009b      	lsls	r3, r3, #2
 80012cc:	69b9      	ldr	r1, [r7, #24]
 80012ce:	fa01 f303 	lsl.w	r3, r1, r3
 80012d2:	490d      	ldr	r1, [pc, #52]	; (8001308 <configPin+0x328>)
 80012d4:	4313      	orrs	r3, r2
 80012d6:	600b      	str	r3, [r1, #0]
 80012d8:	4b0b      	ldr	r3, [pc, #44]	; (8001308 <configPin+0x328>)
 80012da:	681a      	ldr	r2, [r3, #0]
 80012dc:	490a      	ldr	r1, [pc, #40]	; (8001308 <configPin+0x328>)
 80012de:	697b      	ldr	r3, [r7, #20]
 80012e0:	4313      	orrs	r3, r2
 80012e2:	600b      	str	r3, [r1, #0]
 80012e4:	e000      	b.n	80012e8 <configPin+0x308>
 80012e6:	bf00      	nop
 80012e8:	bf00      	nop
 80012ea:	3724      	adds	r7, #36	; 0x24
 80012ec:	46bd      	mov	sp, r7
 80012ee:	bc80      	pop	{r7}
 80012f0:	4770      	bx	lr
 80012f2:	bf00      	nop
 80012f4:	40010800 	andmi	r0, r1, r0, lsl #16
 80012f8:	40010804 	andmi	r0, r1, r4, lsl #16
 80012fc:	40010c00 	andmi	r0, r1, r0, lsl #24
 8001300:	40010c04 	andmi	r0, r1, r4, lsl #24
 8001304:	40011000 	andmi	r1, r1, r0
 8001308:	40011004 	andmi	r1, r1, r4

0800130c <setPin>:
 800130c:	b480      	push	{r7}
 800130e:	b085      	sub	sp, #20
 8001310:	af00      	add	r7, sp, #0
 8001312:	4603      	mov	r3, r0
 8001314:	71fb      	strb	r3, [r7, #7]
 8001316:	460b      	mov	r3, r1
 8001318:	71bb      	strb	r3, [r7, #6]
 800131a:	4613      	mov	r3, r2
 800131c:	717b      	strb	r3, [r7, #5]
 800131e:	79fb      	ldrb	r3, [r7, #7]
 8001320:	2b03      	cmp	r3, #3
 8001322:	d028      	beq.n	8001376 <setPin+0x6a>
 8001324:	2b03      	cmp	r3, #3
 8001326:	dc37      	bgt.n	8001398 <setPin+0x8c>
 8001328:	2b01      	cmp	r3, #1
 800132a:	d002      	beq.n	8001332 <setPin+0x26>
 800132c:	2b02      	cmp	r3, #2
 800132e:	d011      	beq.n	8001354 <setPin+0x48>
 8001330:	e032      	b.n	8001398 <setPin+0x8c>
 8001332:	4b1c      	ldr	r3, [pc, #112]	; (80013a4 <setPin+0x98>)
 8001334:	681a      	ldr	r2, [r3, #0]
 8001336:	79bb      	ldrb	r3, [r7, #6]
 8001338:	2101      	movs	r1, #1
 800133a:	fa01 f303 	lsl.w	r3, r1, r3
 800133e:	43db      	mvns	r3, r3
 8001340:	4013      	ands	r3, r2
 8001342:	60fb      	str	r3, [r7, #12]
 8001344:	797a      	ldrb	r2, [r7, #5]
 8001346:	79bb      	ldrb	r3, [r7, #6]
 8001348:	409a      	lsls	r2, r3
 800134a:	4916      	ldr	r1, [pc, #88]	; (80013a4 <setPin+0x98>)
 800134c:	68fb      	ldr	r3, [r7, #12]
 800134e:	4313      	orrs	r3, r2
 8001350:	600b      	str	r3, [r1, #0]
 8001352:	e022      	b.n	800139a <setPin+0x8e>
 8001354:	4b14      	ldr	r3, [pc, #80]	; (80013a8 <setPin+0x9c>)
 8001356:	681a      	ldr	r2, [r3, #0]
 8001358:	79bb      	ldrb	r3, [r7, #6]
 800135a:	2101      	movs	r1, #1
 800135c:	fa01 f303 	lsl.w	r3, r1, r3
 8001360:	43db      	mvns	r3, r3
 8001362:	4013      	ands	r3, r2
 8001364:	60fb      	str	r3, [r7, #12]
 8001366:	797a      	ldrb	r2, [r7, #5]
 8001368:	79bb      	ldrb	r3, [r7, #6]
 800136a:	409a      	lsls	r2, r3
 800136c:	490e      	ldr	r1, [pc, #56]	; (80013a8 <setPin+0x9c>)
 800136e:	68fb      	ldr	r3, [r7, #12]
 8001370:	4313      	orrs	r3, r2
 8001372:	600b      	str	r3, [r1, #0]
 8001374:	e011      	b.n	800139a <setPin+0x8e>
 8001376:	4b0d      	ldr	r3, [pc, #52]	; (80013ac <setPin+0xa0>)
 8001378:	681a      	ldr	r2, [r3, #0]
 800137a:	79bb      	ldrb	r3, [r7, #6]
 800137c:	2101      	movs	r1, #1
 800137e:	fa01 f303 	lsl.w	r3, r1, r3
 8001382:	43db      	mvns	r3, r3
 8001384:	4013      	ands	r3, r2
 8001386:	60fb      	str	r3, [r7, #12]
 8001388:	797a      	ldrb	r2, [r7, #5]
 800138a:	79bb      	ldrb	r3, [r7, #6]
 800138c:	409a      	lsls	r2, r3
 800138e:	4907      	ldr	r1, [pc, #28]	; (80013ac <setPin+0xa0>)
 8001390:	68fb      	ldr	r3, [r7, #12]
 8001392:	4313      	orrs	r3, r2
 8001394:	600b      	str	r3, [r1, #0]
 8001396:	e000      	b.n	800139a <setPin+0x8e>
 8001398:	bf00      	nop
 800139a:	bf00      	nop
 800139c:	3714      	adds	r7, #20
 800139e:	46bd      	mov	sp, r7
 80013a0:	bc80      	pop	{r7}
 80013a2:	4770      	bx	lr
 80013a4:	4001080c 	andmi	r0, r1, ip, lsl #16
 80013a8:	40010c0c 	andmi	r0, r1, ip, lsl #24
 80013ac:	4001100c 	andmi	r1, r1, ip

080013b0 <getTimerClockFreq>:
 80013b0:	b580      	push	{r7, lr}
 80013b2:	b088      	sub	sp, #32
 80013b4:	af00      	add	r7, sp, #0
 80013b6:	f7ff f9cd 	bl	8000754 <getClockFreq>
 80013ba:	6138      	str	r0, [r7, #16]
 80013bc:	4b23      	ldr	r3, [pc, #140]	; (800144c <getTimerClockFreq+0x9c>)
 80013be:	681b      	ldr	r3, [r3, #0]
 80013c0:	091b      	lsrs	r3, r3, #4
 80013c2:	f003 036f 	and.w	r3, r3, #111	; 0x6f
 80013c6:	60fb      	str	r3, [r7, #12]
 80013c8:	2301      	movs	r3, #1
 80013ca:	61fb      	str	r3, [r7, #28]
 80013cc:	2300      	movs	r3, #0
 80013ce:	76fb      	strb	r3, [r7, #27]
 80013d0:	e00b      	b.n	80013ea <getTimerClockFreq+0x3a>
 80013d2:	7efb      	ldrb	r3, [r7, #27]
 80013d4:	2b05      	cmp	r3, #5
 80013d6:	d102      	bne.n	80013de <getTimerClockFreq+0x2e>
 80013d8:	69fb      	ldr	r3, [r7, #28]
 80013da:	005b      	lsls	r3, r3, #1
 80013dc:	61fb      	str	r3, [r7, #28]
 80013de:	69fb      	ldr	r3, [r7, #28]
 80013e0:	005b      	lsls	r3, r3, #1
 80013e2:	61fb      	str	r3, [r7, #28]
 80013e4:	7efb      	ldrb	r3, [r7, #27]
 80013e6:	3301      	adds	r3, #1
 80013e8:	76fb      	strb	r3, [r7, #27]
 80013ea:	7efb      	ldrb	r3, [r7, #27]
 80013ec:	68fa      	ldr	r2, [r7, #12]
 80013ee:	429a      	cmp	r2, r3
 80013f0:	d8ef      	bhi.n	80013d2 <getTimerClockFreq+0x22>
 80013f2:	693a      	ldr	r2, [r7, #16]
 80013f4:	69fb      	ldr	r3, [r7, #28]
 80013f6:	fbb2 f3f3 	udiv	r3, r2, r3
 80013fa:	60bb      	str	r3, [r7, #8]
 80013fc:	4b13      	ldr	r3, [pc, #76]	; (800144c <getTimerClockFreq+0x9c>)
 80013fe:	681b      	ldr	r3, [r3, #0]
 8001400:	0a1b      	lsrs	r3, r3, #8
 8001402:	b29a      	uxth	r2, r3
 8001404:	f240 4357 	movw	r3, #1111	; 0x457
 8001408:	4013      	ands	r3, r2
 800140a:	80fb      	strh	r3, [r7, #6]
 800140c:	2301      	movs	r3, #1
 800140e:	833b      	strh	r3, [r7, #24]
 8001410:	2300      	movs	r3, #0
 8001412:	75fb      	strb	r3, [r7, #23]
 8001414:	e005      	b.n	8001422 <getTimerClockFreq+0x72>
 8001416:	8b3b      	ldrh	r3, [r7, #24]
 8001418:	005b      	lsls	r3, r3, #1
 800141a:	833b      	strh	r3, [r7, #24]
 800141c:	7dfb      	ldrb	r3, [r7, #23]
 800141e:	3301      	adds	r3, #1
 8001420:	75fb      	strb	r3, [r7, #23]
 8001422:	7dfb      	ldrb	r3, [r7, #23]
 8001424:	b29b      	uxth	r3, r3
 8001426:	88fa      	ldrh	r2, [r7, #6]
 8001428:	429a      	cmp	r2, r3
 800142a:	d8f4      	bhi.n	8001416 <getTimerClockFreq+0x66>
 800142c:	8b3b      	ldrh	r3, [r7, #24]
 800142e:	68ba      	ldr	r2, [r7, #8]
 8001430:	fbb2 f3f3 	udiv	r3, r2, r3
 8001434:	603b      	str	r3, [r7, #0]
 8001436:	8b3b      	ldrh	r3, [r7, #24]
 8001438:	2b01      	cmp	r3, #1
 800143a:	d101      	bne.n	8001440 <getTimerClockFreq+0x90>
 800143c:	683b      	ldr	r3, [r7, #0]
 800143e:	e001      	b.n	8001444 <getTimerClockFreq+0x94>
 8001440:	683b      	ldr	r3, [r7, #0]
 8001442:	005b      	lsls	r3, r3, #1
 8001444:	4618      	mov	r0, r3
 8001446:	3720      	adds	r7, #32
 8001448:	46bd      	mov	sp, r7
 800144a:	bd80      	pop	{r7, pc}
 800144c:	40021004 	andmi	r1, r2, r4

08001450 <setPWM>:
 8001450:	b580      	push	{r7, lr}
 8001452:	b086      	sub	sp, #24
 8001454:	af00      	add	r7, sp, #0
 8001456:	6078      	str	r0, [r7, #4]
 8001458:	f04f 4380 	mov.w	r3, #1073741824	; 0x40000000
 800145c:	2280      	movs	r2, #128	; 0x80
 800145e:	601a      	str	r2, [r3, #0]
 8001460:	4b1b      	ldr	r3, [pc, #108]	; (80014d0 <setPWM+0x80>)
 8001462:	f44f 22df 	mov.w	r2, #456704	; 0x6f800
 8001466:	601a      	str	r2, [r3, #0]
 8001468:	4b1a      	ldr	r3, [pc, #104]	; (80014d4 <setPWM+0x84>)
 800146a:	2230      	movs	r2, #48	; 0x30
 800146c:	601a      	str	r2, [r3, #0]
 800146e:	f640 73ff 	movw	r3, #4095	; 0xfff
 8001472:	82fb      	strh	r3, [r7, #22]
 8001474:	8afb      	ldrh	r3, [r7, #22]
 8001476:	1e5a      	subs	r2, r3, #1
 8001478:	4b17      	ldr	r3, [pc, #92]	; (80014d8 <setPWM+0x88>)
 800147a:	601a      	str	r2, [r3, #0]
 800147c:	f7ff ff98 	bl	80013b0 <getTimerClockFreq>
 8001480:	6138      	str	r0, [r7, #16]
 8001482:	693b      	ldr	r3, [r7, #16]
 8001484:	f44f 727a 	mov.w	r2, #1000	; 0x3e8
 8001488:	fb03 f202 	mul.w	r2, r3, r2
 800148c:	8afb      	ldrh	r3, [r7, #22]
 800148e:	fbb2 f2f3 	udiv	r2, r2, r3
 8001492:	687b      	ldr	r3, [r7, #4]
 8001494:	fbb2 f3f3 	udiv	r3, r2, r3
 8001498:	60fb      	str	r3, [r7, #12]
 800149a:	4a10      	ldr	r2, [pc, #64]	; (80014dc <setPWM+0x8c>)
 800149c:	68fb      	ldr	r3, [r7, #12]
 800149e:	6013      	str	r3, [r2, #0]
 80014a0:	4a0f      	ldr	r2, [pc, #60]	; (80014e0 <setPWM+0x90>)
 80014a2:	68fb      	ldr	r3, [r7, #12]
 80014a4:	085b      	lsrs	r3, r3, #1
 80014a6:	6013      	str	r3, [r2, #0]
 80014a8:	4b0e      	ldr	r3, [pc, #56]	; (80014e4 <setPWM+0x94>)
 80014aa:	2201      	movs	r2, #1
 80014ac:	601a      	str	r2, [r3, #0]
 80014ae:	4b0e      	ldr	r3, [pc, #56]	; (80014e8 <setPWM+0x98>)
 80014b0:	681b      	ldr	r3, [r3, #0]
 80014b2:	4b0d      	ldr	r3, [pc, #52]	; (80014e8 <setPWM+0x98>)
 80014b4:	2200      	movs	r2, #0
 80014b6:	601a      	str	r2, [r3, #0]
 80014b8:	f04f 4380 	mov.w	r3, #1073741824	; 0x40000000
 80014bc:	681b      	ldr	r3, [r3, #0]
 80014be:	f04f 4280 	mov.w	r2, #1073741824	; 0x40000000
 80014c2:	f043 0301 	orr.w	r3, r3, #1
 80014c6:	6013      	str	r3, [r2, #0]
 80014c8:	bf00      	nop
 80014ca:	3718      	adds	r7, #24
 80014cc:	46bd      	mov	sp, r7
 80014ce:	bd80      	pop	{r7, pc}
 80014d0:	40000018 	andmi	r0, r0, r8, lsl r0
 80014d4:	40000020 	andmi	r0, r0, r0, lsr #32
 80014d8:	40000028 	andmi	r0, r0, r8, lsr #32
 80014dc:	4000002c 	andmi	r0, r0, ip, lsr #32
 80014e0:	40000038 	andmi	r0, r0, r8, lsr r0
 80014e4:	40000014 	andmi	r0, r0, r4, lsl r0
 80014e8:	40000010 	andmi	r0, r0, r0, lsl r0

080014ec <setTimer>:
 80014ec:	b480      	push	{r7}
 80014ee:	b085      	sub	sp, #20
 80014f0:	af00      	add	r7, sp, #0
 80014f2:	60f8      	str	r0, [r7, #12]
 80014f4:	60b9      	str	r1, [r7, #8]
 80014f6:	607a      	str	r2, [r7, #4]
 80014f8:	603b      	str	r3, [r7, #0]
 80014fa:	68fb      	ldr	r3, [r7, #12]
 80014fc:	4a4d      	ldr	r2, [pc, #308]	; (8001634 <setTimer+0x148>)
 80014fe:	4293      	cmp	r3, r2
 8001500:	d073      	beq.n	80015ea <setTimer+0xfe>
 8001502:	68fb      	ldr	r3, [r7, #12]
 8001504:	4a4b      	ldr	r2, [pc, #300]	; (8001634 <setTimer+0x148>)
 8001506:	4293      	cmp	r3, r2
 8001508:	f200 808d 	bhi.w	8001626 <setTimer+0x13a>
 800150c:	68fb      	ldr	r3, [r7, #12]
 800150e:	4a4a      	ldr	r2, [pc, #296]	; (8001638 <setTimer+0x14c>)
 8001510:	4293      	cmp	r3, r2
 8001512:	d04c      	beq.n	80015ae <setTimer+0xc2>
 8001514:	68fb      	ldr	r3, [r7, #12]
 8001516:	4a48      	ldr	r2, [pc, #288]	; (8001638 <setTimer+0x14c>)
 8001518:	4293      	cmp	r3, r2
 800151a:	f200 8084 	bhi.w	8001626 <setTimer+0x13a>
 800151e:	68fb      	ldr	r3, [r7, #12]
 8001520:	f1b3 4f80 	cmp.w	r3, #1073741824	; 0x40000000
 8001524:	d004      	beq.n	8001530 <setTimer+0x44>
 8001526:	68fb      	ldr	r3, [r7, #12]
 8001528:	4a44      	ldr	r2, [pc, #272]	; (800163c <setTimer+0x150>)
 800152a:	4293      	cmp	r3, r2
 800152c:	d021      	beq.n	8001572 <setTimer+0x86>
 800152e:	e07a      	b.n	8001626 <setTimer+0x13a>
 8001530:	4a43      	ldr	r2, [pc, #268]	; (8001640 <setTimer+0x154>)
 8001532:	68bb      	ldr	r3, [r7, #8]
 8001534:	6013      	str	r3, [r2, #0]
 8001536:	4a43      	ldr	r2, [pc, #268]	; (8001644 <setTimer+0x158>)
 8001538:	687b      	ldr	r3, [r7, #4]
 800153a:	6013      	str	r3, [r2, #0]
 800153c:	683b      	ldr	r3, [r7, #0]
 800153e:	011b      	lsls	r3, r3, #4
 8001540:	f04f 4280 	mov.w	r2, #1073741824	; 0x40000000
 8001544:	f043 0380 	orr.w	r3, r3, #128	; 0x80
 8001548:	6013      	str	r3, [r2, #0]
 800154a:	4b3f      	ldr	r3, [pc, #252]	; (8001648 <setTimer+0x15c>)
 800154c:	2201      	movs	r2, #1
 800154e:	601a      	str	r2, [r3, #0]
 8001550:	4b3e      	ldr	r3, [pc, #248]	; (800164c <setTimer+0x160>)
 8001552:	681b      	ldr	r3, [r3, #0]
 8001554:	4b3d      	ldr	r3, [pc, #244]	; (800164c <setTimer+0x160>)
 8001556:	2200      	movs	r2, #0
 8001558:	601a      	str	r2, [r3, #0]
 800155a:	f04f 4380 	mov.w	r3, #1073741824	; 0x40000000
 800155e:	681b      	ldr	r3, [r3, #0]
 8001560:	f04f 4280 	mov.w	r2, #1073741824	; 0x40000000
 8001564:	f043 0301 	orr.w	r3, r3, #1
 8001568:	6013      	str	r3, [r2, #0]
 800156a:	4a39      	ldr	r2, [pc, #228]	; (8001650 <setTimer+0x164>)
 800156c:	69bb      	ldr	r3, [r7, #24]
 800156e:	6013      	str	r3, [r2, #0]
 8001570:	e05a      	b.n	8001628 <setTimer+0x13c>
 8001572:	4a38      	ldr	r2, [pc, #224]	; (8001654 <setTimer+0x168>)
 8001574:	68bb      	ldr	r3, [r7, #8]
 8001576:	6013      	str	r3, [r2, #0]
 8001578:	4a37      	ldr	r2, [pc, #220]	; (8001658 <setTimer+0x16c>)
 800157a:	687b      	ldr	r3, [r7, #4]
 800157c:	6013      	str	r3, [r2, #0]
 800157e:	683b      	ldr	r3, [r7, #0]
 8001580:	011b      	lsls	r3, r3, #4
 8001582:	4a2e      	ldr	r2, [pc, #184]	; (800163c <setTimer+0x150>)
 8001584:	f043 0380 	orr.w	r3, r3, #128	; 0x80
 8001588:	6013      	str	r3, [r2, #0]
 800158a:	4b34      	ldr	r3, [pc, #208]	; (800165c <setTimer+0x170>)
 800158c:	2201      	movs	r2, #1
 800158e:	601a      	str	r2, [r3, #0]
 8001590:	4b33      	ldr	r3, [pc, #204]	; (8001660 <setTimer+0x174>)
 8001592:	681b      	ldr	r3, [r3, #0]
 8001594:	4b32      	ldr	r3, [pc, #200]	; (8001660 <setTimer+0x174>)
 8001596:	2200      	movs	r2, #0
 8001598:	601a      	str	r2, [r3, #0]
 800159a:	4b28      	ldr	r3, [pc, #160]	; (800163c <setTimer+0x150>)
 800159c:	681b      	ldr	r3, [r3, #0]
 800159e:	4a27      	ldr	r2, [pc, #156]	; (800163c <setTimer+0x150>)
 80015a0:	f043 0301 	orr.w	r3, r3, #1
 80015a4:	6013      	str	r3, [r2, #0]
 80015a6:	4a2f      	ldr	r2, [pc, #188]	; (8001664 <setTimer+0x178>)
 80015a8:	69bb      	ldr	r3, [r7, #24]
 80015aa:	6013      	str	r3, [r2, #0]
 80015ac:	e03c      	b.n	8001628 <setTimer+0x13c>
 80015ae:	4a2e      	ldr	r2, [pc, #184]	; (8001668 <setTimer+0x17c>)
 80015b0:	68bb      	ldr	r3, [r7, #8]
 80015b2:	6013      	str	r3, [r2, #0]
 80015b4:	4a2d      	ldr	r2, [pc, #180]	; (800166c <setTimer+0x180>)
 80015b6:	687b      	ldr	r3, [r7, #4]
 80015b8:	6013      	str	r3, [r2, #0]
 80015ba:	683b      	ldr	r3, [r7, #0]
 80015bc:	011b      	lsls	r3, r3, #4
 80015be:	4a1e      	ldr	r2, [pc, #120]	; (8001638 <setTimer+0x14c>)
 80015c0:	f043 0380 	orr.w	r3, r3, #128	; 0x80
 80015c4:	6013      	str	r3, [r2, #0]
 80015c6:	4b2a      	ldr	r3, [pc, #168]	; (8001670 <setTimer+0x184>)
 80015c8:	2201      	movs	r2, #1
 80015ca:	601a      	str	r2, [r3, #0]
 80015cc:	4b29      	ldr	r3, [pc, #164]	; (8001674 <setTimer+0x188>)
 80015ce:	681b      	ldr	r3, [r3, #0]
 80015d0:	4b28      	ldr	r3, [pc, #160]	; (8001674 <setTimer+0x188>)
 80015d2:	2200      	movs	r2, #0
 80015d4:	601a      	str	r2, [r3, #0]
 80015d6:	4b18      	ldr	r3, [pc, #96]	; (8001638 <setTimer+0x14c>)
 80015d8:	681b      	ldr	r3, [r3, #0]
 80015da:	4a17      	ldr	r2, [pc, #92]	; (8001638 <setTimer+0x14c>)
 80015dc:	f043 0301 	orr.w	r3, r3, #1
 80015e0:	6013      	str	r3, [r2, #0]
 80015e2:	4a25      	ldr	r2, [pc, #148]	; (8001678 <setTimer+0x18c>)
 80015e4:	69bb      	ldr	r3, [r7, #24]
 80015e6:	6013      	str	r3, [r2, #0]
 80015e8:	e01e      	b.n	8001628 <setTimer+0x13c>
 80015ea:	4a24      	ldr	r2, [pc, #144]	; (800167c <setTimer+0x190>)
 80015ec:	68bb      	ldr	r3, [r7, #8]
 80015ee:	6013      	str	r3, [r2, #0]
 80015f0:	4a23      	ldr	r2, [pc, #140]	; (8001680 <setTimer+0x194>)
 80015f2:	687b      	ldr	r3, [r7, #4]
 80015f4:	6013      	str	r3, [r2, #0]
 80015f6:	683b      	ldr	r3, [r7, #0]
 80015f8:	011b      	lsls	r3, r3, #4
 80015fa:	4a0e      	ldr	r2, [pc, #56]	; (8001634 <setTimer+0x148>)
 80015fc:	f043 0380 	orr.w	r3, r3, #128	; 0x80
 8001600:	6013      	str	r3, [r2, #0]
 8001602:	4b20      	ldr	r3, [pc, #128]	; (8001684 <setTimer+0x198>)
 8001604:	2201      	movs	r2, #1
 8001606:	601a      	str	r2, [r3, #0]
 8001608:	4b1f      	ldr	r3, [pc, #124]	; (8001688 <setTimer+0x19c>)
 800160a:	681b      	ldr	r3, [r3, #0]
 800160c:	4b1e      	ldr	r3, [pc, #120]	; (8001688 <setTimer+0x19c>)
 800160e:	2200      	movs	r2, #0
 8001610:	601a      	str	r2, [r3, #0]
 8001612:	4b08      	ldr	r3, [pc, #32]	; (8001634 <setTimer+0x148>)
 8001614:	681b      	ldr	r3, [r3, #0]
 8001616:	4a07      	ldr	r2, [pc, #28]	; (8001634 <setTimer+0x148>)
 8001618:	f043 0301 	orr.w	r3, r3, #1
 800161c:	6013      	str	r3, [r2, #0]
 800161e:	4a1b      	ldr	r2, [pc, #108]	; (800168c <setTimer+0x1a0>)
 8001620:	69bb      	ldr	r3, [r7, #24]
 8001622:	6013      	str	r3, [r2, #0]
 8001624:	e000      	b.n	8001628 <setTimer+0x13c>
 8001626:	bf00      	nop
 8001628:	bf00      	nop
 800162a:	3714      	adds	r7, #20
 800162c:	46bd      	mov	sp, r7
 800162e:	bc80      	pop	{r7}
 8001630:	4770      	bx	lr
 8001632:	bf00      	nop
 8001634:	40000c00 	andmi	r0, r0, r0, lsl #24
 8001638:	40000800 	andmi	r0, r0, r0, lsl #16
 800163c:	40000400 	andmi	r0, r0, r0, lsl #8
 8001640:	4000002c 	andmi	r0, r0, ip, lsr #32
 8001644:	40000028 	andmi	r0, r0, r8, lsr #32
 8001648:	40000014 	andmi	r0, r0, r4, lsl r0
 800164c:	40000010 	andmi	r0, r0, r0, lsl r0
 8001650:	4000000c 	andmi	r0, r0, ip
 8001654:	4000042c 	andmi	r0, r0, ip, lsr #8
 8001658:	40000428 	andmi	r0, r0, r8, lsr #8
 800165c:	40000414 	andmi	r0, r0, r4, lsl r4
 8001660:	40000410 	andmi	r0, r0, r0, lsl r4
 8001664:	4000040c 	andmi	r0, r0, ip, lsl #8
 8001668:	4000082c 	andmi	r0, r0, ip, lsr #16
 800166c:	40000828 	andmi	r0, r0, r8, lsr #16
 8001670:	40000814 	andmi	r0, r0, r4, lsl r8
 8001674:	40000810 	andmi	r0, r0, r0, lsl r8
 8001678:	4000080c 	andmi	r0, r0, ip, lsl #16
 800167c:	40000c2c 	andmi	r0, r0, ip, lsr #24
 8001680:	40000c28 	andmi	r0, r0, r8, lsr #24
 8001684:	40000c14 	andmi	r0, r0, r4, lsl ip
 8001688:	40000c10 	andmi	r0, r0, r0, lsl ip
 800168c:	40000c0c 	andmi	r0, r0, ip, lsl #24

08001690 <startUSART>:
 8001690:	b580      	push	{r7, lr}
 8001692:	b088      	sub	sp, #32
 8001694:	af00      	add	r7, sp, #0
 8001696:	6078      	str	r0, [r7, #4]
 8001698:	2202      	movs	r2, #2
 800169a:	2102      	movs	r1, #2
 800169c:	2001      	movs	r0, #1
 800169e:	f7ff fc9f 	bl	8000fe0 <configPin>
 80016a2:	2206      	movs	r2, #6
 80016a4:	2103      	movs	r1, #3
 80016a6:	2001      	movs	r0, #1
 80016a8:	f7ff fc9a 	bl	8000fe0 <configPin>
 80016ac:	4b2c      	ldr	r3, [pc, #176]	; (8001760 <startUSART+0xd0>)
 80016ae:	f44f 5200 	mov.w	r2, #8192	; 0x2000
 80016b2:	601a      	str	r2, [r3, #0]
 80016b4:	4b2b      	ldr	r3, [pc, #172]	; (8001764 <startUSART+0xd4>)
 80016b6:	2200      	movs	r2, #0
 80016b8:	601a      	str	r2, [r3, #0]
 80016ba:	f7ff f84b 	bl	8000754 <getClockFreq>
 80016be:	4603      	mov	r3, r0
 80016c0:	f44f 727a 	mov.w	r2, #1000	; 0x3e8
 80016c4:	fb02 f303 	mul.w	r3, r2, r3
 80016c8:	61fb      	str	r3, [r7, #28]
 80016ca:	4b27      	ldr	r3, [pc, #156]	; (8001768 <startUSART+0xd8>)
 80016cc:	681b      	ldr	r3, [r3, #0]
 80016ce:	091b      	lsrs	r3, r3, #4
 80016d0:	f003 030f 	and.w	r3, r3, #15
 80016d4:	61bb      	str	r3, [r7, #24]
 80016d6:	69bb      	ldr	r3, [r7, #24]
 80016d8:	091b      	lsrs	r3, r3, #4
 80016da:	2b01      	cmp	r3, #1
 80016dc:	d116      	bne.n	800170c <startUSART+0x7c>
 80016de:	69bb      	ldr	r3, [r7, #24]
 80016e0:	f003 0307 	and.w	r3, r3, #7
 80016e4:	61bb      	str	r3, [r7, #24]
 80016e6:	2300      	movs	r3, #0
 80016e8:	75fb      	strb	r3, [r7, #23]
 80016ea:	e00b      	b.n	8001704 <startUSART+0x74>
 80016ec:	7dfb      	ldrb	r3, [r7, #23]
 80016ee:	2b04      	cmp	r3, #4
 80016f0:	d102      	bne.n	80016f8 <startUSART+0x68>
 80016f2:	69fb      	ldr	r3, [r7, #28]
 80016f4:	085b      	lsrs	r3, r3, #1
 80016f6:	61fb      	str	r3, [r7, #28]
 80016f8:	69fb      	ldr	r3, [r7, #28]
 80016fa:	085b      	lsrs	r3, r3, #1
 80016fc:	61fb      	str	r3, [r7, #28]
 80016fe:	7dfb      	ldrb	r3, [r7, #23]
 8001700:	3301      	adds	r3, #1
 8001702:	75fb      	strb	r3, [r7, #23]
 8001704:	7dfb      	ldrb	r3, [r7, #23]
 8001706:	69ba      	ldr	r2, [r7, #24]
 8001708:	429a      	cmp	r2, r3
 800170a:	d8ef      	bhi.n	80016ec <startUSART+0x5c>
 800170c:	4b16      	ldr	r3, [pc, #88]	; (8001768 <startUSART+0xd8>)
 800170e:	681b      	ldr	r3, [r3, #0]
 8001710:	0a1b      	lsrs	r3, r3, #8
 8001712:	f003 0307 	and.w	r3, r3, #7
 8001716:	613b      	str	r3, [r7, #16]
 8001718:	69bb      	ldr	r3, [r7, #24]
 800171a:	091b      	lsrs	r3, r3, #4
 800171c:	2b01      	cmp	r3, #1
 800171e:	d110      	bne.n	8001742 <startUSART+0xb2>
 8001720:	69bb      	ldr	r3, [r7, #24]
 8001722:	f003 0307 	and.w	r3, r3, #7
 8001726:	61bb      	str	r3, [r7, #24]
 8001728:	2300      	movs	r3, #0
 800172a:	75bb      	strb	r3, [r7, #22]
 800172c:	e005      	b.n	800173a <startUSART+0xaa>
 800172e:	69fb      	ldr	r3, [r7, #28]
 8001730:	085b      	lsrs	r3, r3, #1
 8001732:	61fb      	str	r3, [r7, #28]
 8001734:	7dbb      	ldrb	r3, [r7, #22]
 8001736:	3301      	adds	r3, #1
 8001738:	75bb      	strb	r3, [r7, #22]
 800173a:	7dbb      	ldrb	r3, [r7, #22]
 800173c:	693a      	ldr	r2, [r7, #16]
 800173e:	429a      	cmp	r2, r3
 8001740:	d8f5      	bhi.n	800172e <startUSART+0x9e>
 8001742:	69fb      	ldr	r3, [r7, #28]
 8001744:	011a      	lsls	r2, r3, #4
 8001746:	687b      	ldr	r3, [r7, #4]
 8001748:	fbb2 f3f3 	udiv	r3, r2, r3
 800174c:	60fb      	str	r3, [r7, #12]
 800174e:	4a07      	ldr	r2, [pc, #28]	; (800176c <startUSART+0xdc>)
 8001750:	68fb      	ldr	r3, [r7, #12]
 8001752:	011b      	lsls	r3, r3, #4
 8001754:	6013      	str	r3, [r2, #0]
 8001756:	bf00      	nop
 8001758:	3720      	adds	r7, #32
 800175a:	46bd      	mov	sp, r7
 800175c:	bd80      	pop	{r7, pc}
 800175e:	bf00      	nop
 8001760:	4000440c 	andmi	r4, r0, ip, lsl #8
 8001764:	40004410 	andmi	r4, r0, r0, lsl r4
 8001768:	40021004 	andmi	r1, r2, r4
 800176c:	40004408 	andmi	r4, r0, r8, lsl #8

08001770 <startUSARTTransmission>:
 8001770:	b480      	push	{r7}
 8001772:	af00      	add	r7, sp, #0
 8001774:	4b07      	ldr	r3, [pc, #28]	; (8001794 <startUSARTTransmission+0x24>)
 8001776:	681b      	ldr	r3, [r3, #0]
 8001778:	4a06      	ldr	r2, [pc, #24]	; (8001794 <startUSARTTransmission+0x24>)
 800177a:	f023 0308 	bic.w	r3, r3, #8
 800177e:	6013      	str	r3, [r2, #0]
 8001780:	4b04      	ldr	r3, [pc, #16]	; (8001794 <startUSARTTransmission+0x24>)
 8001782:	681b      	ldr	r3, [r3, #0]
 8001784:	4a03      	ldr	r2, [pc, #12]	; (8001794 <startUSARTTransmission+0x24>)
 8001786:	f043 0308 	orr.w	r3, r3, #8
 800178a:	6013      	str	r3, [r2, #0]
 800178c:	bf00      	nop
 800178e:	46bd      	mov	sp, r7
 8001790:	bc80      	pop	{r7}
 8001792:	4770      	bx	lr
 8001794:	4000440c 	andmi	r4, r0, ip, lsl #8

08001798 <sendByteViaUSART>:
 8001798:	b480      	push	{r7}
 800179a:	b083      	sub	sp, #12
 800179c:	af00      	add	r7, sp, #0
 800179e:	4603      	mov	r3, r0
 80017a0:	71fb      	strb	r3, [r7, #7]
 80017a2:	4a04      	ldr	r2, [pc, #16]	; (80017b4 <sendByteViaUSART+0x1c>)
 80017a4:	79fb      	ldrb	r3, [r7, #7]
 80017a6:	6013      	str	r3, [r2, #0]
 80017a8:	bf00      	nop
 80017aa:	370c      	adds	r7, #12
 80017ac:	46bd      	mov	sp, r7
 80017ae:	bc80      	pop	{r7}
 80017b0:	4770      	bx	lr
 80017b2:	bf00      	nop
 80017b4:	40004404 	andmi	r4, r0, r4, lsl #8

080017b8 <empty>:
 80017b8:	b480      	push	{r7}
 80017ba:	af00      	add	r7, sp, #0
 80017bc:	4b05      	ldr	r3, [pc, #20]	; (80017d4 <empty+0x1c>)
 80017be:	681b      	ldr	r3, [r3, #0]
 80017c0:	2b00      	cmp	r3, #0
 80017c2:	d101      	bne.n	80017c8 <empty+0x10>
 80017c4:	2301      	movs	r3, #1
 80017c6:	e000      	b.n	80017ca <empty+0x12>
 80017c8:	2300      	movs	r3, #0
 80017ca:	4618      	mov	r0, r3
 80017cc:	46bd      	mov	sp, r7
 80017ce:	bc80      	pop	{r7}
 80017d0:	4770      	bx	lr
 80017d2:	bf00      	nop
 80017d4:	20000028 	andcs	r0, r0, r8, lsr #32

080017d8 <addPCB>:
 80017d8:	b580      	push	{r7, lr}
 80017da:	b082      	sub	sp, #8
 80017dc:	af00      	add	r7, sp, #0
 80017de:	6078      	str	r0, [r7, #4]
 80017e0:	f7ff ffea 	bl	80017b8 <empty>
 80017e4:	4603      	mov	r3, r0
 80017e6:	2b01      	cmp	r3, #1
 80017e8:	d110      	bne.n	800180c <addPCB+0x34>
 80017ea:	4a18      	ldr	r2, [pc, #96]	; (800184c <addPCB+0x74>)
 80017ec:	687b      	ldr	r3, [r7, #4]
 80017ee:	6013      	str	r3, [r2, #0]
 80017f0:	4a17      	ldr	r2, [pc, #92]	; (8001850 <addPCB+0x78>)
 80017f2:	687b      	ldr	r3, [r7, #4]
 80017f4:	6013      	str	r3, [r2, #0]
 80017f6:	4b15      	ldr	r3, [pc, #84]	; (800184c <addPCB+0x74>)
 80017f8:	681b      	ldr	r3, [r3, #0]
 80017fa:	4a15      	ldr	r2, [pc, #84]	; (8001850 <addPCB+0x78>)
 80017fc:	6812      	ldr	r2, [r2, #0]
 80017fe:	609a      	str	r2, [r3, #8]
 8001800:	4b13      	ldr	r3, [pc, #76]	; (8001850 <addPCB+0x78>)
 8001802:	681b      	ldr	r3, [r3, #0]
 8001804:	4a11      	ldr	r2, [pc, #68]	; (800184c <addPCB+0x74>)
 8001806:	6812      	ldr	r2, [r2, #0]
 8001808:	605a      	str	r2, [r3, #4]
 800180a:	e01a      	b.n	8001842 <addPCB+0x6a>
 800180c:	4b10      	ldr	r3, [pc, #64]	; (8001850 <addPCB+0x78>)
 800180e:	681b      	ldr	r3, [r3, #0]
 8001810:	4a10      	ldr	r2, [pc, #64]	; (8001854 <addPCB+0x7c>)
 8001812:	6013      	str	r3, [r2, #0]
 8001814:	4a0e      	ldr	r2, [pc, #56]	; (8001850 <addPCB+0x78>)
 8001816:	687b      	ldr	r3, [r7, #4]
 8001818:	6013      	str	r3, [r2, #0]
 800181a:	4b0d      	ldr	r3, [pc, #52]	; (8001850 <addPCB+0x78>)
 800181c:	681b      	ldr	r3, [r3, #0]
 800181e:	4a0d      	ldr	r2, [pc, #52]	; (8001854 <addPCB+0x7c>)
 8001820:	6812      	ldr	r2, [r2, #0]
 8001822:	609a      	str	r2, [r3, #8]
 8001824:	4b0a      	ldr	r3, [pc, #40]	; (8001850 <addPCB+0x78>)
 8001826:	681b      	ldr	r3, [r3, #0]
 8001828:	4a08      	ldr	r2, [pc, #32]	; (800184c <addPCB+0x74>)
 800182a:	6812      	ldr	r2, [r2, #0]
 800182c:	605a      	str	r2, [r3, #4]
 800182e:	4b07      	ldr	r3, [pc, #28]	; (800184c <addPCB+0x74>)
 8001830:	681b      	ldr	r3, [r3, #0]
 8001832:	4a07      	ldr	r2, [pc, #28]	; (8001850 <addPCB+0x78>)
 8001834:	6812      	ldr	r2, [r2, #0]
 8001836:	609a      	str	r2, [r3, #8]
 8001838:	4b06      	ldr	r3, [pc, #24]	; (8001854 <addPCB+0x7c>)
 800183a:	681b      	ldr	r3, [r3, #0]
 800183c:	4a04      	ldr	r2, [pc, #16]	; (8001850 <addPCB+0x78>)
 800183e:	6812      	ldr	r2, [r2, #0]
 8001840:	605a      	str	r2, [r3, #4]
 8001842:	bf00      	nop
 8001844:	3708      	adds	r7, #8
 8001846:	46bd      	mov	sp, r7
 8001848:	bd80      	pop	{r7, pc}
 800184a:	bf00      	nop
 800184c:	20000028 	andcs	r0, r0, r8, lsr #32
 8001850:	2000002c 	andcs	r0, r0, ip, lsr #32
 8001854:	20000030 	andcs	r0, r0, r0, lsr r0

08001858 <removePCB>:
 8001858:	b480      	push	{r7}
 800185a:	b085      	sub	sp, #20
 800185c:	af00      	add	r7, sp, #0
 800185e:	6078      	str	r0, [r7, #4]
 8001860:	4b1f      	ldr	r3, [pc, #124]	; (80018e0 <removePCB+0x88>)
 8001862:	681b      	ldr	r3, [r3, #0]
 8001864:	687a      	ldr	r2, [r7, #4]
 8001866:	429a      	cmp	r2, r3
 8001868:	d114      	bne.n	8001894 <removePCB+0x3c>
 800186a:	687b      	ldr	r3, [r7, #4]
 800186c:	685b      	ldr	r3, [r3, #4]
 800186e:	4a1c      	ldr	r2, [pc, #112]	; (80018e0 <removePCB+0x88>)
 8001870:	6013      	str	r3, [r2, #0]
 8001872:	687b      	ldr	r3, [r7, #4]
 8001874:	685a      	ldr	r2, [r3, #4]
 8001876:	4b1a      	ldr	r3, [pc, #104]	; (80018e0 <removePCB+0x88>)
 8001878:	681b      	ldr	r3, [r3, #0]
 800187a:	6852      	ldr	r2, [r2, #4]
 800187c:	605a      	str	r2, [r3, #4]
 800187e:	4b18      	ldr	r3, [pc, #96]	; (80018e0 <removePCB+0x88>)
 8001880:	681b      	ldr	r3, [r3, #0]
 8001882:	4a18      	ldr	r2, [pc, #96]	; (80018e4 <removePCB+0x8c>)
 8001884:	6812      	ldr	r2, [r2, #0]
 8001886:	609a      	str	r2, [r3, #8]
 8001888:	4b16      	ldr	r3, [pc, #88]	; (80018e4 <removePCB+0x8c>)
 800188a:	681b      	ldr	r3, [r3, #0]
 800188c:	4a14      	ldr	r2, [pc, #80]	; (80018e0 <removePCB+0x88>)
 800188e:	6812      	ldr	r2, [r2, #0]
 8001890:	605a      	str	r2, [r3, #4]
 8001892:	e020      	b.n	80018d6 <removePCB+0x7e>
 8001894:	4b13      	ldr	r3, [pc, #76]	; (80018e4 <removePCB+0x8c>)
 8001896:	681b      	ldr	r3, [r3, #0]
 8001898:	687a      	ldr	r2, [r7, #4]
 800189a:	429a      	cmp	r2, r3
 800189c:	d10f      	bne.n	80018be <removePCB+0x66>
 800189e:	687b      	ldr	r3, [r7, #4]
 80018a0:	689b      	ldr	r3, [r3, #8]
 80018a2:	4a10      	ldr	r2, [pc, #64]	; (80018e4 <removePCB+0x8c>)
 80018a4:	6013      	str	r3, [r2, #0]
 80018a6:	4b0f      	ldr	r3, [pc, #60]	; (80018e4 <removePCB+0x8c>)
 80018a8:	681b      	ldr	r3, [r3, #0]
 80018aa:	4a0d      	ldr	r2, [pc, #52]	; (80018e0 <removePCB+0x88>)
 80018ac:	6812      	ldr	r2, [r2, #0]
 80018ae:	605a      	str	r2, [r3, #4]
 80018b0:	687b      	ldr	r3, [r7, #4]
 80018b2:	689a      	ldr	r2, [r3, #8]
 80018b4:	4b0b      	ldr	r3, [pc, #44]	; (80018e4 <removePCB+0x8c>)
 80018b6:	681b      	ldr	r3, [r3, #0]
 80018b8:	6892      	ldr	r2, [r2, #8]
 80018ba:	609a      	str	r2, [r3, #8]
 80018bc:	e00b      	b.n	80018d6 <removePCB+0x7e>
 80018be:	687b      	ldr	r3, [r7, #4]
 80018c0:	685b      	ldr	r3, [r3, #4]
 80018c2:	60fb      	str	r3, [r7, #12]
 80018c4:	687b      	ldr	r3, [r7, #4]
 80018c6:	689b      	ldr	r3, [r3, #8]
 80018c8:	60bb      	str	r3, [r7, #8]
 80018ca:	68fb      	ldr	r3, [r7, #12]
 80018cc:	68ba      	ldr	r2, [r7, #8]
 80018ce:	609a      	str	r2, [r3, #8]
 80018d0:	68bb      	ldr	r3, [r7, #8]
 80018d2:	68fa      	ldr	r2, [r7, #12]
 80018d4:	605a      	str	r2, [r3, #4]
 80018d6:	bf00      	nop
 80018d8:	3714      	adds	r7, #20
 80018da:	46bd      	mov	sp, r7
 80018dc:	bc80      	pop	{r7}
 80018de:	4770      	bx	lr
 80018e0:	20000028 	andcs	r0, r0, r8, lsr #32
 80018e4:	2000002c 	andcs	r0, r0, ip, lsr #32

080018e8 <createNewProcess>:
 80018e8:	e92d 1fff 	stmdb	sp!, {r0, r1, r2, r3, r4, r5, r6, r7, r8, r9, sl, fp, ip}
 80018ec:	b401      	push	{r0}
 80018ee:	b500      	push	{lr}
 80018f0:	f7ff f98c 	bl	8000c0c <findAvailableProcessPage>
 80018f4:	4602      	mov	r2, r0
 80018f6:	4682      	mov	sl, r0
 80018f8:	f502 72c8 	add.w	r2, r2, #400	; 0x190
 80018fc:	b404      	push	{r2}
 80018fe:	f04f 0201 	mov.w	r2, #1
 8001902:	f2c0 0200 	movt	r2, #0
 8001906:	6002      	str	r2, [r0, #0]
 8001908:	f100 0004 	add.w	r0, r0, #4
 800190c:	f8df 2070 	ldr.w	r2, [pc, #112]	; 8001980 <_current_PCB>
 8001910:	6010      	str	r0, [r2, #0]
 8001912:	bc04      	pop	{r2}
 8001914:	f85d eb04 	ldr.w	lr, [sp], #4
 8001918:	bc01      	pop	{r0}
 800191a:	4601      	mov	r1, r0
 800191c:	46f4      	mov	ip, lr
 800191e:	f3ef 8308 	mrs	r3, MSP
 8001922:	f382 8808 	msr	MSP, r2
 8001926:	f3ef 8003 	mrs	r0, PSR
 800192a:	f04f 0200 	mov.w	r2, #0
 800192e:	f2c0 1200 	movt	r2, #256	; 0x100
 8001932:	ea40 0002 	orr.w	r0, r0, r2
 8001936:	b401      	push	{r0}
 8001938:	b402      	push	{r1}
 800193a:	f64f 70f9 	movw	r0, #65529	; 0xfff9
 800193e:	f6cf 70ff 	movt	r0, #65535	; 0xffff
 8001942:	468e      	mov	lr, r1
 8001944:	b500      	push	{lr}
 8001946:	4686      	mov	lr, r0
 8001948:	b41f      	push	{r0, r1, r2, r3, r4}
 800194a:	b401      	push	{r0}
 800194c:	f3ef 8003 	mrs	r0, PSR
 8001950:	b401      	push	{r0}
 8001952:	480b      	ldr	r0, [pc, #44]	; (8001980 <_current_PCB>)
 8001954:	6800      	ldr	r0, [r0, #0]
 8001956:	b401      	push	{r0}
 8001958:	f100 0004 	add.w	r0, r0, #4
 800195c:	e880 5ffe 	stmia.w	r0, {r1, r2, r3, r4, r5, r6, r7, r8, r9, sl, fp, ip, lr}
 8001960:	bc01      	pop	{r0}
 8001962:	4601      	mov	r1, r0
 8001964:	bc01      	pop	{r0}
 8001966:	6388      	str	r0, [r1, #56]	; 0x38
 8001968:	bc01      	pop	{r0}
 800196a:	6008      	str	r0, [r1, #0]
 800196c:	f3ef 8008 	mrs	r0, MSP
 8001970:	63c8      	str	r0, [r1, #60]	; 0x3c
 8001972:	f3ef 8009 	mrs	r0, PSP
 8001976:	6408      	str	r0, [r1, #64]	; 0x40
 8001978:	f3bf 8f4f 	dsb	sy
 800197c:	f3bf 8f6f 	isb	sy

08001980 <_current_PCB>:
 8001980:	20000010 	andcs	r0, r0, r0, lsl r0
 8001984:	f44f 5040 	mov.w	r0, #12288	; 0x3000
 8001988:	f2c2 0000 	movt	r0, #8192	; 0x2000
 800198c:	f85f 2010 	ldr.w	r2, [pc, #-16]	; 8001980 <_current_PCB>
 8001990:	6010      	str	r0, [r2, #0]
 8001992:	46e6      	mov	lr, ip
 8001994:	f383 8808 	msr	MSP, r3
 8001998:	e8bd 1fff 	ldmia.w	sp!, {r0, r1, r2, r3, r4, r5, r6, r7, r8, r9, sl, fp, ip}
 800199c:	4770      	bx	lr
 800199e:	bf00      	nop

080019a0 <initPipeSpace>:
 80019a0:	b480      	push	{r7}
 80019a2:	b083      	sub	sp, #12
 80019a4:	af00      	add	r7, sp, #0
 80019a6:	4b11      	ldr	r3, [pc, #68]	; (80019ec <initPipeSpace+0x4c>)
 80019a8:	607b      	str	r3, [r7, #4]
 80019aa:	2300      	movs	r3, #0
 80019ac:	70fb      	strb	r3, [r7, #3]
 80019ae:	e011      	b.n	80019d4 <initPipeSpace+0x34>
 80019b0:	78fb      	ldrb	r3, [r7, #3]
 80019b2:	4a0f      	ldr	r2, [pc, #60]	; (80019f0 <initPipeSpace+0x50>)
 80019b4:	2100      	movs	r1, #0
 80019b6:	f842 1023 	str.w	r1, [r2, r3, lsl #2]
 80019ba:	687b      	ldr	r3, [r7, #4]
 80019bc:	78fa      	ldrb	r2, [r7, #3]
 80019be:	701a      	strb	r2, [r3, #0]
 80019c0:	687b      	ldr	r3, [r7, #4]
 80019c2:	3301      	adds	r3, #1
 80019c4:	2200      	movs	r2, #0
 80019c6:	701a      	strb	r2, [r3, #0]
 80019c8:	78fb      	ldrb	r3, [r7, #3]
 80019ca:	3301      	adds	r3, #1
 80019cc:	70fb      	strb	r3, [r7, #3]
 80019ce:	687b      	ldr	r3, [r7, #4]
 80019d0:	3320      	adds	r3, #32
 80019d2:	607b      	str	r3, [r7, #4]
 80019d4:	78fb      	ldrb	r3, [r7, #3]
 80019d6:	2b04      	cmp	r3, #4
 80019d8:	d803      	bhi.n	80019e2 <initPipeSpace+0x42>
 80019da:	687b      	ldr	r3, [r7, #4]
 80019dc:	4a05      	ldr	r2, [pc, #20]	; (80019f4 <initPipeSpace+0x54>)
 80019de:	4293      	cmp	r3, r2
 80019e0:	d9e6      	bls.n	80019b0 <initPipeSpace+0x10>
 80019e2:	bf00      	nop
 80019e4:	370c      	adds	r7, #12
 80019e6:	46bd      	mov	sp, r7
 80019e8:	bc80      	pop	{r7}
 80019ea:	4770      	bx	lr
 80019ec:	20003f00 	andcs	r3, r0, r0, lsl #30
 80019f0:	20000034 	andcs	r0, r0, r4, lsr r0
 80019f4:	20003f9f 	mulcs	r0, pc, pc	; <UNPREDICTABLE>

080019f8 <createPipe>:
 80019f8:	b480      	push	{r7}
 80019fa:	b083      	sub	sp, #12
 80019fc:	af00      	add	r7, sp, #0
 80019fe:	f04f 33ff 	mov.w	r3, #4294967295	; 0xffffffff
 8001a02:	603b      	str	r3, [r7, #0]
 8001a04:	2300      	movs	r3, #0
 8001a06:	607b      	str	r3, [r7, #4]
 8001a08:	e011      	b.n	8001a2e <createPipe+0x36>
 8001a0a:	4a0d      	ldr	r2, [pc, #52]	; (8001a40 <createPipe+0x48>)
 8001a0c:	687b      	ldr	r3, [r7, #4]
 8001a0e:	f852 3023 	ldr.w	r3, [r2, r3, lsl #2]
 8001a12:	2b00      	cmp	r3, #0
 8001a14:	d108      	bne.n	8001a28 <createPipe+0x30>
 8001a16:	687b      	ldr	r3, [r7, #4]
 8001a18:	603b      	str	r3, [r7, #0]
 8001a1a:	4a09      	ldr	r2, [pc, #36]	; (8001a40 <createPipe+0x48>)
 8001a1c:	687b      	ldr	r3, [r7, #4]
 8001a1e:	2101      	movs	r1, #1
 8001a20:	f842 1023 	str.w	r1, [r2, r3, lsl #2]
 8001a24:	683b      	ldr	r3, [r7, #0]
 8001a26:	e006      	b.n	8001a36 <createPipe+0x3e>
 8001a28:	687b      	ldr	r3, [r7, #4]
 8001a2a:	3301      	adds	r3, #1
 8001a2c:	607b      	str	r3, [r7, #4]
 8001a2e:	687b      	ldr	r3, [r7, #4]
 8001a30:	2b04      	cmp	r3, #4
 8001a32:	ddea      	ble.n	8001a0a <createPipe+0x12>
 8001a34:	683b      	ldr	r3, [r7, #0]
 8001a36:	4618      	mov	r0, r3
 8001a38:	370c      	adds	r7, #12
 8001a3a:	46bd      	mov	sp, r7
 8001a3c:	bc80      	pop	{r7}
 8001a3e:	4770      	bx	lr
 8001a40:	20000034 	andcs	r0, r0, r4, lsr r0

08001a44 <readPipeByte>:
 8001a44:	b480      	push	{r7}
 8001a46:	b085      	sub	sp, #20
 8001a48:	af00      	add	r7, sp, #0
 8001a4a:	6078      	str	r0, [r7, #4]
 8001a4c:	687b      	ldr	r3, [r7, #4]
 8001a4e:	2b04      	cmp	r3, #4
 8001a50:	dc22      	bgt.n	8001a98 <readPipeByte+0x54>
 8001a52:	687b      	ldr	r3, [r7, #4]
 8001a54:	f103 2301 	add.w	r3, r3, #16777472	; 0x1000100
 8001a58:	33f8      	adds	r3, #248	; 0xf8
 8001a5a:	015b      	lsls	r3, r3, #5
 8001a5c:	60fb      	str	r3, [r7, #12]
 8001a5e:	68fb      	ldr	r3, [r7, #12]
 8001a60:	3301      	adds	r3, #1
 8001a62:	781b      	ldrb	r3, [r3, #0]
 8001a64:	72fb      	strb	r3, [r7, #11]
 8001a66:	7afb      	ldrb	r3, [r7, #11]
 8001a68:	2b00      	cmp	r3, #0
 8001a6a:	d013      	beq.n	8001a94 <readPipeByte+0x50>
 8001a6c:	7afa      	ldrb	r2, [r7, #11]
 8001a6e:	68fb      	ldr	r3, [r7, #12]
 8001a70:	4413      	add	r3, r2
 8001a72:	3301      	adds	r3, #1
 8001a74:	781b      	ldrb	r3, [r3, #0]
 8001a76:	72bb      	strb	r3, [r7, #10]
 8001a78:	7afa      	ldrb	r2, [r7, #11]
 8001a7a:	68fb      	ldr	r3, [r7, #12]
 8001a7c:	4413      	add	r3, r2
 8001a7e:	3301      	adds	r3, #1
 8001a80:	2200      	movs	r2, #0
 8001a82:	701a      	strb	r2, [r3, #0]
 8001a84:	68fb      	ldr	r3, [r7, #12]
 8001a86:	3301      	adds	r3, #1
 8001a88:	781a      	ldrb	r2, [r3, #0]
 8001a8a:	3a01      	subs	r2, #1
 8001a8c:	b2d2      	uxtb	r2, r2
 8001a8e:	701a      	strb	r2, [r3, #0]
 8001a90:	7abb      	ldrb	r3, [r7, #10]
 8001a92:	e003      	b.n	8001a9c <readPipeByte+0x58>
 8001a94:	2300      	movs	r3, #0
 8001a96:	e001      	b.n	8001a9c <readPipeByte+0x58>
 8001a98:	f04f 33ff 	mov.w	r3, #4294967295	; 0xffffffff
 8001a9c:	4618      	mov	r0, r3
 8001a9e:	3714      	adds	r7, #20
 8001aa0:	46bd      	mov	sp, r7
 8001aa2:	bc80      	pop	{r7}
 8001aa4:	4770      	bx	lr

08001aa6 <writePipeByte>:
 8001aa6:	b480      	push	{r7}
 8001aa8:	b085      	sub	sp, #20
 8001aaa:	af00      	add	r7, sp, #0
 8001aac:	6078      	str	r0, [r7, #4]
 8001aae:	460b      	mov	r3, r1
 8001ab0:	70fb      	strb	r3, [r7, #3]
 8001ab2:	687b      	ldr	r3, [r7, #4]
 8001ab4:	2b04      	cmp	r3, #4
 8001ab6:	dc1f      	bgt.n	8001af8 <writePipeByte+0x52>
 8001ab8:	687b      	ldr	r3, [r7, #4]
 8001aba:	f103 2301 	add.w	r3, r3, #16777472	; 0x1000100
 8001abe:	33f8      	adds	r3, #248	; 0xf8
 8001ac0:	015b      	lsls	r3, r3, #5
 8001ac2:	60fb      	str	r3, [r7, #12]
 8001ac4:	68fb      	ldr	r3, [r7, #12]
 8001ac6:	3301      	adds	r3, #1
 8001ac8:	781b      	ldrb	r3, [r3, #0]
 8001aca:	72fb      	strb	r3, [r7, #11]
 8001acc:	7afb      	ldrb	r3, [r7, #11]
 8001ace:	2b1d      	cmp	r3, #29
 8001ad0:	d810      	bhi.n	8001af4 <writePipeByte+0x4e>
 8001ad2:	7afa      	ldrb	r2, [r7, #11]
 8001ad4:	68fb      	ldr	r3, [r7, #12]
 8001ad6:	4413      	add	r3, r2
 8001ad8:	3302      	adds	r3, #2
 8001ada:	461a      	mov	r2, r3
 8001adc:	78fb      	ldrb	r3, [r7, #3]
 8001ade:	7013      	strb	r3, [r2, #0]
 8001ae0:	7afb      	ldrb	r3, [r7, #11]
 8001ae2:	3301      	adds	r3, #1
 8001ae4:	72fb      	strb	r3, [r7, #11]
 8001ae6:	68fb      	ldr	r3, [r7, #12]
 8001ae8:	3301      	adds	r3, #1
 8001aea:	461a      	mov	r2, r3
 8001aec:	7afb      	ldrb	r3, [r7, #11]
 8001aee:	7013      	strb	r3, [r2, #0]
 8001af0:	2301      	movs	r3, #1
 8001af2:	e003      	b.n	8001afc <writePipeByte+0x56>
 8001af4:	2300      	movs	r3, #0
 8001af6:	e001      	b.n	8001afc <writePipeByte+0x56>
 8001af8:	f04f 33ff 	mov.w	r3, #4294967295	; 0xffffffff
 8001afc:	4618      	mov	r0, r3
 8001afe:	3714      	adds	r7, #20
 8001b00:	46bd      	mov	sp, r7
 8001b02:	bc80      	pop	{r7}
 8001b04:	4770      	bx	lr
 8001b06:	bf00      	nop

Disassembly of section .rodata:

08001b08 <.rodata>:
 8001b08:	00003245 	andeq	r3, r0, r5, asr #4
 8001b0c:	00003247 	andeq	r3, r0, r7, asr #4
 8001b10:	00003241 	andeq	r3, r0, r1, asr #4
 8001b14:	00003242 	andeq	r3, r0, r2, asr #4
 8001b18:	00003343 	andeq	r3, r0, r3, asr #6
 8001b1c:	00003344 	andeq	r3, r0, r4, asr #6
 8001b20:	00003345 	andeq	r3, r0, r5, asr #6
 8001b24:	00003346 	andeq	r3, r0, r6, asr #6
 8001b28:	00003545 	andeq	r3, r0, r5, asr #10
 8001b2c:	00003543 	andeq	r3, r0, r3, asr #10
 8001b30:	00003441 	andeq	r3, r0, r1, asr #8
 8001b34:	00003442 	andeq	r3, r0, r2, asr #8
 8001b38:	Address 0x0000000008001b38 is out of bounds.


Disassembly of section .bss:

20000000 <USEC_WORKING>:
20000000:	00000000 	andeq	r0, r0, r0

20000004 <current_process>:
20000004:	00000000 	andeq	r0, r0, r0

20000008 <PCB_list>:
	...

20000010 <current_PCB_ptr>:
20000010:	00000000 	andeq	r0, r0, r0

20000014 <last_user_process>:
20000014:	00000000 	andeq	r0, r0, r0

20000018 <led1>:
20000018:	00000000 	andeq	r0, r0, r0

2000001c <led2>:
2000001c:	00000000 	andeq	r0, r0, r0

20000020 <led3>:
20000020:	00000000 	andeq	r0, r0, r0

20000024 <BPM>:
20000024:	00000000 	andeq	r0, r0, r0

20000028 <head>:
20000028:	00000000 	andeq	r0, r0, r0

2000002c <last>:
2000002c:	00000000 	andeq	r0, r0, r0

20000030 <curr>:
20000030:	00000000 	andeq	r0, r0, r0

20000034 <used_pipes>:
	...

Disassembly of section .ARM.attributes:

00000000 <.ARM.attributes>:
   0:	00002e41 	andeq	r2, r0, r1, asr #28
   4:	61656100 	cmnvs	r5, r0, lsl #2
   8:	01006962 	tsteq	r0, r2, ror #18
   c:	00000024 	andeq	r0, r0, r4, lsr #32
  10:	726f4305 	rsbvc	r4, pc, #335544320	; 0x14000000
  14:	2d786574 	cfldr64cs	mvdx6, [r8, #-464]!	; 0xfffffe30
  18:	0600334d 	streq	r3, [r0], -sp, asr #6
  1c:	094d070a 	stmdbeq	sp, {r1, r3, r8, r9, sl}^
  20:	14041202 	strne	r1, [r4], #-514	; 0xfffffdfe
  24:	17011501 	strne	r1, [r1, -r1, lsl #10]
  28:	1a011803 	bne	4603c <kernel_start-0x7fba004>
  2c:	Address 0x000000000000002c is out of bounds.


Disassembly of section .comment:

00000000 <.comment>:
   0:	3a434347 	bcc	10d0d24 <kernel_start-0x6f2f31c>
   4:	35312820 	ldrcc	r2, [r1, #-2080]!	; 0xfffff7e0
   8:	2e30313a 	mrccs	1, 1, r3, cr0, cr10, {1}
   c:	30322d33 	eorscc	r2, r2, r3, lsr sp
  10:	302e3132 	eorcc	r3, lr, r2, lsr r1
  14:	29342d37 	ldmdbcs	r4!, {r0, r1, r2, r4, r5, r8, sl, fp, sp}
  18:	2e303120 	rsfcssp	f3, f0, f0
  1c:	20312e33 	eorscs	r2, r1, r3, lsr lr
  20:	31323032 	teqcc	r2, r2, lsr r0
  24:	31323630 	teqcc	r2, r0, lsr r6
  28:	65722820 	ldrbvs	r2, [r2, #-2080]!	; 0xfffff7e0
  2c:	7361656c 	cmnvc	r1, #108, 10	; 0x1b000000
  30:	Address 0x0000000000000030 is out of bounds.


Disassembly of section .debug_line:

00000000 <.debug_line>:
       0:	00000037 	andeq	r0, r0, r7, lsr r0
       4:	00210003 	eoreq	r0, r1, r3
       8:	01020000 	mrseq	r0, (UNDEF: 2)
       c:	000d0efb 	strdeq	r0, [sp], -fp
      10:	01010101 	tsteq	r1, r1, lsl #2
      14:	01000000 	mrseq	r0, (UNDEF: 0)
      18:	73010000 	movwvc	r0, #4096	; 0x1000
      1c:	00006372 	andeq	r6, r0, r2, ror r3
      20:	746f6f62 	strbtvc	r6, [pc], #-3938	; 28 <kernel_start-0x8000018>
      24:	0100732e 	tsteq	r0, lr, lsr #6
      28:	00000000 	andeq	r0, r0, r0
      2c:	00400205 	subeq	r0, r0, r5, lsl #4
      30:	0f030800 	svceq	0x00030800
      34:	02022101 	andeq	r2, r2, #1073741824	; 0x40000000
      38:	1d010100 	stfnes	f0, [r1, #-0]
      3c:	03000003 	movweq	r0, #3
      40:	00005900 	andeq	r5, r0, r0, lsl #18
      44:	fb010200 	blx	4084e <kernel_start-0x7fbf7f2>
      48:	01000d0e 	tsteq	r0, lr, lsl #26
      4c:	00010101 	andeq	r0, r1, r1, lsl #2
      50:	00010000 	andeq	r0, r1, r0
      54:	72730100 	rsbsvc	r0, r3, #0, 2
      58:	752f0063 	strvc	r0, [pc, #-99]!	; fffffffd <used_pipes+0xdfffffc9>
      5c:	6c2f7273 	sfmvs	f7, 4, [pc], #-460	; fffffe98 <used_pipes+0xdffffe64>
      60:	672f6269 	strvs	r6, [pc, -r9, ror #4]!
      64:	612f6363 			; <UNDEFINED> instruction: 0x612f6363
      68:	6e2d6d72 	mcrvs	13, 1, r6, cr13, cr2, {3}
      6c:	2d656e6f 	stclcs	14, cr6, [r5, #-444]!	; 0xfffffe44
      70:	69626165 	stmdbvs	r2!, {r0, r2, r5, r6, r8, sp, lr}^
      74:	2e30312f 	rsfcssp	f3, f0, #10.0
      78:	2f312e33 	svccs	0x00312e33
      7c:	6c636e69 	stclvs	14, cr6, [r3], #-420	; 0xfffffe5c
      80:	00656475 	rsbeq	r6, r5, r5, ror r4
      84:	72656b00 	rsbvc	r6, r5, #0, 22
      88:	2e6c656e 	cdpcs	5, 6, cr6, cr12, cr14, {3}
      8c:	00010063 	andeq	r0, r1, r3, rrx
      90:	64747300 	ldrbtvs	r7, [r4], #-768	; 0xfffffd00
      94:	2e746e69 	cdpcs	14, 7, cr6, cr4, cr9, {3}
      98:	00020068 	andeq	r0, r2, r8, rrx
      9c:	10050000 	andne	r0, r5, r0
      a0:	48020500 	stmdami	r2, {r8, sl}
      a4:	03080000 	movweq	r0, #32768	; 0x8000
      a8:	1605010e 	strne	r0, [r5], -lr, lsl #2
      ac:	4b05053e 	blmi	1415ac <kernel_start-0x7ebea94>
      b0:	055a0f05 	ldrbeq	r0, [sl, #-3845]	; 0xfffff0fb
      b4:	10053d09 	andne	r3, r5, r9, lsl #26
      b8:	2e090559 	cfrshl32cs	mvfx9, mvfx9, r0
      bc:	02002105 	andeq	r2, r0, #1073741825	; 0x40000001
      c0:	05200304 	streq	r0, [r0, #-772]!	; 0xfffffcfc
      c4:	04020009 	streq	r0, [r2], #-9
      c8:	0f053c01 	svceq	0x00053c01
      cc:	3d090559 	cfstr32cc	mvfx0, [r9, #-356]	; 0xfffffe9c
      d0:	05591005 	ldrbeq	r1, [r9, #-5]
      d4:	21052e09 	tstcs	r5, r9, lsl #28
      d8:	03040200 	movweq	r0, #16896	; 0x4200
      dc:	00090520 	andeq	r0, r9, r0, lsr #10
      e0:	3c010402 	cfstrscc	mvf0, [r1], {2}
      e4:	05530f05 	ldrbeq	r0, [r3, #-3845]	; 0xfffff0fb
      e8:	20090310 	andcs	r0, r9, r0, lsl r3
      ec:	053f0905 	ldreq	r0, [pc, #-2309]!	; fffff7ef <used_pipes+0xdffff7bb>
      f0:	09055910 	stmdbeq	r5, {r4, r8, fp, ip, lr}
      f4:	0021052e 	eoreq	r0, r1, lr, lsr #10
      f8:	20030402 	andcs	r0, r3, r2, lsl #8
      fc:	02000905 	andeq	r0, r0, #81920	; 0x14000
     100:	4b3c0104 	blmi	f00518 <kernel_start-0x70ffb28>
     104:	05591005 	ldrbeq	r1, [r9, #-5]
     108:	21052e09 	tstcs	r5, r9, lsl #28
     10c:	03040200 	movweq	r0, #16896	; 0x4200
     110:	00090520 	andeq	r0, r9, r0, lsr #10
     114:	3c010402 	cfstrscc	mvf0, [r1], {2}
     118:	51100547 	tstpl	r0, r7, asr #10
     11c:	053e1605 	ldreq	r1, [lr, #-1541]!	; 0xfffff9fb
     120:	0f054b05 	svceq	0x00054b05
     124:	3d24055a 	cfstr32cc	mvfx0, [r4, #-360]!	; 0xfffffe98
     128:	052e0905 	streq	r0, [lr, #-2309]!	; 0xfffff6fb
     12c:	09056710 	stmdbeq	r5, {r4, r8, r9, sl, sp, lr}
     130:	0022052e 	eoreq	r0, r2, lr, lsr #10
     134:	20030402 	andcs	r0, r3, r2, lsl #8
     138:	02000905 	andeq	r0, r0, #81920	; 0x14000
     13c:	053c0104 	ldreq	r0, [ip, #-260]!	; 0xfffffefc
     140:	24054b0f 	strcs	r4, [r5], #-2831	; 0xfffff4f1
     144:	2e09053d 	mcrcs	5, 0, r0, cr9, cr13, {1}
     148:	05671005 	strbeq	r1, [r7, #-5]!
     14c:	22052e09 	andcs	r2, r5, #9, 28	; 0x90
     150:	03040200 	movweq	r0, #16896	; 0x4200
     154:	00090520 	andeq	r0, r9, r0, lsr #10
     158:	3c010402 	cfstrscc	mvf0, [r1], {2}
     15c:	03450f05 	movteq	r0, #24325	; 0x5f05
     160:	0d054a09 	vstreq	s8, [r5, #-36]	; 0xffffffdc
     164:	2e05053d 	mcrcs	5, 0, r0, cr5, cr13, {1}
     168:	05210b05 	streq	r0, [r1, #-2821]!	; 0xfffff4fb
     16c:	05813d09 	streq	r3, [r1, #3337]	; 0xd09
     170:	0402001d 	streq	r0, [r2], #-29	; 0xffffffe3
     174:	05051f02 	streq	r1, [r5, #-3842]	; 0xfffff0fe
     178:	01040200 	mrseq	r0, R12_usr
     17c:	400d053c 	andmi	r0, sp, ip, lsr r5
     180:	052f0505 	streq	r0, [pc, #-1285]!	; fffffc83 <used_pipes+0xdffffc4f>
     184:	12055a19 	andne	r5, r5, #102400	; 0x19000
     188:	2f11053c 	svccs	0x0011053c
     18c:	052e0905 	streq	r0, [lr, #-2309]!	; 0xfffff6fb
     190:	2d05210f 	stfcss	f2, [r5, #-60]	; 0xffffffc4
     194:	01040200 	mrseq	r0, R12_usr
     198:	0018053c 	andseq	r0, r8, ip, lsr r5
     19c:	2e010402 	cdpcs	4, 0, cr0, cr1, cr2, {0}
     1a0:	05911205 	ldreq	r1, [r1, #517]	; 0x205
     1a4:	12052e27 	andne	r2, r5, #624	; 0x270
     1a8:	0402002e 	streq	r0, [r2], #-46	; 0xffffffd2
     1ac:	20057502 	andcs	r7, r5, r2, lsl #10
     1b0:	02040200 	andeq	r0, r4, #0, 4
     1b4:	00090539 	andeq	r0, r9, r9, lsr r5
     1b8:	3c010402 	cfstrscc	mvf0, [r1], {2}
     1bc:	053a0d05 	ldreq	r0, [sl, #-3333]!	; 0xfffff2fb
     1c0:	200b0311 	andcs	r0, fp, r1, lsl r3
     1c4:	4b2f0505 	blmi	bc15e0 <kernel_start-0x743ea60>
     1c8:	02000905 	andeq	r0, r0, #81920	; 0x14000
     1cc:	00310104 	eorseq	r0, r1, r4, lsl #2
     1d0:	2f010402 	svccs	0x00010402
     1d4:	01040200 	mrseq	r0, R12_usr
     1d8:	2511053b 	ldrcs	r0, [r1, #-1339]	; 0xfffffac5
     1dc:	593d0505 	ldmdbpl	sp!, {r0, r2, r8, sl}
     1e0:	05590905 	ldrbeq	r0, [r9, #-2309]	; 0xfffff6fb
     1e4:	0e05301c 	mcreq	0, 0, r3, cr5, cr12, {0}
     1e8:	000f053e 	andeq	r0, pc, lr, lsr r5	; <UNPREDICTABLE>
     1ec:	20010402 	andcs	r0, r1, r2, lsl #8
     1f0:	02002005 	andeq	r2, r0, #5
     1f4:	053c0104 	ldreq	r0, [ip, #-260]!	; 0xfffffefc
     1f8:	0402000e 	streq	r0, [r2], #-14
     1fc:	09052e01 	stmdbeq	r5, {r0, r9, sl, fp, sp}
     200:	750d053d 	strvc	r0, [sp, #-1341]	; 0xfffffac3
     204:	03100537 	tsteq	r0, #230686720	; 0xdc00000
     208:	05053c09 	streq	r3, [r5, #-3081]	; 0xfffff3f7
     20c:	0a05592f 	beq	1566d0 <kernel_start-0x7ea9970>
     210:	01040200 	mrseq	r0, R12_usr
     214:	2310054b 	tstcs	r0, #314572800	; 0x12c00000
     218:	053d0205 	ldreq	r0, [sp, #-517]!	; 0xfffffdfb
     21c:	0505a007 	streq	sl, [r5, #-7]
     220:	2f0c052e 	svccs	0x000c052e
     224:	05590405 	ldrbeq	r0, [r9, #-1029]	; 0xfffffbfb
     228:	10055605 	andne	r5, r5, r5, lsl #12
     22c:	3d050543 	cfstr32cc	mvfx0, [r5, #-268]	; 0xfffffef4
     230:	59590205 	ldmdbpl	r9, {r0, r2, r9}^
     234:	00070591 	muleq	r7, r1, r5
     238:	3e010402 	cdpcc	4, 0, cr0, cr1, cr2, {0}
     23c:	05411205 	strbeq	r1, [r1, #-517]	; 0xfffffdfb
     240:	05593d05 	ldrbeq	r3, [r9, #-3333]	; 0xfffff2fb
     244:	09054011 	stmdbeq	r5, {r0, r4, lr}
     248:	000d052e 	andeq	r0, sp, lr, lsr #10
     24c:	21030402 	tstcs	r3, r2, lsl #8
     250:	03040200 	movweq	r0, #16896	; 0x4200
     254:	0402004b 	streq	r0, [r2], #-75	; 0xffffffb5
     258:	02004b03 	andeq	r4, r0, #3072	; 0xc00
     25c:	004b0304 	subeq	r0, fp, r4, lsl #6
     260:	4c030402 	cfstrsmi	mvf0, [r3], {2}
     264:	03040200 	movweq	r0, #16896	; 0x4200
     268:	0402004b 	streq	r0, [r2], #-75	; 0xffffffb5
     26c:	02004b03 	andeq	r4, r0, #3072	; 0xc00
     270:	004b0304 	subeq	r0, fp, r4, lsl #6
     274:	4c030402 	cfstrsmi	mvf0, [r3], {2}
     278:	03040200 	movweq	r0, #16896	; 0x4200
     27c:	0402004b 	streq	r0, [r2], #-75	; 0xffffffb5
     280:	02004b03 	andeq	r4, r0, #3072	; 0xc00
     284:	004b0304 	subeq	r0, fp, r4, lsl #6
     288:	4c030402 	cfstrsmi	mvf0, [r3], {2}
     28c:	03040200 	movweq	r0, #16896	; 0x4200
     290:	0402004b 	streq	r0, [r2], #-75	; 0xffffffb5
     294:	02004b03 	andeq	r4, r0, #3072	; 0xc00
     298:	054b0304 	strbeq	r0, [fp, #-772]	; 0xfffffcfc
     29c:	04020020 	streq	r0, [r2], #-32	; 0xffffffe0
     2a0:	4a6d0303 	bmi	1b40eb4 <kernel_start-0x64bf18c>
     2a4:	02000905 	andeq	r0, r0, #81920	; 0x14000
     2a8:	033c0104 	teqeq	ip, #4, 2
     2ac:	4b4b3c15 	blmi	12cf308 <kernel_start-0x6d30d38>
     2b0:	4b4b4c4b 	blmi	12d33e4 <kernel_start-0x6d2cc5c>
     2b4:	4b4b4c4b 	blmi	12d33e8 <kernel_start-0x6d2cc58>
     2b8:	4b4b4c4b 	blmi	12d33ec <kernel_start-0x6d2cc54>
     2bc:	4b3e4b4b 	blmi	f92ff0 <kernel_start-0x706d050>
     2c0:	4b4b4c4b 	blmi	12d33f4 <kernel_start-0x6d2cc4c>
     2c4:	4b4b3e4b 	blmi	12cfbf8 <kernel_start-0x6d30448>
     2c8:	4b4b4c4b 	blmi	12d33fc <kernel_start-0x6d2cc44>
     2cc:	4b4b3e4b 	blmi	12cfc00 <kernel_start-0x6d30440>
     2d0:	3d4b3d4b 	stclcc	13, cr3, [fp, #-300]	; 0xfffffed4
     2d4:	4b4c4b4b 	blmi	1313008 <kernel_start-0x6ced038>
     2d8:	4b3d4b4b 	blmi	f5300c <kernel_start-0x70ad034>
     2dc:	3e4b4b3d 	vmovcc.8	d11[1], r4
     2e0:	2e7faf03 	cdpcs	15, 7, cr10, cr15, cr3, {0}
     2e4:	dc031d05 	stcle	13, cr1, [r3], {5}
     2e8:	05200800 	streq	r0, [r0, #-2048]!	; 0xfffff800
     2ec:	05592f05 	ldrbeq	r2, [r9, #-3845]	; 0xfffff0fb
     2f0:	04020009 	streq	r0, [r2], #-9
     2f4:	02003f01 	andeq	r3, r0, #1, 30
     2f8:	004b0104 	subeq	r0, fp, r4, lsl #2
     2fc:	4b010402 	blmi	4130c <kernel_start-0x7fbed34>
     300:	01040200 	mrseq	r0, R12_usr
     304:	0402004b 	streq	r0, [r2], #-75	; 0xffffffb5
     308:	02004b01 	andeq	r4, r0, #1024	; 0x400
     30c:	004b0104 	subeq	r0, fp, r4, lsl #2
     310:	4b010402 	blmi	41320 <kernel_start-0x7fbed20>
     314:	01040200 	mrseq	r0, R12_usr
     318:	0402004b 	streq	r0, [r2], #-75	; 0xffffffb5
     31c:	02004b01 	andeq	r4, r0, #1024	; 0x400
     320:	004b0104 	subeq	r0, fp, r4, lsl #2
     324:	4b010402 	blmi	41334 <kernel_start-0x7fbed0c>
     328:	01040200 	mrseq	r0, R12_usr
     32c:	0402004b 	streq	r0, [r2], #-75	; 0xffffffb5
     330:	02004b01 	andeq	r4, r0, #1024	; 0x400
     334:	003d0104 	eorseq	r0, sp, r4, lsl #2
     338:	03010402 	movweq	r0, #5122	; 0x1402
     33c:	0e053c73 	mcreq	12, 0, r3, cr5, cr3, {3}
     340:	05ba1203 	ldreq	r1, [sl, #515]!	; 0x203
     344:	2f2f2f05 	svccs	0x002f2f05
     348:	2f2f2f2f 	svccs	0x002f2f2f
     34c:	2f313d2f 	svccs	0x00313d2f
     350:	403e3e3e 	eorsmi	r3, lr, lr, lsr lr
     354:	022f0105 	eoreq	r0, pc, #1073741825	; 0x40000001
     358:	0101000b 	tsteq	r1, fp
     35c:	0000012e 	andeq	r0, r0, lr, lsr #2
     360:	00690003 	rsbeq	r0, r9, r3
     364:	01020000 	mrseq	r0, (UNDEF: 2)
     368:	000d0efb 	strdeq	r0, [sp], -fp
     36c:	01010101 	tsteq	r1, r1, lsl #2
     370:	01000000 	mrseq	r0, (UNDEF: 0)
     374:	73010000 	movwvc	r0, #4096	; 0x1000
     378:	632f6372 			; <UNDEFINED> instruction: 0x632f6372
     37c:	6b636f6c 	blvs	18dc134 <kernel_start-0x6723f0c>
     380:	73752f00 	cmnvc	r5, #0, 30
     384:	696c2f72 	stmdbvs	ip!, {r1, r4, r5, r6, r8, r9, sl, fp, sp}^
     388:	63672f62 	cmnvs	r7, #392	; 0x188
     38c:	72612f63 	rsbvc	r2, r1, #396	; 0x18c
     390:	6f6e2d6d 	svcvs	0x006e2d6d
     394:	652d656e 	strvs	r6, [sp, #-1390]!	; 0xfffffa92
     398:	2f696261 	svccs	0x00696261
     39c:	332e3031 			; <UNDEFINED> instruction: 0x332e3031
     3a0:	692f312e 	stmdbvs	pc!, {r1, r2, r3, r5, r8, ip, sp}	; <UNPREDICTABLE>
     3a4:	756c636e 	strbvc	r6, [ip, #-878]!	; 0xfffffc92
     3a8:	00006564 	andeq	r6, r0, r4, ror #10
     3ac:	636f6c63 	cmnvs	pc, #25344	; 0x6300
     3b0:	00632e6b 	rsbeq	r2, r3, fp, ror #28
     3b4:	73000001 	movwvc	r0, #1
     3b8:	6e696474 	mcrvs	4, 3, r6, cr9, cr4, {3}
     3bc:	00682e74 	rsbeq	r2, r8, r4, ror lr
     3c0:	63000002 	movwvs	r0, #2
     3c4:	6b636f6c 	blvs	18dc17c <kernel_start-0x6723ec4>
     3c8:	0100682e 	tsteq	r0, lr, lsr #16
     3cc:	05000000 	streq	r0, [r0, #-0]
     3d0:	0205001d 	andeq	r0, r5, #29
     3d4:	08000640 	stmdaeq	r0, {r6, r9, sl}
     3d8:	2f0c0516 	svccs	0x000c0516
     3dc:	67010567 	strvs	r0, [r1, -r7, ror #10]
     3e0:	05691805 	strbeq	r1, [r9, #-2053]!	; 0xfffff7fb
     3e4:	01052f11 	tsteq	r5, r1, lsl pc
     3e8:	681b0567 	ldmdavs	fp, {r0, r1, r2, r5, r6, r8, sl}
     3ec:	052f1105 	streq	r1, [pc, #-261]!	; 2ef <kernel_start-0x7fffd51>
     3f0:	17056701 	strne	r6, [r5, -r1, lsl #14]
     3f4:	2f110568 	svccs	0x00110568
     3f8:	05670105 	strbeq	r0, [r7, #-261]!	; 0xfffffefb
     3fc:	1105681a 	tstne	r5, sl, lsl r8
     400:	0105672f 	tsteq	r5, pc, lsr #14
     404:	85330567 	ldrhi	r0, [r3, #-1383]!	; 0xfffffa99
     408:	67590e05 	ldrbvs	r0, [r9, -r5, lsl #28]
     40c:	05682d05 	strbeq	r2, [r8, #-3333]!	; 0xfffff2fb
     410:	05212e0e 	streq	r2, [r1, #-3598]!	; 0xfffff1f2
     414:	0e052e24 	cdpeq	14, 0, cr2, cr5, cr4, {1}
     418:	3f0c052e 	svccc	0x000c052e
     41c:	67670e05 	strbvs	r0, [r7, -r5, lsl #28]!
     420:	05670105 	strbeq	r0, [r7, #-261]!	; 0xfffffefb
     424:	0e059318 	mcreq	3, 0, r9, cr5, cr8, {0}
     428:	3e1d053d 	mrccc	5, 0, r0, cr13, cr13, {1}
     42c:	052e2405 	streq	r2, [lr, #-1029]!	; 0xfffffbfb
     430:	1a05200e 	bne	148470 <kernel_start-0x7eb7bd0>
     434:	2e23053d 	mcrcs	5, 1, r0, cr3, cr13, {1}
     438:	05202e05 	streq	r2, [r0, #-3589]!	; 0xfffff1fb
     43c:	07052e0e 	streq	r2, [r5, -lr, lsl #28]
     440:	001a052f 	andseq	r0, sl, pc, lsr #10
     444:	3c010402 	cfstrscc	mvf0, [r1], {2}
     448:	05670c05 	strbeq	r0, [r7, #-3077]!	; 0xfffff3fb
     44c:	3b052101 	blcc	148858 <kernel_start-0x7eb77e8>
     450:	13050594 	movwne	r0, #21908	; 0x5594
     454:	09030105 	stmdbeq	r3, {r0, r2, r8}
     458:	221f0574 	andscs	r0, pc, #116, 10	; 0x1d000000
     45c:	054c1505 	strbeq	r1, [ip, #-1285]	; 0xfffffafb
     460:	12053d0a 	andne	r3, r5, #640	; 0x280
     464:	2e050575 	cfrshl64cs	mvdx5, mvdx5, r0
     468:	02000905 	andeq	r0, r0, #81920	; 0x14000
     46c:	05210304 	streq	r0, [r1, #-772]!	; 0xfffffcfc
     470:	04020024 	streq	r0, [r2], #-36	; 0xffffffdc
     474:	05053b03 	streq	r3, [r5, #-2819]	; 0xfffff4fd
     478:	01040200 	mrseq	r0, R12_usr
     47c:	4d01053c 	cfstr32mi	mvfx0, [r1, #-240]	; 0xffffff10
     480:	05761a05 	ldrbeq	r1, [r6, #-2565]!	; 0xfffff5fb
     484:	01052f0c 	tsteq	r5, ip, lsl #30
     488:	0006022f 	andeq	r0, r6, pc, lsr #4
     48c:	01990101 	orrseq	r0, r9, r1, lsl #2
     490:	00030000 	andeq	r0, r3, r0
     494:	000000e5 	andeq	r0, r0, r5, ror #1
     498:	0efb0102 	cdpeq	1, 15, cr0, cr11, cr2, {0}
     49c:	0101000d 	tsteq	r1, sp
     4a0:	00000101 	andeq	r0, r0, r1, lsl #2
     4a4:	00000100 	andeq	r0, r0, r0, lsl #2
     4a8:	63727301 	cmnvs	r2, #67108864	; 0x4000000
     4ac:	6e6f632f 	cdpvs	3, 6, cr6, cr15, cr15, {1}
     4b0:	74786574 	ldrbtvc	r6, [r8], #-1396	; 0xfffffa8c
     4b4:	6977735f 	ldmdbvs	r7!, {r0, r1, r2, r3, r4, r6, r8, r9, ip, sp, lr}^
     4b8:	69686374 	stmdbvs	r8!, {r2, r4, r5, r6, r8, r9, sp, lr}^
     4bc:	2f00676e 	svccs	0x0000676e
     4c0:	2f727375 	svccs	0x00727375
     4c4:	2f62696c 	svccs	0x0062696c
     4c8:	2f636367 	svccs	0x00636367
     4cc:	2d6d7261 	sfmcs	f7, 2, [sp, #-388]!	; 0xfffffe7c
     4d0:	656e6f6e 	strbvs	r6, [lr, #-3950]!	; 0xfffff092
     4d4:	6261652d 	rsbvs	r6, r1, #188743680	; 0xb400000
     4d8:	30312f69 	eorscc	r2, r1, r9, ror #30
     4dc:	312e332e 			; <UNDEFINED> instruction: 0x312e332e
     4e0:	636e692f 	cmnvs	lr, #770048	; 0xbc000
     4e4:	6564756c 	strbvs	r7, [r4, #-1388]!	; 0xfffffa94
     4e8:	63727300 	cmnvs	r2, #0, 6
     4ec:	6e6f632f 	cdpvs	3, 6, cr6, cr15, cr15, {1}
     4f0:	74786574 	ldrbtvc	r6, [r8], #-1396	; 0xfffffa8c
     4f4:	6977735f 	ldmdbvs	r7!, {r0, r1, r2, r3, r4, r6, r8, r9, ip, sp, lr}^
     4f8:	69686374 	stmdbvs	r8!, {r2, r4, r5, r6, r8, r9, sp, lr}^
     4fc:	2e2f676e 	cdpcs	7, 2, cr6, cr15, cr14, {3}
     500:	72702f2e 	rsbsvc	r2, r0, #46, 30	; 0xb8
     504:	7365636f 	cmnvc	r5, #-1140850687	; 0xbc000001
     508:	72730073 	rsbsvc	r0, r3, #115	; 0x73
     50c:	6f632f63 	svcvs	0x00632f63
     510:	7865746e 	stmdavc	r5!, {r1, r2, r3, r5, r6, sl, ip, sp, lr}^
     514:	77735f74 			; <UNDEFINED> instruction: 0x77735f74
     518:	68637469 	stmdavs	r3!, {r0, r3, r5, r6, sl, ip, sp, lr}^
     51c:	2f676e69 	svccs	0x00676e69
     520:	632f2e2e 			; <UNDEFINED> instruction: 0x632f2e2e
     524:	6b636f6c 	blvs	18dc2dc <kernel_start-0x6723d64>
     528:	6f630000 	svcvs	0x00630000
     52c:	7865746e 	stmdavc	r5!, {r1, r2, r3, r5, r6, sl, ip, sp, lr}^
     530:	77735f74 			; <UNDEFINED> instruction: 0x77735f74
     534:	68637469 	stmdavs	r3!, {r0, r3, r5, r6, sl, ip, sp, lr}^
     538:	2e676e69 	cdpcs	14, 6, cr6, cr7, cr9, {3}
     53c:	00010063 	andeq	r0, r1, r3, rrx
     540:	64747300 	ldrbtvs	r7, [r4], #-768	; 0xfffffd00
     544:	2e746e69 	cdpcs	14, 7, cr6, cr4, cr9, {3}
     548:	00020068 	andeq	r0, r2, r8, rrx
     54c:	6f727000 	svcvs	0x00727000
     550:	73736563 	cmnvc	r3, #415236096	; 0x18c00000
     554:	0300682e 	movweq	r6, #2094	; 0x82e
     558:	6f630000 	svcvs	0x00630000
     55c:	7865746e 	stmdavc	r5!, {r1, r2, r3, r5, r6, sl, ip, sp, lr}^
     560:	77735f74 			; <UNDEFINED> instruction: 0x77735f74
     564:	68637469 	stmdavs	r3!, {r0, r3, r5, r6, sl, ip, sp, lr}^
     568:	2e676e69 	cdpcs	14, 6, cr6, cr7, cr9, {3}
     56c:	00010068 	andeq	r0, r1, r8, rrx
     570:	6f6c6300 	svcvs	0x006c6300
     574:	682e6b63 	stmdavs	lr!, {r0, r1, r5, r6, r8, r9, fp, sp, lr}
     578:	00000400 	andeq	r0, r0, r0, lsl #8
     57c:	00390500 	eorseq	r0, r9, r0, lsl #10
     580:	08080205 	stmdaeq	r8, {r0, r2, r9}
     584:	0c030800 	stceq	8, cr0, [r3], {-0}
     588:	591b0501 	ldmdbpl	fp, {r0, r8, sl}
     58c:	052e0605 	streq	r0, [lr, #-1541]!	; 0xfffff9fb
     590:	22052e24 	andcs	r2, r5, #36, 28	; 0x240
     594:	22010520 	andcs	r0, r1, #32, 10	; 0x8000000
     598:	05761605 	ldrbeq	r1, [r6, #-1541]!	; 0xfffff9fb
     59c:	054b2f05 	strbeq	r2, [fp, #-3845]	; 0xfffff0fb
     5a0:	01052f17 	tsteq	r5, r7, lsl pc
     5a4:	5a1b0544 	bpl	6c1abc <kernel_start-0x793e584>
     5a8:	053f1a05 	ldreq	r1, [pc, #-2565]!	; fffffbab <used_pipes+0xdffffb77>
     5ac:	19052e07 	stmdbne	r5, {r0, r1, r2, r9, sl, fp, sp}
     5b0:	3d1b052f 	cfldr32cc	mvfx0, [fp, #-188]	; 0xffffff44
     5b4:	054b0905 	strbeq	r0, [fp, #-2309]	; 0xfffff6fb
     5b8:	12052217 	andne	r2, r5, #1879048193	; 0x70000001
     5bc:	3c05052e 	cfstr32cc	mvfx0, [r5], {46}	; 0x2e
     5c0:	05210d05 	streq	r0, [r1, #-3333]!	; 0xfffff2fb
     5c4:	0b05200c 	bleq	1485fc <kernel_start-0x7eb7a44>
     5c8:	00200520 	eoreq	r0, r0, r0, lsr #10
     5cc:	2e010402 	cdpcs	4, 0, cr0, cr1, cr2, {0}
     5d0:	02003a05 	andeq	r3, r0, #20480	; 0x5000
     5d4:	052e0104 	streq	r0, [lr, #-260]!	; 0xfffffefc
     5d8:	0402001b 	streq	r0, [r2], #-27	; 0xffffffe5
     5dc:	30052001 	andcc	r2, r5, r1
     5e0:	2e1f053d 	mrccs	5, 0, r0, cr15, cr13, {1}
     5e4:	05201d05 	streq	r1, [r0, #-3333]!	; 0xfffff2fb
     5e8:	0d052f1f 	stceq	15, cr2, [r5, #-124]	; 0xffffff84
     5ec:	0073054b 	rsbseq	r0, r3, fp, asr #10
     5f0:	1c020402 	cfstrsne	mvf0, [r2], {2}
     5f4:	02000505 	andeq	r0, r0, #20971520	; 0x1400000
     5f8:	054a0104 	strbeq	r0, [sl, #-260]	; 0xfffffefc
     5fc:	17055115 	smladne	r5, r5, r1, r5
     600:	5201053d 	andpl	r0, r1, #255852544	; 0xf400000
     604:	05d83705 	ldrbeq	r3, [r8, #1797]	; 0x705
     608:	19031405 	stmdbne	r3, {r0, r2, sl, ip}
     60c:	1a05c808 	bne	172634 <kernel_start-0x7e8da0c>
     610:	2e19052f 	cfmul64cs	mvdx0, mvdx9, mvdx15
     614:	054a2305 	strbeq	r2, [sl, #-773]	; 0xfffffcfb
     618:	12053c22 	andne	r3, r5, #8704	; 0x2200
     61c:	5a05052e 	bpl	141adc <kernel_start-0x7ebe564>
     620:	18030105 	stmdane	r3, {r0, r2, r8}
     624:	0502ba08 	streq	fp, [r2, #-2568]	; 0xfffff5f8
     628:	40010100 	andmi	r0, r1, r0, lsl #2
     62c:	03000001 	movweq	r0, #1
     630:	00006700 	andeq	r6, r0, r0, lsl #14
     634:	fb010200 	blx	40e3e <kernel_start-0x7fbf202>
     638:	01000d0e 	tsteq	r0, lr, lsl #26
     63c:	00010101 	andeq	r0, r1, r1, lsl #2
     640:	00010000 	andeq	r0, r1, r0
     644:	72730100 	rsbsvc	r0, r3, #0, 2
     648:	6e692f63 	cdpvs	15, 6, cr2, cr9, cr3, {3}
     64c:	72726574 	rsbsvc	r6, r2, #116, 10	; 0x1d000000
     650:	73747075 	cmnvc	r4, #117	; 0x75
     654:	73752f00 	cmnvc	r5, #0, 30
     658:	696c2f72 	stmdbvs	ip!, {r1, r4, r5, r6, r8, r9, sl, fp, sp}^
     65c:	63672f62 	cmnvs	r7, #392	; 0x188
     660:	72612f63 	rsbvc	r2, r1, #396	; 0x18c
     664:	6f6e2d6d 	svcvs	0x006e2d6d
     668:	652d656e 	strvs	r6, [sp, #-1390]!	; 0xfffffa92
     66c:	2f696261 	svccs	0x00696261
     670:	332e3031 			; <UNDEFINED> instruction: 0x332e3031
     674:	692f312e 	stmdbvs	pc!, {r1, r2, r3, r5, r8, ip, sp}	; <UNPREDICTABLE>
     678:	756c636e 	strbvc	r6, [ip, #-878]!	; 0xfffffc92
     67c:	00006564 	andeq	r6, r0, r4, ror #10
     680:	65746e69 	ldrbvs	r6, [r4, #-3689]!	; 0xfffff197
     684:	70757272 	rsbsvc	r7, r5, r2, ror r2
     688:	00632e74 	rsbeq	r2, r3, r4, ror lr
     68c:	73000001 	movwvc	r0, #1
     690:	6e696474 	mcrvs	4, 3, r6, cr9, cr4, {3}
     694:	00682e74 	rsbeq	r2, r8, r4, ror lr
     698:	00000002 	andeq	r0, r0, r2
     69c:	05003d05 	streq	r3, [r0, #-3333]	; 0xfffff2fb
     6a0:	00097c02 	andeq	r7, r9, r2, lsl #24
     6a4:	01090308 	tsteq	r9, r8, lsl #6
     6a8:	05591d05 	ldrbeq	r1, [r9, #-3333]	; 0xfffff2fb
     6ac:	0105201b 	tsteq	r5, fp, lsl r0
     6b0:	6026052f 	eorvs	r0, r6, pc, lsr #10
     6b4:	054b0d05 	strbeq	r0, [fp, #-3333]	; 0xfffff2fb
     6b8:	16052e02 	strne	r2, [r5], -r2, lsl #28
     6bc:	2e0b0520 	cfsh32cs	mvfx0, mvfx11, #16
     6c0:	2e140521 	cfmul64cs	mvdx0, mvdx4, mvdx1
     6c4:	053c0b05 	ldreq	r0, [ip, #-2821]!	; 0xfffff4fb
     6c8:	15053d01 	strne	r3, [r5, #-3329]	; 0xfffff2ff
     6cc:	0b053d76 	bleq	14fcac <kernel_start-0x7eb0394>
     6d0:	3d02052e 	cfstr32cc	mvfx0, [r2, #-184]	; 0xffffff48
     6d4:	05201505 	streq	r1, [r0, #-1285]!	; 0xfffffafb
     6d8:	02053c0b 	andeq	r3, r5, #2816	; 0xb00
     6dc:	200b0521 	andcs	r0, fp, r1, lsr #10
     6e0:	052f0105 	streq	r0, [pc, #-261]!	; 5e3 <kernel_start-0x7fffa5d>
     6e4:	0405bc25 	streq	fp, [r5], #-3109	; 0xfffff3db
     6e8:	3d0e054b 	cfstr32cc	mvfx0, [lr, #-300]	; 0xfffffed4
     6ec:	052e1305 	streq	r1, [lr, #-773]!	; 0xfffffcfb
     6f0:	0905580e 	stmdbeq	r5, {r1, r2, r3, fp, ip, lr}
     6f4:	3d0c054b 	cfstr32cc	mvfx0, [ip, #-300]	; 0xfffffed4
     6f8:	053d0f05 	ldreq	r0, [sp, #-3845]!	; 0xfffff0fb
     6fc:	0f052e14 	svceq	0x00052e14
     700:	3d010558 	cfstr32cc	mvfx0, [r1, #-352]	; 0xfffffea0
     704:	05a02705 	streq	r2, [r0, #1797]!	; 0x705
     708:	0e054b04 	vmlaeq.f64	d4, d5, d4
     70c:	2e13053d 	mrccs	5, 0, r0, cr3, cr13, {1}
     710:	05580e05 	ldrbeq	r0, [r8, #-3589]	; 0xfffff1fb
     714:	0c054b09 			; <UNDEFINED> instruction: 0x0c054b09
     718:	3d0f053d 	cfstr32cc	mvfx0, [pc, #-244]	; 62c <kernel_start-0x7fffa14>
     71c:	052e1405 	streq	r1, [lr, #-1029]!	; 0xfffffbfb
     720:	0105580f 	tsteq	r5, pc, lsl #16
     724:	a137053d 	teqge	r7, sp, lsr r5
     728:	05670205 	strbeq	r0, [r7, #-517]!	; 0xfffffdfb
     72c:	32055901 	andcc	r5, r5, #16384	; 0x4000
     730:	68090569 	stmdavs	r9, {r0, r3, r5, r6, r8, sl}
     734:	053c0705 	ldreq	r0, [ip, #-1797]!	; 0xfffff8fb
     738:	0a052f02 	beq	14c348 <kernel_start-0x7eb3cf8>
     73c:	59010583 	stmdbpl	r1, {r0, r1, r7, r8, sl}
     740:	05af3205 	streq	r3, [pc, #517]!	; 94d <kernel_start-0x7fff6f3>
     744:	32056801 	andcc	r6, r5, #65536	; 0x10000
     748:	6709055b 	smlsdvs	r9, fp, r5, r0
     74c:	053c0705 	ldreq	r0, [ip, #-1797]!	; 0xfffff8fb
     750:	0a052f02 	beq	14c360 <kernel_start-0x7eb3ce0>
     754:	59010583 	stmdbpl	r1, {r0, r1, r7, r8, sl}
     758:	05af3205 	streq	r3, [pc, #517]!	; 965 <kernel_start-0x7fff6db>
     75c:	07056709 	streq	r6, [r5, -r9, lsl #14]
     760:	2f02053c 	svccs	0x0002053c
     764:	05830a05 	streq	r0, [r3, #2565]	; 0xa05
     768:	0a025901 	beq	96b74 <kernel_start-0x7f694cc>
     76c:	24010100 	strcs	r0, [r1], #-256	; 0xffffff00
     770:	03000001 	movweq	r0, #1
     774:	00006b00 	andeq	r6, r0, r0, lsl #22
     778:	fb010200 	blx	40f82 <kernel_start-0x7fbf0be>
     77c:	01000d0e 	tsteq	r0, lr, lsl #26
     780:	00010101 	andeq	r0, r1, r1, lsl #2
     784:	00010000 	andeq	r0, r1, r0
     788:	72730100 	rsbsvc	r0, r3, #0, 2
     78c:	656d2f63 	strbvs	r2, [sp, #-3939]!	; 0xfffff09d
     790:	79726f6d 	ldmdbvc	r2!, {r0, r2, r3, r5, r6, r8, r9, sl, fp, sp, lr}^
     794:	6e616d5f 	mcrvs	13, 3, r6, cr1, cr15, {2}
     798:	6d656761 	stclvs	7, cr6, [r5, #-388]!	; 0xfffffe7c
     79c:	00746e65 	rsbseq	r6, r4, r5, ror #28
     7a0:	7273752f 	rsbsvc	r7, r3, #197132288	; 0xbc00000
     7a4:	62696c2f 	rsbvs	r6, r9, #12032	; 0x2f00
     7a8:	6363672f 	cmnvs	r3, #12320768	; 0xbc0000
     7ac:	6d72612f 	ldfvse	f6, [r2, #-188]!	; 0xffffff44
     7b0:	6e6f6e2d 	cdpvs	14, 6, cr6, cr15, cr13, {1}
     7b4:	61652d65 	cmnvs	r5, r5, ror #26
     7b8:	312f6962 			; <UNDEFINED> instruction: 0x312f6962
     7bc:	2e332e30 	mrccs	14, 1, r2, cr3, cr0, {1}
     7c0:	6e692f31 	mcrvs	15, 3, r2, cr9, cr1, {1}
     7c4:	64756c63 	ldrbtvs	r6, [r5], #-3171	; 0xfffff39d
     7c8:	6d000065 	stcvs	0, cr0, [r0, #-404]	; 0xfffffe6c
     7cc:	726f6d65 	rsbvc	r6, pc, #6464	; 0x1940
     7d0:	00632e79 	rsbeq	r2, r3, r9, ror lr
     7d4:	73000001 	movwvc	r0, #1
     7d8:	6e696474 	mcrvs	4, 3, r6, cr9, cr4, {3}
     7dc:	00682e74 	rsbeq	r2, r8, r4, ror lr
     7e0:	00000002 	andeq	r0, r0, r2
     7e4:	05002405 	streq	r2, [r0, #-1029]	; 0xfffffbfb
     7e8:	000bb802 	andeq	fp, fp, r2, lsl #16
     7ec:	09051508 	stmdbeq	r5, {r3, r8, sl, ip}
     7f0:	6701052f 	strvs	r0, [r1, -pc, lsr #10]
     7f4:	05691805 	strbeq	r1, [r9, #-2053]!	; 0xfffff7fb
     7f8:	0a053d0e 	beq	14fc38 <kernel_start-0x7eb0408>
     7fc:	3105212f 	tstcc	r5, pc, lsr #2
     800:	2f240520 	svccs	0x00240520
     804:	05480a05 	strbeq	r0, [r8, #-2565]	; 0xfffff5fb
     808:	24054e01 	strcs	r4, [r5], #-3585	; 0xfffff1ff
     80c:	3d0e05af 	cfstr32cc	mvfx0, [lr, #-700]	; 0xfffffd44
     810:	05300a05 	ldreq	r0, [r0, #-2565]!	; 0xfffff5fb
     814:	1905211c 	stmdbne	r5, {r2, r3, r4, r8, sp}
     818:	2f0b0520 	svccs	0x000b0520
     81c:	02002505 	andeq	r2, r0, #20971520	; 0x1400000
     820:	053c0104 	ldreq	r0, [ip, #-260]!	; 0xfffffefc
     824:	0a052f24 	beq	14c4bc <kernel_start-0x7eb3b84>
     828:	4f0c0547 	svcmi	0x000c0547
     82c:	05210105 	streq	r0, [r1, #-261]!	; 0xfffffefb
     830:	12059417 	andne	r9, r5, #385875968	; 0x17000000
     834:	3c05053d 	cfstr32cc	mvfx0, [r5], {61}	; 0x3d
     838:	02000a05 	andeq	r0, r0, #20480	; 0x5000
     83c:	05210304 	streq	r0, [r1, #-772]!	; 0xfffffcfc
     840:	04020017 	streq	r0, [r2], #-23	; 0xffffffe9
     844:	4a052003 	bmi	148858 <kernel_start-0x7eb77e8>
     848:	03040200 	movweq	r0, #16896	; 0x4200
     84c:	0005052d 	andeq	r0, r5, sp, lsr #10
     850:	3c010402 	cfstrscc	mvf0, [r1], {2}
     854:	054d0105 	strbeq	r0, [sp, #-261]	; 0xfffffefb
     858:	0e05931c 	mcreq	3, 0, r9, cr5, cr12, {0}
     85c:	3e0f0559 	cfrshl32cc	mvfx15, mvfx9, r0
     860:	05200c05 	streq	r0, [r0, #-3077]!	; 0xfffff3fb
     864:	12052f0a 	andne	r2, r5, #10, 30	; 0x28
     868:	59130521 	ldmdbpl	r3, {r0, r5, r8, sl}
     86c:	05201005 	streq	r1, [r0, #-5]!
     870:	19052c0a 	stmdbne	r5, {r1, r3, sl, fp, sp}
     874:	01040200 	mrseq	r0, R12_usr
     878:	4e15053c 	mrcmi	5, 0, r0, cr5, cr12, {1}
     87c:	054a0705 	strbeq	r0, [sl, #-1797]	; 0xfffff8fb
     880:	04020039 	streq	r0, [r2], #-57	; 0xffffffc7
     884:	0a053c01 	beq	14f890 <kernel_start-0x7eb07b0>
     888:	201e0530 	andscs	r0, lr, r0, lsr r5
     88c:	052f2105 	streq	r2, [pc, #-261]!	; 78f <kernel_start-0x7fff8b1>
     890:	09023001 	stmdbeq	r2, {r0, ip, sp}
     894:	59010100 	stmdbpl	r1, {r8}
     898:	03000001 	movweq	r0, #1
     89c:	00005d00 	andeq	r5, r0, r0, lsl #26
     8a0:	fb010200 	blx	410aa <kernel_start-0x7fbef96>
     8a4:	01000d0e 	tsteq	r0, lr, lsl #26
     8a8:	00010101 	andeq	r0, r1, r1, lsl #2
     8ac:	00010000 	andeq	r0, r1, r0
     8b0:	72730100 	rsbsvc	r0, r3, #0, 2
     8b4:	696d2f63 	stmdbvs	sp!, {r0, r1, r5, r6, r8, r9, sl, fp, sp}^
     8b8:	2f006373 	svccs	0x00006373
     8bc:	2f727375 	svccs	0x00727375
     8c0:	2f62696c 	svccs	0x0062696c
     8c4:	2f636367 	svccs	0x00636367
     8c8:	2d6d7261 	sfmcs	f7, 2, [sp, #-388]!	; 0xfffffe7c
     8cc:	656e6f6e 	strbvs	r6, [lr, #-3950]!	; 0xfffff092
     8d0:	6261652d 	rsbvs	r6, r1, #188743680	; 0xb400000
     8d4:	30312f69 	eorscc	r2, r1, r9, ror #30
     8d8:	312e332e 			; <UNDEFINED> instruction: 0x312e332e
     8dc:	636e692f 	cmnvs	lr, #770048	; 0xbc000
     8e0:	6564756c 	strbvs	r7, [r4, #-1388]!	; 0xfffffa94
     8e4:	756d0000 	strbvc	r0, [sp, #-0]!
     8e8:	2e636973 			; <UNDEFINED> instruction: 0x2e636973
     8ec:	00010063 	andeq	r0, r1, r3, rrx
     8f0:	64747300 	ldrbtvs	r7, [r4], #-768	; 0xfffffd00
     8f4:	2e746e69 	cdpcs	14, 7, cr6, cr4, cr9, {3}
     8f8:	00020068 	andeq	r0, r2, r8, rrx
     8fc:	19050000 	stmdbne	r5, {}	; <UNPREDICTABLE>
     900:	e4020500 	str	r0, [r2], #-1280	; 0xfffffb00
     904:	1908000c 	stmdbne	r8, {r2, r3}
     908:	05590905 	ldrbeq	r0, [r9, #-2309]	; 0xfffff6fb
     90c:	20054b01 	andcs	r4, r5, r1, lsl #22
     910:	4b180576 	blmi	601ef0 <kernel_start-0x79fe150>
     914:	053d1405 	ldreq	r1, [sp, #-1029]!	; 0xfffffbfb
     918:	0f053d0a 	svceq	0x00053d0a
     91c:	3b100521 	blcc	401da8 <kernel_start-0x7bfe298>
     920:	053c0a05 	ldreq	r0, [ip, #-2565]!	; 0xfffff5fb
     924:	2a053f01 	bcs	150530 <kernel_start-0x7eafb10>
     928:	680e055a 	stmdavs	lr, {r1, r3, r4, r6, r8, sl}
     92c:	052f0d05 	streq	r0, [pc, #-3333]!	; fffffc2f <used_pipes+0xdffffbfb>
     930:	0e052e05 	cdpeq	14, 0, cr2, cr5, cr5, {0}
     934:	03040200 	movweq	r0, #16896	; 0x4200
     938:	002a0521 	eoreq	r0, sl, r1, lsr #10
     93c:	3b030402 	blcc	c194c <kernel_start-0x7f3e6f4>
     940:	02001d05 	andeq	r1, r0, #320	; 0x140
     944:	053c0104 	ldreq	r0, [ip, #-260]!	; 0xfffffefc
     948:	04020021 	streq	r0, [r2], #-33	; 0xffffffdf
     94c:	05053c01 	streq	r3, [r5, #-3073]	; 0xfffff3ff
     950:	01040200 	mrseq	r0, R12_usr
     954:	3f0c0520 	svccc	0x000c0520
     958:	053c0705 	ldreq	r0, [ip, #-1797]!	; 0xfffff8fb
     95c:	09052f14 	stmdbeq	r5, {r2, r4, r8, r9, sl, fp, sp}
     960:	0823052e 	stmdaeq	r3!, {r1, r2, r3, r5, r8, sl}
     964:	582a053e 	stmdapl	sl!, {r1, r2, r3, r4, r5, r8, sl}
     968:	05661b05 	strbeq	r1, [r6, #-2821]!	; 0xfffff4fb
     96c:	23052111 	movwcs	r2, #20753	; 0x5111
     970:	582a0522 	stmdapl	sl!, {r1, r5, r8, sl}
     974:	05661b05 	strbeq	r1, [r6, #-2821]!	; 0xfffff4fb
     978:	23052111 	movwcs	r2, #20753	; 0x5111
     97c:	582a0522 	stmdapl	sl!, {r1, r5, r8, sl}
     980:	05661b05 	strbeq	r1, [r6, #-2821]!	; 0xfffff4fb
     984:	23052111 	movwcs	r2, #20753	; 0x5111
     988:	582a0522 	stmdapl	sl!, {r1, r5, r8, sl}
     98c:	05661b05 	strbeq	r1, [r6, #-2821]!	; 0xfffff4fb
     990:	23052111 	movwcs	r2, #20753	; 0x5111
     994:	582a0522 	stmdapl	sl!, {r1, r5, r8, sl}
     998:	05661b05 	strbeq	r1, [r6, #-2821]!	; 0xfffff4fb
     99c:	23052111 	movwcs	r2, #20753	; 0x5111
     9a0:	582a0522 	stmdapl	sl!, {r1, r5, r8, sl}
     9a4:	05661b05 	strbeq	r1, [r6, #-2821]!	; 0xfffff4fb
     9a8:	23052111 	movwcs	r2, #20753	; 0x5111
     9ac:	582a0522 	stmdapl	sl!, {r1, r5, r8, sl}
     9b0:	05661b05 	strbeq	r1, [r6, #-2821]!	; 0xfffff4fb
     9b4:	05052111 	streq	r2, [r5, #-273]	; 0xfffffeef
     9b8:	2e052122 	adfcssp	f2, f5, f2
     9bc:	660e053d 			; <UNDEFINED> instruction: 0x660e053d
     9c0:	05212805 	streq	r2, [r1, #-2053]!	; 0xfffff7fb
     9c4:	0e052e2a 	cdpeq	14, 0, cr2, cr5, cr10, {1}
     9c8:	05053d20 	streq	r3, [r5, #-3360]	; 0xfffff2e0
     9cc:	673d3d59 			; <UNDEFINED> instruction: 0x673d3d59
     9d0:	052e0e05 	streq	r0, [lr, #-3589]!	; 0xfffff1fb
     9d4:	1f052f01 	svcne	0x00052f01
     9d8:	592e05ae 	stmdbpl	lr!, {r1, r2, r3, r5, r7, r8, sl}
     9dc:	05660e05 	strbeq	r0, [r6, #-3589]!	; 0xfffff1fb
     9e0:	2a052128 	bcs	148e88 <kernel_start-0x7eb71b8>
     9e4:	200e052e 	andcs	r0, lr, lr, lsr #10
     9e8:	2f05053d 	svccs	0x0005053d
     9ec:	023d0105 	eorseq	r0, sp, #1073741825	; 0x40000001
     9f0:	01010009 	tsteq	r1, r9
     9f4:	0000010c 	andeq	r0, r0, ip, lsl #2
     9f8:	00620003 	rsbeq	r0, r2, r3
     9fc:	01020000 	mrseq	r0, (UNDEF: 2)
     a00:	000d0efb 	strdeq	r0, [sp], -fp
     a04:	01010101 	tsteq	r1, r1, lsl #2
     a08:	01000000 	mrseq	r0, (UNDEF: 0)
     a0c:	73010000 	movwvc	r0, #4096	; 0x1000
     a10:	702f6372 	eorvc	r6, pc, r2, ror r3	; <UNPREDICTABLE>
     a14:	70697265 	rsbvc	r7, r9, r5, ror #4
     a18:	61726568 	cmnvs	r2, r8, ror #10
     a1c:	2f00736c 	svccs	0x0000736c
     a20:	2f727375 	svccs	0x00727375
     a24:	2f62696c 	svccs	0x0062696c
     a28:	2f636367 	svccs	0x00636367
     a2c:	2d6d7261 	sfmcs	f7, 2, [sp, #-388]!	; 0xfffffe7c
     a30:	656e6f6e 	strbvs	r6, [lr, #-3950]!	; 0xfffff092
     a34:	6261652d 	rsbvs	r6, r1, #188743680	; 0xb400000
     a38:	30312f69 	eorscc	r2, r1, r9, ror #30
     a3c:	312e332e 			; <UNDEFINED> instruction: 0x312e332e
     a40:	636e692f 	cmnvs	lr, #770048	; 0xbc000
     a44:	6564756c 	strbvs	r7, [r4, #-1388]!	; 0xfffffa94
     a48:	64610000 	strbtvs	r0, [r1], #-0
     a4c:	00632e63 	rsbeq	r2, r3, r3, ror #28
     a50:	73000001 	movwvc	r0, #1
     a54:	6e696474 	mcrvs	4, 3, r6, cr9, cr4, {3}
     a58:	00682e74 	rsbeq	r2, r8, r4, ror lr
     a5c:	00000002 	andeq	r0, r0, r2
     a60:	05004405 	streq	r4, [r0, #-1029]	; 0xfffffbfb
     a64:	000ef402 	andeq	pc, lr, r2, lsl #8
     a68:	0d051508 	cfstr32eq	mvfx1, [r5, #-32]	; 0xffffffe0
     a6c:	1a05676a 	bne	15a81c <kernel_start-0x7ea5824>
     a70:	2e1f052e 	cfmul64cs	mvdx0, mvdx15, mvdx14
     a74:	052e0d05 	streq	r0, [lr, #-3333]!	; 0xfffff2fb
     a78:	03053e09 	movweq	r3, #24073	; 0x5e09
     a7c:	0011052e 	andseq	r0, r1, lr, lsr #10
     a80:	21030402 	tstcs	r3, r2, lsl #8
     a84:	02002205 	andeq	r2, r0, #1342177280	; 0x50000000
     a88:	052e0304 	streq	r0, [lr, #-772]!	; 0xfffffcfc
     a8c:	0402001e 	streq	r0, [r2], #-30	; 0xffffffe2
     a90:	14054a03 	strne	r4, [r5], #-2563	; 0xfffff5fd
     a94:	03040200 	movweq	r0, #16896	; 0x4200
     a98:	0011053c 	andseq	r0, r1, ip, lsr r5
     a9c:	20030402 	andcs	r0, r3, r2, lsl #8
     aa0:	03040200 	movweq	r0, #16896	; 0x4200
     aa4:	001c053d 	andseq	r0, ip, sp, lsr r5
     aa8:	2e030402 	cdpcs	4, 0, cr0, cr3, cr2, {0}
     aac:	02002005 	andeq	r2, r0, #5
     ab0:	054a0304 	strbeq	r0, [sl, #-772]	; 0xfffffcfc
     ab4:	04020011 	streq	r0, [r2], #-17	; 0xffffffef
     ab8:	1c052e03 	stcne	14, cr2, [r5], {3}
     abc:	03040200 	movweq	r0, #16896	; 0x4200
     ac0:	0003053a 	andeq	r0, r3, sl, lsr r5
     ac4:	3c010402 	cfstrscc	mvf0, [r1], {2}
     ac8:	67500c05 	ldrbvs	r0, [r0, -r5, lsl #24]
     acc:	01056767 	tsteq	r5, r7, ror #14
     ad0:	ae1d0567 	cfmsc32ge	mvfx0, mvfx13, mvfx7
     ad4:	052f0805 	streq	r0, [pc, #-2053]!	; 2d7 <kernel_start-0x7fffd69>
     ad8:	0402000c 	streq	r0, [r2], #-12
     adc:	14052001 	strne	r2, [r5], #-1
     ae0:	01040200 	mrseq	r0, R12_usr
     ae4:	001c052e 	andseq	r0, ip, lr, lsr #10
     ae8:	20010402 	andcs	r0, r1, r2, lsl #8
     aec:	02000805 	andeq	r0, r0, #327680	; 0x50000
     af0:	052e0104 	streq	r0, [lr, #-260]!	; 0xfffffefc
     af4:	14052f0b 	strne	r2, [r5], #-3851	; 0xfffff0f5
     af8:	2e1c0567 	cfmsc32cs	mvfx0, mvfx12, mvfx7
     afc:	02210105 	eoreq	r0, r1, #1073741825	; 0x40000001
     b00:	01010009 	tsteq	r1, r9
     b04:	0000019f 	muleq	r0, pc, r1	; <UNPREDICTABLE>
     b08:	00630003 	rsbeq	r0, r3, r3
     b0c:	01020000 	mrseq	r0, (UNDEF: 2)
     b10:	000d0efb 	strdeq	r0, [sp], -fp
     b14:	01010101 	tsteq	r1, r1, lsl #2
     b18:	01000000 	mrseq	r0, (UNDEF: 0)
     b1c:	73010000 	movwvc	r0, #4096	; 0x1000
     b20:	702f6372 	eorvc	r6, pc, r2, ror r3	; <UNPREDICTABLE>
     b24:	70697265 	rsbvc	r7, r9, r5, ror #4
     b28:	61726568 	cmnvs	r2, r8, ror #10
     b2c:	2f00736c 	svccs	0x0000736c
     b30:	2f727375 	svccs	0x00727375
     b34:	2f62696c 	svccs	0x0062696c
     b38:	2f636367 	svccs	0x00636367
     b3c:	2d6d7261 	sfmcs	f7, 2, [sp, #-388]!	; 0xfffffe7c
     b40:	656e6f6e 	strbvs	r6, [lr, #-3950]!	; 0xfffff092
     b44:	6261652d 	rsbvs	r6, r1, #188743680	; 0xb400000
     b48:	30312f69 	eorscc	r2, r1, r9, ror #30
     b4c:	312e332e 			; <UNDEFINED> instruction: 0x312e332e
     b50:	636e692f 	cmnvs	lr, #770048	; 0xbc000
     b54:	6564756c 	strbvs	r7, [r4, #-1388]!	; 0xfffffa94
     b58:	70670000 	rsbvc	r0, r7, r0
     b5c:	632e6f69 			; <UNDEFINED> instruction: 0x632e6f69
     b60:	00000100 	andeq	r0, r0, r0, lsl #2
     b64:	69647473 	stmdbvs	r4!, {r0, r1, r4, r5, r6, sl, ip, sp, lr}^
     b68:	682e746e 	stmdavs	lr!, {r1, r2, r3, r5, r6, sl, ip, sp, lr}
     b6c:	00000200 	andeq	r0, r0, r0, lsl #4
     b70:	003d0500 	eorseq	r0, sp, r0, lsl #10
     b74:	0fe00205 	svceq	0x00e00205
     b78:	36030800 	strcc	r0, [r3], -r0, lsl #16
     b7c:	92050501 	andls	r0, r5, #4194304	; 0x400000
     b80:	0b030d05 	bleq	c3f9c <kernel_start-0x7f3c0a4>
     b84:	207703ac 	rsbscs	r0, r7, ip, lsr #7
     b88:	02040200 	andeq	r0, r4, #0, 4
     b8c:	00900806 	addseq	r0, r0, r6, lsl #16
     b90:	58030402 	stmdapl	r3, {r1, sl}
     b94:	04040200 	streq	r0, [r4], #-512	; 0xfffffe00
     b98:	04020058 	streq	r0, [r2], #-88	; 0xffffffa8
     b9c:	02005805 	andeq	r5, r0, #327680	; 0x50000
     ba0:	00580604 	subseq	r0, r8, r4, lsl #12
     ba4:	58070402 	stmdapl	r7, {r1, sl}
     ba8:	0402004a 	streq	r0, [r2], #-74	; 0xffffffb6
     bac:	02004a09 	andeq	r4, r0, #36864	; 0x9000
     bb0:	08060904 	stmdaeq	r6, {r2, r8, fp}
     bb4:	040200bb 	streq	r0, [r2], #-187	; 0xffffff45
     bb8:	02001f0a 	andeq	r1, r0, #10, 30	; 0x28
     bbc:	e5080a04 	str	r0, [r8, #-2564]	; 0xfffff5fc
     bc0:	04020022 	streq	r0, [r2], #-34	; 0xffffffde
     bc4:	90080602 	andls	r0, r8, r2, lsl #12
     bc8:	03040200 	movweq	r0, #16896	; 0x4200
     bcc:	04020058 	streq	r0, [r2], #-88	; 0xffffffa8
     bd0:	02005804 	andeq	r5, r0, #4, 16	; 0x40000
     bd4:	00580504 	subseq	r0, r8, r4, lsl #10
     bd8:	58060402 	stmdapl	r6, {r1, sl}
     bdc:	07040200 	streq	r0, [r4, -r0, lsl #4]
     be0:	02004a58 	andeq	r4, r0, #88, 20	; 0x58000
     be4:	004a0904 	subeq	r0, sl, r4, lsl #18
     be8:	06090402 	streq	r0, [r9], -r2, lsl #8
     bec:	0200bb08 	andeq	fp, r0, #8, 22	; 0x2000
     bf0:	001f0a04 	andseq	r0, pc, r4, lsl #20
     bf4:	080a0402 	stmdaeq	sl, {r1, sl}
     bf8:	020022e5 	andeq	r2, r0, #1342177294	; 0x5000000e
     bfc:	08060204 	stmdaeq	r6, {r2, r9}
     c00:	04020090 	streq	r0, [r2], #-144	; 0xffffff70
     c04:	02005803 	andeq	r5, r0, #196608	; 0x30000
     c08:	00580404 	subseq	r0, r8, r4, lsl #8
     c0c:	58050402 	stmdapl	r5, {r1, sl}
     c10:	06040200 	streq	r0, [r4], -r0, lsl #4
     c14:	04020058 	streq	r0, [r2], #-88	; 0xffffffa8
     c18:	004a5807 	subeq	r5, sl, r7, lsl #16
     c1c:	4a090402 	bmi	241c2c <kernel_start-0x7dbe414>
     c20:	09040200 	stmdbeq	r4, {r9}
     c24:	00bb0806 	adcseq	r0, fp, r6, lsl #16
     c28:	1f0a0402 	svcne	0x000a0402
     c2c:	0a040200 	beq	101434 <kernel_start-0x7efec0c>
     c30:	0522e508 	streq	lr, [r2, #-1288]!	; 0xfffffaf8
     c34:	36052201 	strcc	r2, [r5], -r1, lsl #4
     c38:	05052408 	streq	r2, [r5, #-1032]	; 0xfffffbf8
     c3c:	030d0592 	movweq	r0, #54674	; 0xd592
     c40:	1705900e 	strne	r9, [r5, -lr]
     c44:	05207403 	streq	r7, [r0, #-1027]!	; 0xfffffbfd
     c48:	24052e34 	strcs	r2, [r5], #-3636	; 0xfffff1cc
     c4c:	2015054a 	andscs	r0, r5, sl, asr #10
     c50:	052f2405 	streq	r2, [pc, #-1029]!	; 853 <kernel_start-0x7fff7ed>
     c54:	0d052034 	stceq	0, cr2, [r5, #-208]	; 0xffffff30
     c58:	2021052e 	eorcs	r0, r1, lr, lsr #10
     c5c:	052e1705 	streq	r1, [lr, #-1797]!	; 0xfffff8fb
     c60:	1705210d 	strne	r2, [r5, -sp, lsl #2]
     c64:	2e340522 	cdpcs	5, 3, cr0, cr4, cr2, {1}
     c68:	054a2405 	strbeq	r2, [sl, #-1029]	; 0xfffffbfb
     c6c:	24052015 	strcs	r2, [r5], #-21	; 0xffffffeb
     c70:	2034052f 	eorscs	r0, r4, pc, lsr #10
     c74:	052e0d05 	streq	r0, [lr, #-3333]!	; 0xfffff2fb
     c78:	17052021 	strne	r2, [r5, -r1, lsr #32]
     c7c:	210d052e 	tstcs	sp, lr, lsr #10
     c80:	05221705 	streq	r1, [r2, #-1797]!	; 0xfffff8fb
     c84:	24052e34 	strcs	r2, [r5], #-3636	; 0xfffff1cc
     c88:	2015054a 	andscs	r0, r5, sl, asr #10
     c8c:	052f2405 	streq	r2, [pc, #-1029]!	; 88f <kernel_start-0x7fff7b1>
     c90:	0d052034 	stceq	0, cr2, [r5, #-208]	; 0xffffff30
     c94:	2021052e 	eorcs	r0, r1, lr, lsr #10
     c98:	052e1705 	streq	r1, [lr, #-1797]!	; 0xfffff8fb
     c9c:	0522210d 	streq	r2, [r2, #-269]!	; 0xfffffef3
     ca0:	0b022201 	bleq	894ac <kernel_start-0x7f76b94>
     ca4:	01010100 	mrseq	r0, (UNDEF: 17)
     ca8:	03000002 	movweq	r0, #2
     cac:	00006400 	andeq	r6, r0, r0, lsl #8
     cb0:	fb010200 	blx	414ba <kernel_start-0x7fbeb86>
     cb4:	01000d0e 	tsteq	r0, lr, lsl #26
     cb8:	00010101 	andeq	r0, r1, r1, lsl #2
     cbc:	00010000 	andeq	r0, r1, r0
     cc0:	72730100 	rsbsvc	r0, r3, #0, 2
     cc4:	65702f63 	ldrbvs	r2, [r0, #-3939]!	; 0xfffff09d
     cc8:	68706972 	ldmdavs	r0!, {r1, r4, r5, r6, r8, fp, sp, lr}^
     ccc:	6c617265 	sfmvs	f7, 2, [r1], #-404	; 0xfffffe6c
     cd0:	752f0073 	strvc	r0, [pc, #-115]!	; c65 <kernel_start-0x7fff3db>
     cd4:	6c2f7273 	sfmvs	f7, 4, [pc], #-460	; b10 <kernel_start-0x7fff530>
     cd8:	672f6269 	strvs	r6, [pc, -r9, ror #4]!
     cdc:	612f6363 			; <UNDEFINED> instruction: 0x612f6363
     ce0:	6e2d6d72 	mcrvs	13, 1, r6, cr13, cr2, {3}
     ce4:	2d656e6f 	stclcs	14, cr6, [r5, #-444]!	; 0xfffffe44
     ce8:	69626165 	stmdbvs	r2!, {r0, r2, r5, r6, r8, sp, lr}^
     cec:	2e30312f 	rsfcssp	f3, f0, #10.0
     cf0:	2f312e33 	svccs	0x00312e33
     cf4:	6c636e69 	stclvs	14, cr6, [r3], #-420	; 0xfffffe5c
     cf8:	00656475 	rsbeq	r6, r5, r5, ror r4
     cfc:	6d697400 	cfstrdvs	mvd7, [r9, #-0]
     d00:	632e7265 			; <UNDEFINED> instruction: 0x632e7265
     d04:	00000100 	andeq	r0, r0, r0, lsl #2
     d08:	69647473 	stmdbvs	r4!, {r0, r1, r4, r5, r6, sl, ip, sp, lr}^
     d0c:	682e746e 	stmdavs	lr!, {r1, r2, r3, r5, r6, sl, ip, sp, lr}
     d10:	00000200 	andeq	r0, r0, r0, lsl #4
     d14:	001d0500 	andseq	r0, sp, r0, lsl #10
     d18:	13b00205 	movsne	r0, #1342177280	; 0x50000000
     d1c:	05170800 	ldreq	r0, [r7, #-2048]	; 0xfffff800
     d20:	1e053d1b 	mcrne	13, 0, r3, cr5, cr11, {0}
     d24:	2e38053d 	mrccs	5, 1, r0, cr8, cr13, {1}
     d28:	3d200e05 	stccc	14, cr0, [r0, #-20]!	; 0xffffffec
     d2c:	052f1105 	streq	r1, [pc, #-261]!	; c2f <kernel_start-0x7fff411>
     d30:	0b052e05 	bleq	14c54c <kernel_start-0x7eb3af4>
     d34:	001c0521 	andseq	r0, ip, r1, lsr #10
     d38:	3c010402 	cfstrscc	mvf0, [r1], {2}
     d3c:	02001105 	andeq	r1, r0, #1073741825	; 0x40000001
     d40:	053d0204 	ldreq	r0, [sp, #-516]!	; 0xfffffdfc
     d44:	0402002a 	streq	r0, [r2], #-42	; 0xffffffd6
     d48:	1a053a02 	bne	14f558 <kernel_start-0x7eb0ae8>
     d4c:	01040200 	mrseq	r0, R12_usr
     d50:	0005053c 	andeq	r0, r5, ip, lsr r5
     d54:	20010402 	andcs	r0, r1, r2, lsl #8
     d58:	05400e05 	strbeq	r0, [r0, #-3589]	; 0xfffff1fb
     d5c:	3a05591e 	bcc	1571dc <kernel_start-0x7ea8e64>
     d60:	2e0e052e 	cfsh32cs	mvfx0, mvfx14, #30
     d64:	2f11054b 	svccs	0x0011054b
     d68:	052e0505 	streq	r0, [lr, #-1285]!	; 0xfffffafb
     d6c:	04020012 	streq	r0, [r2], #-18	; 0xffffffee
     d70:	2b052103 	blcs	149184 <kernel_start-0x7eb6ebc>
     d74:	03040200 	movweq	r0, #16896	; 0x4200
     d78:	001a053b 	andseq	r0, sl, fp, lsr r5
     d7c:	3c010402 	cfstrscc	mvf0, [r1], {2}
     d80:	02000505 	andeq	r0, r0, #20971520	; 0x1400000
     d84:	052e0104 	streq	r0, [lr, #-260]!	; 0xfffffefc
     d88:	0e053f2c 	cdpeq	15, 0, cr3, cr5, cr12, {1}
     d8c:	4b070520 	blmi	1c2214 <kernel_start-0x7e3de2c>
     d90:	02001e05 	andeq	r1, r0, #5, 28	; 0x50
     d94:	053c0104 	ldreq	r0, [ip, #-260]!	; 0xfffffefc
     d98:	01052f1f 	tsteq	r5, pc, lsl pc
     d9c:	6a20052f 	bvs	802260 <kernel_start-0x77fdde0>
     da0:	054e0305 	strbeq	r0, [lr, #-773]	; 0xfffffcfb
     da4:	03052e0c 	movweq	r2, #24076	; 0x5e0c
     da8:	200e052f 	andcs	r0, lr, pc, lsr #10
     dac:	053d0305 	ldreq	r0, [sp, #-773]!	; 0xfffffcfb
     db0:	0c05200d 	stceq	0, cr2, [r5], {13}
     db4:	3d180532 	cfldr32cc	mvfx0, [r8, #-200]	; 0xffffff38
     db8:	052e0305 	streq	r0, [lr, #-773]!	; 0xfffffcfb
     dbc:	1a05200c 	bne	148df4 <kernel_start-0x7eb724c>
     dc0:	3d150524 	cfldr32cc	mvfx0, [r5, #-144]	; 0xffffff70
     dc4:	05581a05 	ldrbeq	r1, [r8, #-2565]	; 0xfffff5fb
     dc8:	03053c07 	movweq	r3, #23559	; 0x5c07
     dcc:	200c054b 	andcs	r0, ip, fp, asr #10
     dd0:	052f0305 	streq	r0, [pc, #-773]!	; ad3 <kernel_start-0x7fff56d>
     dd4:	0d052012 	stceq	0, cr2, [r5, #-72]	; 0xffffffb8
     dd8:	2303052e 	movwcs	r0, #13614	; 0x352e
     ddc:	05200c05 	streq	r0, [r0, #-3077]!	; 0xfffff3fb
     de0:	0c052f0b 	stceq	15, cr2, [r5], {11}
     de4:	8501055b 	strhi	r0, [r1, #-1371]	; 0xfffffaa5
     de8:	22086805 	andcs	r6, r8, #327680	; 0x50000
     dec:	057a0305 	ldrbeq	r0, [sl, #-773]!	; 0xfffffcfb
     df0:	08260307 	stmdaeq	r6!, {r0, r1, r2, r8, r9}
     df4:	205c0390 			; <UNDEFINED> instruction: 0x205c0390
     df8:	05201005 	streq	r1, [r0, #-5]!
     dfc:	10052f07 	andne	r2, r5, r7, lsl #30
     e00:	2f1c0520 	svccs	0x001c0520
     e04:	052e0705 	streq	r0, [lr, #-1797]!	; 0xfffff8fb
     e08:	10052e22 	andne	r2, r5, r2, lsr #28
     e0c:	2107052e 	tstcs	r7, lr, lsr #10
     e10:	05201005 	streq	r1, [r0, #-5]!
     e14:	10052f0f 	andne	r2, r5, pc, lsl #30
     e18:	83070559 	movwhi	r0, #30041	; 0x7559
     e1c:	05201105 	streq	r1, [r0, #-261]!	; 0xfffffefb
     e20:	05222f07 	streq	r2, [r2, #-3847]!	; 0xfffff0f9
     e24:	07052010 	smladeq	r5, r0, r0, r2
     e28:	2010052f 	andscs	r0, r0, pc, lsr #10
     e2c:	052f1c05 	streq	r1, [pc, #-3077]!	; 22f <kernel_start-0x7fffe11>
     e30:	22052e07 	andcs	r2, r5, #7, 28	; 0x70
     e34:	2e100520 	cfmul64cs	mvdx0, mvdx0, mvdx0
     e38:	05210705 	streq	r0, [r1, #-1797]!	; 0xfffff8fb
     e3c:	0f052010 	svceq	0x00052010
     e40:	5910052f 	ldmdbpl	r0, {r0, r1, r2, r3, r5, r8, sl}
     e44:	05670705 	strbeq	r0, [r7, #-1797]!	; 0xfffff8fb
     e48:	07052011 	smladeq	r5, r1, r0, r2
     e4c:	1005222f 	andne	r2, r5, pc, lsr #4
     e50:	2f070520 	svccs	0x00070520
     e54:	05201005 	streq	r1, [r0, #-5]!
     e58:	07052f1c 	smladeq	r5, ip, pc, r2	; <UNPREDICTABLE>
     e5c:	2022052e 	eorcs	r0, r2, lr, lsr #10
     e60:	052e1005 	streq	r1, [lr, #-5]!
     e64:	10052107 	andne	r2, r5, r7, lsl #2
     e68:	2f0f0520 	svccs	0x000f0520
     e6c:	05591005 	ldrbeq	r1, [r9, #-5]
     e70:	11056707 	tstne	r5, r7, lsl #14
     e74:	2f070520 	svccs	0x00070520
     e78:	20100522 	andscs	r0, r0, r2, lsr #10
     e7c:	052f0705 	streq	r0, [pc, #-1797]!	; 77f <kernel_start-0x7fff8c1>
     e80:	1c052010 	stcne	0, cr2, [r5], {16}
     e84:	2e07052f 	cfsh32cs	mvfx0, mvfx7, #31
     e88:	05202205 	streq	r2, [r0, #-517]!	; 0xfffffdfb
     e8c:	07052e10 	smladeq	r5, r0, lr, r2
     e90:	20100521 	andscs	r0, r0, r1, lsr #10
     e94:	052f0f05 	streq	r0, [pc, #-3845]!	; ffffff97 <used_pipes+0xdfffff63>
     e98:	07055910 	smladeq	r5, r0, r9, r5
     e9c:	20110567 	andscs	r0, r1, r7, ror #10
     ea0:	222f0705 	eorcs	r0, pc, #1310720	; 0x140000
     ea4:	02220105 	eoreq	r0, r2, #1073741825	; 0x40000001
     ea8:	01010034 	tsteq	r1, r4, lsr r0
     eac:	00000127 	andeq	r0, r0, r7, lsr #2
     eb0:	00640003 	rsbeq	r0, r4, r3
     eb4:	01020000 	mrseq	r0, (UNDEF: 2)
     eb8:	000d0efb 	strdeq	r0, [sp], -fp
     ebc:	01010101 	tsteq	r1, r1, lsl #2
     ec0:	01000000 	mrseq	r0, (UNDEF: 0)
     ec4:	73010000 	movwvc	r0, #4096	; 0x1000
     ec8:	702f6372 	eorvc	r6, pc, r2, ror r3	; <UNPREDICTABLE>
     ecc:	70697265 	rsbvc	r7, r9, r5, ror #4
     ed0:	61726568 	cmnvs	r2, r8, ror #10
     ed4:	2f00736c 	svccs	0x0000736c
     ed8:	2f727375 	svccs	0x00727375
     edc:	2f62696c 	svccs	0x0062696c
     ee0:	2f636367 	svccs	0x00636367
     ee4:	2d6d7261 	sfmcs	f7, 2, [sp, #-388]!	; 0xfffffe7c
     ee8:	656e6f6e 	strbvs	r6, [lr, #-3950]!	; 0xfffff092
     eec:	6261652d 	rsbvs	r6, r1, #188743680	; 0xb400000
     ef0:	30312f69 	eorscc	r2, r1, r9, ror #30
     ef4:	312e332e 			; <UNDEFINED> instruction: 0x312e332e
     ef8:	636e692f 	cmnvs	lr, #770048	; 0xbc000
     efc:	6564756c 	strbvs	r7, [r4, #-1388]!	; 0xfffffa94
     f00:	73750000 	cmnvc	r5, #0
     f04:	2e747261 	cdpcs	2, 7, cr7, cr4, cr1, {3}
     f08:	00010063 	andeq	r0, r1, r3, rrx
     f0c:	64747300 	ldrbtvs	r7, [r4], #-768	; 0xfffffd00
     f10:	2e746e69 	cdpcs	14, 7, cr6, cr4, cr9, {3}
     f14:	00020068 	andeq	r0, r2, r8, rrx
     f18:	23050000 	movwcs	r0, #20480	; 0x5000
     f1c:	90020500 	andls	r0, r2, r0, lsl #10
     f20:	18080016 	stmdane	r8, {r1, r2, r4}
     f24:	594b0305 	stmdbpl	fp, {r0, r2, r8, r9}^
     f28:	200e055a 	andcs	r0, lr, sl, asr r5
     f2c:	053d0305 	ldreq	r0, [sp, #-773]!	; 0xfffffcfb
     f30:	1305200e 	movwne	r2, #20494	; 0x500e
     f34:	3c0c0531 	cfstr32cc	mvfx0, [ip], {49}	; 0x31
     f38:	055a1705 	ldrbeq	r1, [sl, #-1797]	; 0xfffff8fb
     f3c:	0c052e20 	stceq	14, cr2, [r5], {32}
     f40:	3d0f0520 	cfstr32cc	mvfx0, [pc, #-128]	; ec8 <kernel_start-0x7fff178>
     f44:	052e0505 	streq	r0, [lr, #-1285]!	; 0xfffffafb
     f48:	13052f0f 	movwne	r2, #24335	; 0x5f0f
     f4c:	2e07054b 	cfsh32cs	mvfx0, mvfx7, #43
     f50:	05210d05 	streq	r0, [r1, #-3333]!	; 0xfffff2fb
     f54:	0402001f 	streq	r0, [r2], #-31	; 0xffffffe1
     f58:	10053c01 	andne	r3, r5, r1, lsl #24
     f5c:	02040200 	andeq	r0, r4, #0, 4
     f60:	0028053d 	eoreq	r0, r8, sp, lsr r5
     f64:	3a020402 	bcc	81f74 <kernel_start-0x7f7e0cc>
     f68:	02001c05 	andeq	r1, r0, #1280	; 0x500
     f6c:	053c0104 	ldreq	r0, [ip, #-260]!	; 0xfffffefc
     f70:	04020007 	streq	r0, [r2], #-7
     f74:	18052001 	stmdane	r5, {r0, sp}
     f78:	2e210542 	cfsh64cs	mvdx0, mvdx1, #34
     f7c:	05200c05 	streq	r0, [r0, #-3077]!	; 0xfffff3fb
     f80:	05053d0f 	streq	r3, [r5, #-3343]	; 0xfffff2f1
     f84:	2f0f052e 	svccs	0x000f052e
     f88:	054b1305 	strbeq	r1, [fp, #-773]	; 0xfffffcfb
     f8c:	10052e07 	andne	r2, r5, r7, lsl #28
     f90:	03040200 	movweq	r0, #16896	; 0x4200
     f94:	00290521 	eoreq	r0, r9, r1, lsr #10
     f98:	3b030402 	blcc	c1fa8 <kernel_start-0x7f3e098>
     f9c:	02001c05 	andeq	r1, r0, #1280	; 0x500
     fa0:	053c0104 	ldreq	r0, [ip, #-260]!	; 0xfffffefc
     fa4:	04020007 	streq	r0, [r2], #-7
     fa8:	1c052001 	stcne	0, cr2, [r5], {1}
     fac:	2e0c0541 	cfsh32cs	mvfx0, mvfx12, #33
     fb0:	054c0305 	strbeq	r0, [ip, #-773]	; 0xfffffcfb
     fb4:	0e05201a 	mcreq	0, 0, r2, cr5, cr10, {0}
     fb8:	2101052e 	tstcs	r1, lr, lsr #10
     fbc:	05cb1e05 	strbeq	r1, [fp, #3589]	; 0xe05
     fc0:	0567300e 	strbeq	r3, [r7, #-14]!
     fc4:	24056701 	strcs	r6, [r5], #-1793	; 0xfffff8ff
     fc8:	59030568 	stmdbpl	r3, {r3, r5, r6, r8, sl}
     fcc:	05200d05 	streq	r0, [r0, #-3333]!	; 0xfffff2fb
     fd0:	08022f01 	stmdaeq	r2, {r0, r8, r9, sl, fp, sp}
     fd4:	2a010100 	bcs	413dc <kernel_start-0x7fbec64>
     fd8:	03000001 	movweq	r0, #1
     fdc:	00006300 	andeq	r6, r0, r0, lsl #6
     fe0:	fb010200 	blx	417ea <kernel_start-0x7fbe856>
     fe4:	01000d0e 	tsteq	r0, lr, lsl #26
     fe8:	00010101 	andeq	r0, r1, r1, lsl #2
     fec:	00010000 	andeq	r0, r1, r0
     ff0:	72730100 	rsbsvc	r0, r3, #0, 2
     ff4:	72702f63 	rsbsvc	r2, r0, #396	; 0x18c
     ff8:	7365636f 	cmnvc	r5, #-1140850687	; 0xbc000001
     ffc:	752f0073 	strvc	r0, [pc, #-115]!	; f91 <kernel_start-0x7fff0af>
    1000:	6c2f7273 	sfmvs	f7, 4, [pc], #-460	; e3c <kernel_start-0x7fff204>
    1004:	672f6269 	strvs	r6, [pc, -r9, ror #4]!
    1008:	612f6363 			; <UNDEFINED> instruction: 0x612f6363
    100c:	6e2d6d72 	mcrvs	13, 1, r6, cr13, cr2, {3}
    1010:	2d656e6f 	stclcs	14, cr6, [r5, #-444]!	; 0xfffffe44
    1014:	69626165 	stmdbvs	r2!, {r0, r2, r5, r6, r8, sp, lr}^
    1018:	2e30312f 	rsfcssp	f3, f0, #10.0
    101c:	2f312e33 	svccs	0x00312e33
    1020:	6c636e69 	stclvs	14, cr6, [r3], #-420	; 0xfffffe5c
    1024:	00656475 	rsbeq	r6, r5, r5, ror r4
    1028:	42435000 	submi	r5, r3, #0
    102c:	73696c2d 	cmnvc	r9, #11520	; 0x2d00
    1030:	00632e74 	rsbeq	r2, r3, r4, ror lr
    1034:	73000001 	movwvc	r0, #1
    1038:	6e696474 	mcrvs	4, 3, r6, cr9, cr4, {3}
    103c:	00682e74 	rsbeq	r2, r8, r4, ror lr
    1040:	00000002 	andeq	r0, r0, r2
    1044:	05001105 	streq	r1, [r0, #-261]	; 0xfffffefb
    1048:	0017b802 	andseq	fp, r7, r2, lsl #16
    104c:	01160308 	tsteq	r6, r8, lsl #6
    1050:	052f0a05 	streq	r0, [pc, #-2565]!	; 653 <kernel_start-0x7fff9ed>
    1054:	1a052e04 	bne	14c86c <kernel_start-0x7eb37d4>
    1058:	01040200 	mrseq	r0, R12_usr
    105c:	2f09052e 	svccs	0x0009052e
    1060:	05210105 	streq	r0, [r1, #-261]!	; 0xfffffefb
    1064:	0505771e 	streq	r7, [r5, #-1822]	; 0xfffff8e2
    1068:	3c04054b 	cfstr32cc	mvfx0, [r4], {75}	; 0x4b
    106c:	3d2f0805 	stccc	8, cr0, [pc, #-20]!	; 1060 <kernel_start-0x7ffefe0>
    1070:	053d0705 	ldreq	r0, [sp, #-1797]!	; 0xfffff8fb
    1074:	07052e0e 	streq	r2, [r5, -lr, lsl #28]
    1078:	2e0e053d 	mcrcs	5, 0, r0, cr14, cr13, {1}
    107c:	0a030105 	beq	c1498 <kernel_start-0x7f3eba8>
    1080:	0308053c 	movweq	r0, #34108	; 0x853c
    1084:	054b2079 	strbeq	r2, [fp, #-121]	; 0xffffff87
    1088:	0e053d07 	cdpeq	13, 0, cr3, cr5, cr7, {0}
    108c:	3d07052e 	cfstr32cc	mvfx0, [r7, #-184]	; 0xffffff48
    1090:	052e0e05 	streq	r0, [lr, #-3589]!	; 0xfffff1fb
    1094:	0e053d07 	cdpeq	13, 0, cr3, cr5, cr7, {0}
    1098:	3d07052e 	cfstr32cc	mvfx0, [r7, #-184]	; 0xffffff48
    109c:	052e0e05 	streq	r0, [lr, #-3589]!	; 0xfffff1fb
    10a0:	21053e01 	tstcs	r5, r1, lsl #28
    10a4:	4b0a05af 	blmi	282768 <kernel_start-0x7d7d8d8>
    10a8:	052e0405 	streq	r0, [lr, #-1029]!	; 0xfffffbfb
    10ac:	08053d0e 	stmdaeq	r5, {r1, r2, r3, r8, sl, fp, ip, sp}
    10b0:	2f15052e 	svccs	0x0015052e
    10b4:	052e0705 	streq	r0, [lr, #-1797]!	; 0xfffff8fb
    10b8:	0e052e1c 	mcreq	14, 0, r2, cr5, cr12, {0}
    10bc:	21070520 	tstcs	r7, r0, lsr #10
    10c0:	052e0e05 	streq	r0, [lr, #-3589]!	; 0xfffff1fb
    10c4:	0e053d07 	cdpeq	13, 0, cr3, cr5, cr7, {0}
    10c8:	0301052e 	movweq	r0, #5422	; 0x152e
    10cc:	0f053c0f 	svceq	0x00053c0f
    10d0:	05207303 	streq	r7, [r0, #-771]!	; 0xfffffcfd
    10d4:	0e052e09 	cdpeq	14, 0, cr2, cr5, cr9, {0}
    10d8:	2e08053d 	mcrcs	5, 0, r0, cr8, cr13, {1}
    10dc:	052f0705 	streq	r0, [pc, #-1797]!	; 9df <kernel_start-0x7fff661>
    10e0:	15052e0e 	strne	r2, [r5, #-3598]	; 0xfffff1f2
    10e4:	2e07053d 	mcrcs	5, 0, r0, cr7, cr13, {1}
    10e8:	052e1c05 	streq	r1, [lr, #-3077]!	; 0xfffff3fb
    10ec:	0105200e 	tsteq	r5, lr
    10f0:	05200a03 	streq	r0, [r0, #-2563]!	; 0xfffff5fd
    10f4:	2079030f 	rsbscs	r0, r9, pc, lsl #6
    10f8:	0e053e3d 	mcreq	14, 0, r3, cr5, cr13, {1}
    10fc:	3f01053d 	svccc	0x0001053d
    1100:	01000902 	tsteq	r0, r2, lsl #18
    1104:	00016e01 	andeq	r6, r1, r1, lsl #28
    1108:	6f000300 	svcvs	0x00000300
    110c:	02000000 	andeq	r0, r0, #0
    1110:	0d0efb01 	vstreq	d15, [lr, #-4]
    1114:	01010100 	mrseq	r0, (UNDEF: 17)
    1118:	00000001 	andeq	r0, r0, r1
    111c:	01000001 	tsteq	r0, r1
    1120:	2f637273 	svccs	0x00637273
    1124:	636f7270 	cmnvs	pc, #112, 4
    1128:	00737365 	rsbseq	r7, r3, r5, ror #6
    112c:	7273752f 	rsbsvc	r7, r3, #197132288	; 0xbc00000
    1130:	62696c2f 	rsbvs	r6, r9, #12032	; 0x2f00
    1134:	6363672f 	cmnvs	r3, #12320768	; 0xbc0000
    1138:	6d72612f 	ldfvse	f6, [r2, #-188]!	; 0xffffff44
    113c:	6e6f6e2d 	cdpvs	14, 6, cr6, cr15, cr13, {1}
    1140:	61652d65 	cmnvs	r5, r5, ror #26
    1144:	312f6962 			; <UNDEFINED> instruction: 0x312f6962
    1148:	2e332e30 	mrccs	14, 1, r2, cr3, cr0, {1}
    114c:	6e692f31 	mcrvs	15, 3, r2, cr9, cr1, {1}
    1150:	64756c63 	ldrbtvs	r6, [r5], #-3171	; 0xfffff39d
    1154:	70000065 	andvc	r0, r0, r5, rrx
    1158:	65636f72 	strbvs	r6, [r3, #-3954]!	; 0xfffff08e
    115c:	632e7373 			; <UNDEFINED> instruction: 0x632e7373
    1160:	00000100 	andeq	r0, r0, r0, lsl #2
    1164:	69647473 	stmdbvs	r4!, {r0, r1, r4, r5, r6, sl, ip, sp, lr}^
    1168:	682e746e 	stmdavs	lr!, {r1, r2, r3, r5, r6, sl, ip, sp, lr}
    116c:	00000200 	andeq	r0, r0, r0, lsl #4
    1170:	636f7270 	cmnvs	pc, #112, 4
    1174:	2e737365 	cdpcs	3, 7, cr7, cr3, cr5, {3}
    1178:	00010068 	andeq	r0, r1, r8, rrx
    117c:	3c050000 	stccc	0, cr0, [r5], {-0}
    1180:	e8020500 	stmda	r2, {r8, sl}
    1184:	03080018 	movweq	r0, #32792	; 0x8018
    1188:	0205010c 	andeq	r0, r5, #12, 2
    118c:	1b053114 	blne	14d5e4 <kernel_start-0x7eb2a5c>
    1190:	32020532 	andcc	r0, r2, #209715200	; 0xc800000
    1194:	09035f5f 	stmdbeq	r3, {r0, r1, r2, r3, r4, r6, r8, r9, sl, fp, ip, lr}
    1198:	03511758 	cmpeq	r1, #88, 14	; 0x1600000
    119c:	1103660c 	tstne	r3, ip, lsl #12
    11a0:	1b032008 	blne	c91c8 <kernel_start-0x7f36e78>
    11a4:	057bba08 	ldrbeq	fp, [fp, #-2568]!	; 0xfffff5f8
    11a8:	660c0301 	strvs	r0, [ip], -r1, lsl #6
    11ac:	05241505 	streq	r1, [r4, #-1285]!	; 0xfffffafb
    11b0:	0a053d0b 	beq	1505e4 <kernel_start-0x7eafa5c>
    11b4:	2f07052f 	svccs	0x0007052f
    11b8:	05210d05 	streq	r0, [r1, #-3333]!	; 0xfffff2fb
    11bc:	04052012 	streq	r2, [r5], #-18	; 0xffffffee
    11c0:	2014054b 	andscs	r0, r4, fp, asr #10
    11c4:	2e18052f 	cfmul64cs	mvdx0, mvdx8, mvdx15
    11c8:	052f0505 	streq	r0, [pc, #-1285]!	; ccb <kernel_start-0x7fff375>
    11cc:	05373d07 	ldreq	r3, [r7, #-3335]!	; 0xfffff2f9
    11d0:	04020014 	streq	r0, [r2], #-20	; 0xffffffec
    11d4:	01053c01 	tsteq	r5, r1, lsl #24
    11d8:	af110551 	svcge	0x00110551
    11dc:	053d0605 	ldreq	r0, [sp, #-1541]!	; 0xfffff9fb
    11e0:	02053d0a 	andeq	r3, r5, #640	; 0x280
    11e4:	2110052e 	tstcs	r0, lr, lsr #10
    11e8:	054a0505 	strbeq	r0, [sl, #-1285]	; 0xfffffafb
    11ec:	12052f0c 	andne	r2, r5, #12, 30	; 0x30
    11f0:	590b052f 	stmdbpl	fp, {r0, r1, r2, r3, r5, r8, sl}
    11f4:	02001e05 	andeq	r1, r0, #5, 28	; 0x50
    11f8:	052a0204 	streq	r0, [sl, #-516]!	; 0xfffffdfc
    11fc:	04020002 	streq	r0, [r2], #-2
    1200:	09053c01 	stmdbeq	r5, {r0, sl, fp, ip, sp}
    1204:	21010543 	tstcs	r1, r3, asr #10
    1208:	05761e05 	ldrbeq	r1, [r6, #-3589]!	; 0xfffff1fb
    120c:	29054c04 	stmdbcs	r5, {r2, sl, fp, lr}
    1210:	580c053d 	stmdapl	ip, {r0, r2, r3, r4, r5, r8, sl}
    1214:	05212705 	streq	r2, [r1, #-1797]!	; 0xfffff8fb
    1218:	05052e0b 	streq	r2, [r5, #-3595]	; 0xfffff1f5
    121c:	3d280530 	cfstr32cc	mvfx0, [r8, #-192]!	; 0xffffff40
    1220:	054a0c05 	strbeq	r0, [sl, #-3077]	; 0xfffff3fb
    1224:	22052f18 	andcs	r2, r5, #24, 30	; 0x60
    1228:	2f17054a 	svccs	0x0017054a
    122c:	052e0505 	streq	r0, [lr, #-1285]!	; 0xfffffafb
    1230:	0b05201b 	bleq	1492a4 <kernel_start-0x7eb6d9c>
    1234:	300f053d 	andcc	r0, pc, sp, lsr r5	; <UNPREDICTABLE>
    1238:	05300e05 	ldreq	r0, [r0, #-3589]!	; 0xfffff1fb
    123c:	2c052f01 	stccs	15, cr2, [r5], {1}
    1240:	6804055e 	stmdavs	r4, {r1, r2, r3, r4, r6, r8, sl}
    1244:	053d2905 	ldreq	r2, [sp, #-2309]!	; 0xfffff6fb
    1248:	2705580c 	strcs	r5, [r5, -ip, lsl #16]
    124c:	2e0b0521 	cfsh32cs	mvfx0, mvfx11, #17
    1250:	05300505 	ldreq	r0, [r0, #-1285]!	; 0xfffffafb
    1254:	05053d18 	streq	r3, [r5, #-3352]	; 0xfffff2e8
    1258:	2022054a 	eorcs	r0, r2, sl, asr #10
    125c:	052f0b05 	streq	r0, [pc, #-2821]!	; 75f <kernel_start-0x7fff8e1>
    1260:	05053d16 	streq	r3, [r5, #-3350]	; 0xfffff2ea
    1264:	201a052e 	andscs	r0, sl, lr, lsr #10
    1268:	312f0b05 			; <UNDEFINED> instruction: 0x312f0b05
    126c:	05310a05 	ldreq	r0, [r1, #-2565]!	; 0xfffff5fb
    1270:	05022f01 	streq	r2, [r2, #-3841]	; 0xfffff0ff
    1274:	Address 0x0000000000001274 is out of bounds.


Disassembly of section .debug_info:

00000000 <.debug_info>:
       0:	00000022 	andeq	r0, r0, r2, lsr #32
       4:	00000002 	andeq	r0, r0, r2
       8:	01040000 	mrseq	r0, (UNDEF: 4)
       c:	00000000 	andeq	r0, r0, r0
      10:	08000000 	stmdaeq	r0, {}	; <UNPREDICTABLE>
      14:	08000046 	stmdaeq	r0, {r1, r2, r6}
      18:	00000000 	andeq	r0, r0, r0
      1c:	0000000b 	andeq	r0, r0, fp
      20:	0000002a 	andeq	r0, r0, sl, lsr #32
      24:	02728001 	rsbseq	r8, r2, #1
      28:	00040000 	andeq	r0, r4, r0
      2c:	00000014 	andeq	r0, r0, r4, lsl r0
      30:	01030104 	tsteq	r3, r4, lsl #2
      34:	880c0000 	stmdahi	ip, {}	; <UNPREDICTABLE>
      38:	0b000001 	bleq	44 <kernel_start-0x7fffffc>
      3c:	48000000 	stmdami	r0, {}	; <UNPREDICTABLE>
      40:	f8080000 			; <UNDEFINED> instruction: 0xf8080000
      44:	3b000005 	blcc	60 <kernel_start-0x7ffffe0>
      48:	02000000 	andeq	r0, r0, #0
      4c:	00600601 	rsbeq	r0, r0, r1, lsl #12
      50:	02020000 	andeq	r0, r2, #0
      54:	0000df05 	andeq	sp, r0, r5, lsl #30
      58:	05040200 	streq	r0, [r4, #-512]	; 0xfffffe00
      5c:	000000cd 	andeq	r0, r0, sp, asr #1
      60:	c8050802 	stmdagt	r5, {r1, fp}
      64:	03000000 	movweq	r0, #0
      68:	000000b5 	strheq	r0, [r0], -r5
      6c:	4d182e02 	ldcmi	14, cr2, [r8, #-8]
      70:	02000000 	andeq	r0, r0, #0
      74:	005e0801 	subseq	r0, lr, r1, lsl #16
      78:	e9030000 	stmdb	r3, {}	; <UNPREDICTABLE>
      7c:	02000000 	andeq	r0, r0, #0
      80:	00601931 	rsbeq	r1, r0, r1, lsr r9
      84:	02020000 	andeq	r0, r2, #0
      88:	00006c07 	andeq	r6, r0, r7, lsl #24
      8c:	00fa0300 	rscseq	r0, sl, r0, lsl #6
      90:	34020000 	strcc	r0, [r2], #-0
      94:	00007319 	andeq	r7, r0, r9, lsl r3
      98:	07040200 	streq	r0, [r4, -r0, lsl #4]
      9c:	000000a3 	andeq	r0, r0, r3, lsr #1
      a0:	9e070802 	cdpls	8, 0, cr0, cr7, cr2, {0}
      a4:	04000000 	streq	r0, [r0], #-0
      a8:	6e690504 	cdpvs	5, 6, cr0, cr9, cr4, {0}
      ac:	04020074 	streq	r0, [r2], #-116	; 0xffffff8c
      b0:	0000a807 	andeq	sl, r0, r7, lsl #16
      b4:	00360500 	eorseq	r0, r6, r0, lsl #10
      b8:	f2010000 	vhadd.s8	d0, d1, d0
      bc:	0005e006 	andeq	lr, r5, r6
      c0:	00006008 	andeq	r6, r0, r8
      c4:	059c0100 	ldreq	r0, [ip, #256]	; 0x100
      c8:	00000088 	andeq	r0, r0, r8, lsl #1
      cc:	4806db01 	stmdami	r6, {r0, r8, r9, fp, ip, lr, pc}
      d0:	98080005 	stmdals	r8, {r0, r2}
      d4:	01000000 	mrseq	r0, (UNDEF: 0)
      d8:	00bd069c 	umlalseq	r0, sp, ip, r6
      dc:	79010000 	stmdbvc	r1, {}	; <UNPREDICTABLE>
      e0:	0002f806 	andeq	pc, r2, r6, lsl #16
      e4:	00025008 	andeq	r5, r2, r8
      e8:	e19c0100 	orrs	r0, ip, r0, lsl #2
      ec:	07000000 	streq	r0, [r0, -r0]
      f0:	0800030e 	stmdaeq	r0, {r1, r2, r3, r8, r9}
      f4:	00000092 	muleq	r0, r2, r0
      f8:	01006908 	tsteq	r0, r8, lsl #18
      fc:	0081117f 	addeq	r1, r1, pc, ror r1
     100:	91020000 	mrsls	r0, (UNDEF: 2)
     104:	05000074 	streq	r0, [r0, #-116]	; 0xffffff8c
     108:	00000055 	andeq	r0, r0, r5, asr r0
     10c:	c0066e01 	andgt	r6, r6, r1, lsl #28
     110:	38080002 	stmdacc	r8, {r1}
     114:	01000000 	mrseq	r0, (UNDEF: 0)
     118:	004c059c 	umaaleq	r0, ip, ip, r5
     11c:	64010000 	strvs	r0, [r1], #-0
     120:	00028406 	andeq	r8, r2, r6, lsl #8
     124:	00003c08 	andeq	r3, r0, r8, lsl #24
     128:	059c0100 	ldreq	r0, [ip, #256]	; 0x100
     12c:	000000d6 	ldrdeq	r0, [r0], -r6
     130:	6c065e01 	stcvs	14, cr5, [r6], {1}
     134:	18080002 	stmdane	r8, {r1}
     138:	01000000 	mrseq	r0, (UNDEF: 0)
     13c:	0175069c 			; <UNDEFINED> instruction: 0x0175069c
     140:	51010000 	mrspl	r0, (UNDEF: 1)
     144:	00021c06 	andeq	r1, r2, r6, lsl #24
     148:	00005008 	andeq	r5, r0, r8
     14c:	569c0100 	ldrpl	r0, [ip], r0, lsl #2
     150:	08000001 	stmdaeq	r0, {r0}
     154:	006c6176 	rsbeq	r6, ip, r6, ror r1
     158:	81095401 	tsthi	r9, r1, lsl #8
     15c:	02000000 	andeq	r0, r0, #0
     160:	3a077491 	bcc	1dd3ac <kernel_start-0x7e22c94>
     164:	2c080002 	stccs	0, cr0, [r8], {2}
     168:	09000000 	stmdbeq	r0, {}	; <UNPREDICTABLE>
     16c:	000000f2 	strdeq	r0, [r0], -r2
     170:	67125601 	ldrvs	r5, [r2, -r1, lsl #12]
     174:	02000000 	andeq	r0, r0, #0
     178:	00007091 	muleq	r0, r1, r0
     17c:	00004205 	andeq	r4, r0, r5, lsl #4
     180:	06470100 	strbeq	r0, [r7], -r0, lsl #2
     184:	08000200 	stmdaeq	r0, {r9}
     188:	0000001c 	andeq	r0, r0, ip, lsl r0
     18c:	64069c01 	strvs	r9, [r6], #-3073	; 0xfffff3ff
     190:	01000001 	tsteq	r0, r1
     194:	016c0635 	cmneq	ip, r5, lsr r6
     198:	00940800 	addseq	r0, r4, r0, lsl #16
     19c:	9c010000 	stcls	0, cr0, [r1], {-0}
     1a0:	000001d9 	ldrdeq	r0, [r0], -r9
     1a4:	71657308 	cmnvc	r5, r8, lsl #6
     1a8:	0d3a0100 	ldfeqs	f0, [sl, #-0]
     1ac:	000001d9 	ldrdeq	r0, [r0], -r9
     1b0:	0a689102 	beq	1a245c0 <kernel_start-0x65dba80>
     1b4:	08000172 	stmdaeq	r0, {r1, r4, r5, r6, r8}
     1b8:	0000002a 	andeq	r0, r0, sl, lsr #32
     1bc:	000001a8 	andeq	r0, r0, r8, lsr #3
     1c0:	01006908 	tsteq	r0, r8, lsl #18
     1c4:	00810d36 	addeq	r0, r1, r6, lsr sp
     1c8:	91020000 	mrsls	r0, (UNDEF: 2)
     1cc:	aa070074 	bge	1c03a4 <kernel_start-0x7e3fc9c>
     1d0:	54080001 	strpl	r0, [r8], #-1
     1d4:	09000000 	stmdbeq	r0, {}	; <UNPREDICTABLE>
     1d8:	0000003d 	andeq	r0, r0, sp, lsr r0
     1dc:	54123d01 	ldrpl	r3, [r2], #-3329	; 0xfffff2ff
     1e0:	02000000 	andeq	r0, r0, #0
     1e4:	b4077291 	strlt	r7, [r7], #-657	; 0xfffffd6f
     1e8:	4a080001 	bmi	2001f4 <kernel_start-0x7dffe4c>
     1ec:	08000000 	stmdaeq	r0, {}	; <UNPREDICTABLE>
     1f0:	3e010069 	cdpcc	0, 0, cr0, cr1, cr9, {3}
     1f4:	00008111 	andeq	r8, r0, r1, lsl r1
     1f8:	6c910200 	lfmvs	f0, 4, [r1], {0}
     1fc:	0b000000 	bleq	204 <kernel_start-0x7fffe3c>
     200:	00000041 	andeq	r0, r0, r1, asr #32
     204:	000001e9 	andeq	r0, r0, r9, ror #3
     208:	0000880c 	andeq	r8, r0, ip, lsl #16
     20c:	06000000 	streq	r0, [r0], -r0
     210:	0000017f 	andeq	r0, r0, pc, ror r1
     214:	f8062701 			; <UNDEFINED> instruction: 0xf8062701
     218:	74080000 	strvc	r0, [r8], #-0
     21c:	01000000 	mrseq	r0, (UNDEF: 0)
     220:	00021c9c 	muleq	r2, ip, ip
     224:	00690800 	rsbeq	r0, r9, r0, lsl #16
     228:	670e2801 	strvs	r2, [lr, -r1, lsl #16]
     22c:	02000000 	andeq	r0, r0, #0
     230:	b0097491 	mullt	r9, r1, r4
     234:	01000004 	tsteq	r0, r4
     238:	021c0f29 	andseq	r0, ip, #41, 30	; 0xa4
     23c:	91020000 	mrsls	r0, (UNDEF: 2)
     240:	040d0070 	streq	r0, [sp], #-112	; 0xffffff90
     244:	00000067 	andeq	r0, r0, r7, rrx
     248:	00007f06 	andeq	r7, r0, r6, lsl #30
     24c:	061d0100 	ldreq	r0, [sp], -r0, lsl #2
     250:	080000ae 	stmdaeq	r0, {r1, r2, r3, r5, r7}
     254:	0000004a 	andeq	r0, r0, sl, asr #32
     258:	02469c01 	subeq	r9, r6, #256	; 0x100
     25c:	69080000 	stmdbvs	r8, {}	; <UNPREDICTABLE>
     260:	0e1e0100 	mufeqe	f0, f6, f0
     264:	00000067 	andeq	r0, r0, r7, rrx
     268:	00749102 	rsbseq	r9, r4, r2, lsl #2
     26c:	00016c0e 	andeq	r6, r1, lr, lsl #24
     270:	060f0100 	streq	r0, [pc], -r0, lsl #2
     274:	08000048 	stmdaeq	r0, {r3, r6}
     278:	00000066 	andeq	r0, r0, r6, rrx
     27c:	69089c01 	stmdbvs	r8, {r0, sl, fp, ip, pc}
     280:	0e100100 	mufeqs	f0, f0, f0
     284:	00000067 	andeq	r0, r0, r7, rrx
     288:	09749102 	ldmdbeq	r4!, {r1, r8, ip, pc}^
     28c:	000004b0 			; <UNDEFINED> instruction: 0x000004b0
     290:	1c0f1101 	stfnes	f1, [pc], {1}
     294:	02000002 	andeq	r0, r0, #2
     298:	00007091 	muleq	r0, r1, r0
     29c:	000001fd 	strdeq	r0, [r0], -sp
     2a0:	00e80004 	rsceq	r0, r8, r4
     2a4:	01040000 	mrseq	r0, (UNDEF: 4)
     2a8:	00000103 	andeq	r0, r0, r3, lsl #2
     2ac:	0001cb0c 	andeq	ip, r1, ip, lsl #22
     2b0:	00000b00 	andeq	r0, r0, r0, lsl #22
     2b4:	00064000 	andeq	r4, r6, r0
     2b8:	0001c808 	andeq	ip, r1, r8, lsl #16
     2bc:	00035c00 	andeq	r5, r3, r0, lsl #24
     2c0:	06010200 	streq	r0, [r1], -r0, lsl #4
     2c4:	00000060 	andeq	r0, r0, r0, rrx
     2c8:	df050202 	svcle	0x00050202
     2cc:	02000000 	andeq	r0, r0, #0
     2d0:	00cd0504 	sbceq	r0, sp, r4, lsl #10
     2d4:	08020000 	stmdaeq	r2, {}	; <UNPREDICTABLE>
     2d8:	0000c805 	andeq	ip, r0, r5, lsl #16
     2dc:	00b50300 	adcseq	r0, r5, r0, lsl #6
     2e0:	2e020000 	cdpcs	0, 0, cr0, cr2, cr0, {0}
     2e4:	00004d18 	andeq	r4, r0, r8, lsl sp
     2e8:	08010200 	stmdaeq	r1, {r9}
     2ec:	0000005e 	andeq	r0, r0, lr, asr r0
     2f0:	6c070202 	sfmvs	f0, 4, [r7], {2}
     2f4:	03000000 	movweq	r0, #0
     2f8:	000000fa 	strdeq	r0, [r0], -sl
     2fc:	6c193402 	cfldrsvs	mvf3, [r9], {2}
     300:	04000000 	streq	r0, [r0], #-0
     304:	0000005b 	andeq	r0, r0, fp, asr r0
     308:	a3070402 	movwge	r0, #29698	; 0x7402
     30c:	02000000 	andeq	r0, r0, #0
     310:	009e0708 	addseq	r0, lr, r8, lsl #14
     314:	04050000 	streq	r0, [r5], #-0
     318:	746e6905 	strbtvc	r6, [lr], #-2309	; 0xfffff6fb
     31c:	07040200 	streq	r0, [r4, -r0, lsl #4]
     320:	000000a8 	andeq	r0, r0, r8, lsr #1
     324:	0001f006 	andeq	pc, r1, r6
     328:	1a490300 	bne	1240f30 <kernel_start-0x6dbf110>
     32c:	00000067 	andeq	r0, r0, r7, rrx
     330:	00008807 	andeq	r8, r0, r7, lsl #16
     334:	13030100 	movwne	r0, #12544	; 0x3100
     338:	00000305 	andeq	r0, r0, r5, lsl #6
     33c:	7f082000 	svcvc	0x00082000
     340:	01000002 	tsteq	r0, r2
     344:	005b0a4b 	subseq	r0, fp, fp, asr #20
     348:	07f40000 	ldrbeq	r0, [r4, r0]!
     34c:	00140800 	andseq	r0, r4, r0, lsl #16
     350:	9c010000 	stcls	0, cr0, [r1], {-0}
     354:	0001b309 	andeq	fp, r1, r9, lsl #6
     358:	06420100 	strbeq	r0, [r2], -r0, lsl #2
     35c:	080007b0 	stmdaeq	r0, {r4, r5, r7, r8, r9, sl}
     360:	00000044 	andeq	r0, r0, r4, asr #32
     364:	01049c01 	tsteq	r4, r1, lsl #24
     368:	c60a0000 	strgt	r0, [sl], -r0
     36c:	01000001 	tsteq	r0, r1
     370:	005b1a42 	subseq	r1, fp, r2, asr #20
     374:	91020000 	mrsls	r0, (UNDEF: 2)
     378:	04cd0b6c 	strbeq	r0, [sp], #2924	; 0xb6c
     37c:	44010000 	strmi	r0, [r1], #-0
     380:	00005b0e 	andeq	r5, r0, lr, lsl #22
     384:	70910200 	addsvc	r0, r1, r0, lsl #4
     388:	0007cc0c 	andeq	ip, r7, ip, lsl #24
     38c:	00001a08 	andeq	r1, r0, r8, lsl #20
     390:	00690d00 	rsbeq	r0, r9, r0, lsl #26
     394:	5b124601 	blpl	491ba0 <kernel_start-0x7b6e4a0>
     398:	02000000 	andeq	r0, r0, #0
     39c:	00007491 	muleq	r0, r1, r4
     3a0:	0001be0e 	andeq	fp, r1, lr, lsl #28
     3a4:	1b360100 	blne	d807ac <kernel_start-0x727f894>
     3a8:	080007a0 	stmdaeq	r0, {r5, r7, r8, r9, sl}
     3ac:	00000010 	andeq	r0, r0, r0, lsl r0
     3b0:	01299c01 			; <UNDEFINED> instruction: 0x01299c01
     3b4:	650a0000 	strvs	r0, [sl, #-0]
     3b8:	01000002 	tsteq	r0, r2
     3bc:	005b3136 	subseq	r3, fp, r6, lsr r1
     3c0:	50010000 	andpl	r0, r1, r0
     3c4:	028e0f00 	addeq	r0, lr, #0, 30
     3c8:	2b010000 	blcs	403d0 <kernel_start-0x7fbfc70>
     3cc:	00005b0a 	andeq	r5, r0, sl, lsl #22
     3d0:	00075400 	andeq	r5, r7, r0, lsl #8
     3d4:	00004c08 	andeq	r4, r0, r8, lsl #24
     3d8:	719c0100 	orrsvc	r0, ip, r0, lsl #2
     3dc:	0b000001 	bleq	3e8 <kernel_start-0x7fffc58>
     3e0:	000004cd 	andeq	r0, r0, sp, asr #9
     3e4:	5b0e2c01 	blpl	38b3f0 <kernel_start-0x7c74c50>
     3e8:	02000000 	andeq	r0, r0, #0
     3ec:	fd0b7491 	stc2	4, cr7, [fp, #-580]	; 0xfffffdbc
     3f0:	01000001 	tsteq	r0, r1
     3f4:	005b0e2e 	subseq	r0, fp, lr, lsr #28
     3f8:	91020000 	mrsls	r0, (UNDEF: 2)
     3fc:	01ab0b70 			; <UNDEFINED> instruction: 0x01ab0b70
     400:	2f010000 	svccs	0x00010000
     404:	00005b0e 	andeq	r5, r0, lr, lsl #22
     408:	6c910200 	lfmvs	f0, 4, [r1], {0}
     40c:	02140e00 	andseq	r0, r4, #0, 28
     410:	1d010000 	stcne	0, cr0, [r1, #-0]
     414:	0006e806 	andeq	lr, r6, r6, lsl #16
     418:	00006c08 	andeq	r6, r0, r8, lsl #24
     41c:	a69c0100 	ldrge	r0, [ip], r0, lsl #2
     420:	0a000001 	beq	42c <kernel_start-0x7fffc14>
     424:	00000209 	andeq	r0, r0, r9, lsl #4
     428:	41281d01 			; <UNDEFINED> instruction: 0x41281d01
     42c:	02000000 	andeq	r0, r0, #0
     430:	2e0b6f91 	mcrcs	15, 0, r6, cr11, cr1, {4}
     434:	01000002 	tsteq	r0, r2
     438:	005b0e21 	subseq	r0, fp, r1, lsr #28
     43c:	91020000 	mrsls	r0, (UNDEF: 2)
     440:	dd100074 	ldcle	0, cr0, [r0, #-464]	; 0xfffffe30
     444:	01000001 	tsteq	r0, r1
     448:	06bc0617 	ssateq	r0, #29, r7, lsl #12
     44c:	002c0800 	eoreq	r0, ip, r0, lsl #16
     450:	9c010000 	stcls	0, cr0, [r1], {-0}
     454:	00026f10 	andeq	r6, r2, r0, lsl pc
     458:	06130100 	ldreq	r0, [r3], -r0, lsl #2
     45c:	080006a0 	stmdaeq	r0, {r5, r7, r9, sl}
     460:	0000001c 	andeq	r0, r0, ip, lsl r0
     464:	51109c01 	tstpl	r0, r1, lsl #24
     468:	01000002 	tsteq	r0, r2
     46c:	0684060f 	streq	r0, [r4], pc, lsl #12
     470:	001c0800 	andseq	r0, ip, r0, lsl #16
     474:	9c010000 	stcls	0, cr0, [r1], {-0}
     478:	00024010 	andeq	r4, r2, r0, lsl r0
     47c:	060b0100 	streq	r0, [fp], -r0, lsl #2
     480:	08000668 	stmdaeq	r0, {r3, r5, r6, r9, sl}
     484:	0000001c 	andeq	r0, r0, ip, lsl r0
     488:	95109c01 	ldrls	r9, [r0, #-3073]	; 0xfffff3ff
     48c:	01000001 	tsteq	r0, r1
     490:	06400605 	strbeq	r0, [r0], -r5, lsl #12
     494:	00280800 	eoreq	r0, r8, r0, lsl #16
     498:	9c010000 	stcls	0, cr0, [r1], {-0}
     49c:	00027d00 	andeq	r7, r2, r0, lsl #26
     4a0:	0c000400 	cfstrseq	mvf0, [r0], {-0}
     4a4:	04000002 	streq	r0, [r0], #-2
     4a8:	00010301 	andeq	r0, r1, r1, lsl #6
     4ac:	029b0c00 	addseq	r0, fp, #0, 24
     4b0:	000b0000 	andeq	r0, fp, r0
     4b4:	08080000 	stmdaeq	r8, {}	; <UNPREDICTABLE>
     4b8:	01740800 	cmneq	r4, r0, lsl #16
     4bc:	048e0000 	streq	r0, [lr], #0
     4c0:	01020000 	mrseq	r0, (UNDEF: 2)
     4c4:	00006006 	andeq	r6, r0, r6
     4c8:	05020200 	streq	r0, [r2, #-512]	; 0xfffffe00
     4cc:	000000df 	ldrdeq	r0, [r0], -pc	; <UNPREDICTABLE>
     4d0:	cd050402 	cfstrsgt	mvf0, [r5, #-8]
     4d4:	02000000 	andeq	r0, r0, #0
     4d8:	00c80508 	sbceq	r0, r8, r8, lsl #10
     4dc:	b5030000 	strlt	r0, [r3, #-0]
     4e0:	02000000 	andeq	r0, r0, #0
     4e4:	004d182e 	subeq	r1, sp, lr, lsr #16
     4e8:	01020000 	mrseq	r0, (UNDEF: 2)
     4ec:	00005e08 	andeq	r5, r0, r8, lsl #28
     4f0:	07020200 	streq	r0, [r2, -r0, lsl #4]
     4f4:	0000006c 	andeq	r0, r0, ip, rrx
     4f8:	0000fa03 	andeq	pc, r0, r3, lsl #20
     4fc:	19340200 	ldmdbne	r4!, {r9}
     500:	0000006c 	andeq	r0, r0, ip, rrx
     504:	00005b04 	andeq	r5, r0, r4, lsl #22
     508:	07040200 	streq	r0, [r4, -r0, lsl #4]
     50c:	000000a3 	andeq	r0, r0, r3, lsr #1
     510:	9e070802 	cdpls	8, 0, cr0, cr7, cr2, {0}
     514:	05000000 	streq	r0, [r0, #-0]
     518:	6e690504 	cdpvs	5, 6, cr0, cr9, cr4, {0}
     51c:	04020074 	streq	r0, [r2], #-116	; 0xffffff8c
     520:	0000a807 	andeq	sl, r0, r7, lsl #16
     524:	030a0600 	movweq	r0, #42496	; 0xa600
     528:	31040000 	mrscc	r0, (UNDEF: 4)
     52c:	00004110 	andeq	r4, r0, r0, lsl r1
     530:	43500700 	cmpmi	r0, #0, 14
     534:	034c0042 	movteq	r0, #49218	; 0xc042
     538:	018e0812 	orreq	r0, lr, r2, lsl r8
     53c:	72080000 	andvc	r0, r8, #0
     540:	14030030 	strne	r0, [r3], #-48	; 0xffffffd0
     544:	00005b0b 	andeq	r5, r0, fp, lsl #22
     548:	72080000 	andvc	r0, r8, #0
     54c:	15030031 	strne	r0, [r3, #-49]	; 0xffffffcf
     550:	00005b0b 	andeq	r5, r0, fp, lsl #22
     554:	72080400 	andvc	r0, r8, #0, 8
     558:	16030032 			; <UNDEFINED> instruction: 0x16030032
     55c:	00005b0b 	andeq	r5, r0, fp, lsl #22
     560:	72080800 	andvc	r0, r8, #0, 16
     564:	17030033 	smladxne	r3, r3, r0, r0
     568:	00005b0b 	andeq	r5, r0, fp, lsl #22
     56c:	72080c00 	andvc	r0, r8, #0, 24
     570:	18030034 	stmdane	r3, {r2, r4, r5}
     574:	00005b0b 	andeq	r5, r0, fp, lsl #22
     578:	72081000 	andvc	r1, r8, #0
     57c:	19030035 	stmdbne	r3, {r0, r2, r4, r5}
     580:	00005b0b 	andeq	r5, r0, fp, lsl #22
     584:	72081400 	andvc	r1, r8, #0, 8
     588:	1a030036 	bne	c0668 <kernel_start-0x7f3f9d8>
     58c:	00005b0b 	andeq	r5, r0, fp, lsl #22
     590:	72081800 	andvc	r1, r8, #0, 16
     594:	1b030037 	blne	c0678 <kernel_start-0x7f3f9c8>
     598:	00005b0b 	andeq	r5, r0, fp, lsl #22
     59c:	72081c00 	andvc	r1, r8, #0, 24
     5a0:	1c030038 	stcne	0, cr0, [r3], {56}	; 0x38
     5a4:	00005b0b 	andeq	r5, r0, fp, lsl #22
     5a8:	72082000 	andvc	r2, r8, #0
     5ac:	1d030039 	stcne	0, cr0, [r3, #-228]	; 0xffffff1c
     5b0:	00005b0b 	andeq	r5, r0, fp, lsl #22
     5b4:	72082400 	andvc	r2, r8, #0, 8
     5b8:	03003031 	movweq	r3, #49	; 0x31
     5bc:	005b0b1e 	subseq	r0, fp, lr, lsl fp
     5c0:	08280000 	stmdaeq	r8!, {}	; <UNPREDICTABLE>
     5c4:	00313172 	eorseq	r3, r1, r2, ror r1
     5c8:	5b0b1f03 	blpl	2c81dc <kernel_start-0x7d37e64>
     5cc:	2c000000 	stccs	0, cr0, [r0], {-0}
     5d0:	32317208 	eorscc	r7, r1, #8, 4	; 0x80000000
     5d4:	0b200300 	bleq	8011dc <kernel_start-0x77fee64>
     5d8:	0000005b 	andeq	r0, r0, fp, asr r0
     5dc:	726c0830 	rsbvc	r0, ip, #48, 16	; 0x300000
     5e0:	0b210300 	bleq	8411e8 <kernel_start-0x77bee58>
     5e4:	0000005b 	andeq	r0, r0, fp, asr r0
     5e8:	73700834 	cmnvc	r0, #52, 16	; 0x340000
     5ec:	22030072 	andcs	r0, r3, #114	; 0x72
     5f0:	00005b0b 	andeq	r5, r0, fp, lsl #22
     5f4:	6d083800 	stcvs	8, cr3, [r8, #-0]
     5f8:	03007073 	movweq	r7, #115	; 0x73
     5fc:	005b0b23 	subseq	r0, fp, r3, lsr #22
     600:	083c0000 	ldmdaeq	ip!, {}	; <UNPREDICTABLE>
     604:	00707370 	rsbseq	r7, r0, r0, ror r3
     608:	5b0b2403 	blpl	2c961c <kernel_start-0x7d36a24>
     60c:	40000000 	andmi	r0, r0, r0
     610:	64697008 	strbtvs	r7, [r9], #-8
     614:	0b260300 	bleq	98121c <kernel_start-0x767ee24>
     618:	0000005b 	andeq	r0, r0, fp, asr r0
     61c:	02d10944 	sbcseq	r0, r1, #68, 18	; 0x110000
     620:	27030000 	strcs	r0, [r3, -r0]
     624:	00005b0b 	andeq	r5, r0, fp, lsl #22
     628:	06004800 	streq	r4, [r0], -r0, lsl #16
     62c:	000002eb 	andeq	r0, r0, fp, ror #5
     630:	9a143c04 	bls	50f648 <kernel_start-0x7af09f8>
     634:	0a000001 	beq	640 <kernel_start-0x7fffa00>
     638:	00009404 	andeq	r9, r0, r4, lsl #8
     63c:	01f00600 	mvnseq	r0, r0, lsl #12
     640:	49050000 	stmdbmi	r5, {}	; <UNPREDICTABLE>
     644:	0000671a 	andeq	r6, r0, sl, lsl r7
     648:	00880b00 	addeq	r0, r8, r0, lsl #22
     64c:	08010000 	stmdaeq	r1, {}	; <UNPREDICTABLE>
     650:	04030509 	streq	r0, [r3], #-1289	; 0xfffffaf7
     654:	0c200000 	stceq	0, cr0, [r0], #-0
     658:	0000019a 	muleq	r0, sl, r1
     65c:	000001ca 	andeq	r0, r0, sl, asr #3
     660:	0000810d 	andeq	r8, r0, sp, lsl #2
     664:	0e000100 	adfeqs	f0, f0, f0
     668:	00000338 	andeq	r0, r0, r8, lsr r3
     66c:	ba0d0901 	blt	342a78 <kernel_start-0x7cbd5c8>
     670:	05000001 	streq	r0, [r0, #-1]
     674:	00000803 	andeq	r0, r0, r3, lsl #16
     678:	018e0b20 	orreq	r0, lr, r0, lsr #22
     67c:	0a010000 	beq	40684 <kernel_start-0x7fbf9bc>
     680:	1003050d 	andne	r0, r3, sp, lsl #10
     684:	0e200000 	cdpeq	0, 2, cr0, cr0, cr0, {0}
     688:	0000031a 	andeq	r0, r0, sl, lsl r3
     68c:	9a0d0b01 	bls	343298 <kernel_start-0x7cbcda8>
     690:	05000001 	streq	r0, [r0, #-1]
     694:	00001403 	andeq	r1, r0, r3, lsl #8
     698:	02c50f20 	sbceq	r0, r5, #32, 30	; 0x80
     69c:	39010000 	stmdbcc	r1, {}	; <UNPREDICTABLE>
     6a0:	08d8082a 	ldmeq	r8, {r1, r3, r5, fp}^
     6a4:	00a40800 	adceq	r0, r4, r0, lsl #16
     6a8:	9c010000 	stcls	0, cr0, [r1], {-0}
     6ac:	0002d710 	andeq	sp, r2, r0, lsl r7
     6b0:	061f0100 	ldreq	r0, [pc], -r0, lsl #2
     6b4:	0800084c 	stmdaeq	r0, {r2, r3, r6, fp}
     6b8:	00000088 	andeq	r0, r0, r8, lsl #1
     6bc:	023d9c01 	eorseq	r9, sp, #256	; 0x100
     6c0:	6a110000 	bvs	4406c8 <kernel_start-0x7bbf978>
     6c4:	44080008 	strmi	r0, [r8], #-8
     6c8:	12000000 	andne	r0, r0, #0
     6cc:	27010069 	strcs	r0, [r1, -r9, rrx]
     6d0:	00005b12 	andeq	r5, r0, r2, lsl fp
     6d4:	74910200 	ldrvc	r0, [r1], #512	; 0x200
     6d8:	fb130000 	blx	4c06e2 <kernel_start-0x7b3f95e>
     6dc:	01000002 	tsteq	r0, r2
     6e0:	082c0612 	stmdaeq	ip!, {r1, r4, r9, sl}
     6e4:	00200800 	eoreq	r0, r0, r0, lsl #16
     6e8:	9c010000 	stcls	0, cr0, [r1], {-0}
     6ec:	00033114 	andeq	r3, r3, r4, lsl r1
     6f0:	060d0100 	streq	r0, [sp], -r0, lsl #2
     6f4:	08000808 	stmdaeq	r0, {r3, fp}
     6f8:	00000024 	andeq	r0, r0, r4, lsr #32
     6fc:	74159c01 	ldrvc	r9, [r5], #-3073	; 0xfffff3ff
     700:	01000003 	tsteq	r0, r3
     704:	019a220d 	orrseq	r2, sl, sp, lsl #4
     708:	91020000 	mrsls	r0, (UNDEF: 2)
     70c:	032c1574 			; <UNDEFINED> instruction: 0x032c1574
     710:	0d010000 	stceq	0, cr0, [r1, #-0]
     714:	00005b33 	andeq	r5, r0, r3, lsr fp
     718:	70910200 	addsvc	r0, r1, r0, lsl #4
     71c:	01d30000 	bicseq	r0, r3, r0
     720:	00040000 	andeq	r0, r4, r0
     724:	00000361 	andeq	r0, r0, r1, ror #6
     728:	01030104 	tsteq	r3, r4, lsl #2
     72c:	e20c0000 	and	r0, ip, #0
     730:	0b000003 	bleq	744 <kernel_start-0x7fff8fc>
     734:	7c000000 	stcvc	0, cr0, [r0], {-0}
     738:	3c080009 	stccc	0, cr0, [r8], {9}
     73c:	2b000002 	blcs	74c <kernel_start-0x7fff8f4>
     740:	02000006 	andeq	r0, r0, #6
     744:	00600601 	rsbeq	r0, r0, r1, lsl #12
     748:	02020000 	andeq	r0, r2, #0
     74c:	0000df05 	andeq	sp, r0, r5, lsl #30
     750:	05040200 	streq	r0, [r4, #-512]	; 0xfffffe00
     754:	000000cd 	andeq	r0, r0, sp, asr #1
     758:	c8050802 	stmdagt	r5, {r1, fp}
     75c:	02000000 	andeq	r0, r0, #0
     760:	005e0801 	subseq	r0, lr, r1, lsl #16
     764:	02020000 	andeq	r0, r2, #0
     768:	00006c07 	andeq	r6, r0, r7, lsl #24
     76c:	00fa0300 	rscseq	r0, sl, r0, lsl #6
     770:	34020000 	strcc	r0, [r2], #-0
     774:	00005b19 	andeq	r5, r0, r9, lsl fp
     778:	07040200 	streq	r0, [r4, -r0, lsl #4]
     77c:	000000a3 	andeq	r0, r0, r3, lsr #1
     780:	9e070802 	cdpls	8, 0, cr0, cr7, cr2, {0}
     784:	04000000 	streq	r0, [r0], #-0
     788:	6e690504 	cdpvs	5, 6, cr0, cr9, cr4, {0}
     78c:	04020074 	streq	r0, [r2], #-116	; 0xffffff8c
     790:	0000a807 	andeq	sl, r0, r7, lsl #16
     794:	03960500 	orrseq	r0, r6, #0, 10
     798:	34010000 	strcc	r0, [r1], #-0
     79c:	00006905 	andeq	r6, r0, r5, lsl #18
     7a0:	18030500 	stmdane	r3, {r8, sl}
     7a4:	05200000 	streq	r0, [r0, #-0]!
     7a8:	0000039b 	muleq	r0, fp, r3
     7ac:	69053c01 	stmdbvs	r5, {r0, sl, fp, ip, sp}
     7b0:	05000000 	streq	r0, [r0, #-0]
     7b4:	00001c03 	andeq	r1, r0, r3, lsl #24
     7b8:	03a00520 	moveq	r0, #32, 10	; 0x8000000
     7bc:	41010000 	mrsmi	r0, (UNDEF: 1)
     7c0:	00006905 	andeq	r6, r0, r5, lsl #18
     7c4:	20030500 	andcs	r0, r3, r0, lsl #10
     7c8:	06200000 	strteq	r0, [r0], -r0
     7cc:	000003bd 			; <UNDEFINED> instruction: 0x000003bd
     7d0:	74284901 	strtvc	r4, [r8], #-2305	; 0xfffff6ff
     7d4:	4408000b 	strmi	r0, [r8], #-11
     7d8:	01000000 	mrseq	r0, (UNDEF: 0)
     7dc:	0351069c 	cmpeq	r1, #156, 12	; 0x9c00000
     7e0:	42010000 	andmi	r0, r1, #0
     7e4:	000b2e28 	andeq	r2, fp, r8, lsr #28
     7e8:	00004608 	andeq	r4, r0, r8, lsl #12
     7ec:	079c0100 	ldreq	r0, [ip, r0, lsl #2]
     7f0:	00000367 	andeq	r0, r0, r7, ror #6
     7f4:	18283d01 	stmdane	r8!, {r0, r8, sl, fp, ip, sp}
     7f8:	1608000b 	strne	r0, [r8], -fp
     7fc:	01000000 	mrseq	r0, (UNDEF: 0)
     800:	03a5069c 			; <UNDEFINED> instruction: 0x03a5069c
     804:	35010000 	strcc	r0, [r1, #-0]
     808:	000ad228 	andeq	sp, sl, r8, lsr #4
     80c:	00004608 	andeq	r4, r0, r8, lsl #12
     810:	069c0100 	ldreq	r0, [ip], r0, lsl #2
     814:	000003d4 	ldrdeq	r0, [r0], -r4
     818:	b0283001 	eorlt	r3, r8, r1
     81c:	2208000a 	andcs	r0, r8, #10
     820:	01000000 	mrseq	r0, (UNDEF: 0)
     824:	03ae089c 			; <UNDEFINED> instruction: 0x03ae089c
     828:	27010000 	strcs	r0, [r1, -r0]
     82c:	000a5806 	andeq	r5, sl, r6, lsl #16
     830:	00005808 	andeq	r5, r0, r8, lsl #16
     834:	2d9c0100 	ldfcss	f0, [ip]
     838:	09000001 	stmdbeq	r0, {r0}
     83c:	0000038d 	andeq	r0, r0, sp, lsl #7
     840:	4f1e2701 	svcmi	0x001e2701
     844:	02000000 	andeq	r0, r0, #0
     848:	08007491 	stmdaeq	r0, {r0, r4, r7, sl, ip, sp, lr}
     84c:	0000035a 	andeq	r0, r0, sl, asr r3
     850:	00061f01 	andeq	r1, r6, r1, lsl #30
     854:	5808000a 	stmdapl	r8, {r1, r3}
     858:	01000000 	mrseq	r0, (UNDEF: 0)
     85c:	0001539c 	muleq	r1, ip, r3
     860:	038d0900 	orreq	r0, sp, #0, 18
     864:	1f010000 	svcne	0x00010000
     868:	00004f1c 	andeq	r4, r0, ip, lsl pc
     86c:	74910200 	ldrvc	r0, [r1], #512	; 0x200
     870:	03c60a00 	biceq	r0, r6, #0, 20
     874:	19010000 	stmdbne	r1, {}	; <UNPREDICTABLE>
     878:	0009c806 	andeq	ip, r9, r6, lsl #16
     87c:	00003808 	andeq	r3, r0, r8, lsl #16
     880:	799c0100 	ldmibvc	ip, {r8}
     884:	0b000001 	bleq	890 <kernel_start-0x7fff7b0>
     888:	000000f2 	strdeq	r0, [r0], -r2
     88c:	4f0b1a01 	svcmi	0x000b1a01
     890:	02000000 	andeq	r0, r0, #0
     894:	08007491 	stmdaeq	r0, {r0, r4, r7, sl, ip, sp, lr}
     898:	0000037c 	andeq	r0, r0, ip, ror r3
     89c:	96061401 	strls	r1, [r6], -r1, lsl #8
     8a0:	32080009 	andcc	r0, r8, #9
     8a4:	01000000 	mrseq	r0, (UNDEF: 0)
     8a8:	00019f9c 	muleq	r1, ip, pc	; <UNPREDICTABLE>
     8ac:	02690900 	rsbeq	r0, r9, #0, 18
     8b0:	14010000 	strne	r0, [r1], #-0
     8b4:	00004f20 	andeq	r4, r0, r0, lsr #30
     8b8:	74910200 	ldrvc	r0, [r1], #512	; 0x200
     8bc:	03fd0800 	mvnseq	r0, #0, 16
     8c0:	0a010000 	beq	408c8 <kernel_start-0x7fbf778>
     8c4:	00097c06 	andeq	r7, r9, r6, lsl #24
     8c8:	00001a08 	andeq	r1, r0, r8, lsl #20
     8cc:	d49c0100 	ldrle	r0, [ip], #256	; 0x100
     8d0:	09000001 	stmdbeq	r0, {r0}
     8d4:	00000370 	andeq	r0, r0, r0, ror r3
     8d8:	d41a0a01 	ldrle	r0, [sl], #-2561	; 0xfffff5ff
     8dc:	02000001 	andeq	r0, r0, #1
     8e0:	41097491 			; <UNDEFINED> instruction: 0x41097491
     8e4:	01000003 	tsteq	r0, r3
     8e8:	01d42d0a 	bicseq	r2, r4, sl, lsl #26
     8ec:	91020000 	mrsls	r0, (UNDEF: 2)
     8f0:	040c0070 	streq	r0, [ip], #-112	; 0xffffff90
     8f4:	00016900 	andeq	r6, r1, r0, lsl #18
     8f8:	3c000400 	cfstrscc	mvf0, [r0], {-0}
     8fc:	04000004 	streq	r0, [r0], #-4
     900:	00010301 	andeq	r0, r1, r1, lsl #6
     904:	047b0c00 	ldrbteq	r0, [fp], #-3072	; 0xfffff400
     908:	000b0000 	andeq	r0, fp, r0
     90c:	0bb80000 	bleq	fee00914 <used_pipes+0xdee008e0>
     910:	012c0800 			; <UNDEFINED> instruction: 0x012c0800
     914:	076f0000 	strbeq	r0, [pc, -r0]!
     918:	01020000 	mrseq	r0, (UNDEF: 2)
     91c:	00006006 	andeq	r6, r0, r6
     920:	05020200 	streq	r0, [r2, #-512]	; 0xfffffe00
     924:	000000df 	ldrdeq	r0, [r0], -pc	; <UNPREDICTABLE>
     928:	cd050402 	cfstrsgt	mvf0, [r5, #-8]
     92c:	02000000 	andeq	r0, r0, #0
     930:	00c80508 	sbceq	r0, r8, r8, lsl #10
     934:	01020000 	mrseq	r0, (UNDEF: 2)
     938:	00005e08 	andeq	r5, r0, r8, lsl #28
     93c:	00e90300 	rsceq	r0, r9, r0, lsl #6
     940:	31020000 	mrscc	r0, (UNDEF: 2)
     944:	00005419 	andeq	r5, r0, r9, lsl r4
     948:	07020200 	streq	r0, [r2, -r0, lsl #4]
     94c:	0000006c 	andeq	r0, r0, ip, rrx
     950:	0000fa03 	andeq	pc, r0, r3, lsl #20
     954:	19340200 	ldmdbne	r4!, {r9}
     958:	00000067 	andeq	r0, r0, r7, rrx
     95c:	a3070402 	movwge	r0, #29698	; 0x7402
     960:	02000000 	andeq	r0, r0, #0
     964:	009e0708 	addseq	r0, lr, r8, lsl #14
     968:	04040000 	streq	r0, [r4], #-0
     96c:	746e6905 	strbtvc	r6, [lr], #-2309	; 0xfffff6fb
     970:	07040200 	streq	r0, [r4, -r0, lsl #4]
     974:	000000a8 	andeq	r0, r0, r8, lsr #1
     978:	0004c105 	andeq	ip, r4, r5, lsl #2
     97c:	07260100 	streq	r0, [r6, -r0, lsl #2]!
     980:	000000cb 	andeq	r0, r0, fp, asr #1
     984:	08000c80 	stmdaeq	r0, {r7, sl, fp}
     988:	00000064 	andeq	r0, r0, r4, rrx
     98c:	00cb9c01 	sbceq	r9, fp, r1, lsl #24
     990:	b5060000 	strlt	r0, [r6, #-0]
     994:	01000004 	tsteq	r0, r4
     998:	00481726 	subeq	r1, r8, r6, lsr #14
     99c:	91020000 	mrsls	r0, (UNDEF: 2)
     9a0:	0438076e 	ldrteq	r0, [r8], #-1902	; 0xfffff892
     9a4:	27010000 	strcs	r0, [r1, -r0]
     9a8:	00005b0e 	andeq	r5, r0, lr, lsl #22
     9ac:	74910200 	ldrvc	r0, [r1], #512	; 0x200
     9b0:	0004ba07 	andeq	fp, r4, r7, lsl #20
     9b4:	0e280100 	sufeqe	f0, f0, f0
     9b8:	00000048 	andeq	r0, r0, r8, asr #32
     9bc:	00729102 	rsbseq	r9, r2, r2, lsl #2
     9c0:	0b090408 	bleq	2419e8 <kernel_start-0x7dbe658>
     9c4:	01000004 	tsteq	r0, r4
     9c8:	0c4c061f 	mcrreq	6, 1, r0, ip, cr15
     9cc:	00340800 	eorseq	r0, r4, r0, lsl #16
     9d0:	9c010000 	stcls	0, cr0, [r1], {-0}
     9d4:	000000fb 	strdeq	r0, [r0], -fp
     9d8:	000c520a 	andeq	r5, ip, sl, lsl #4
     9dc:	00001c08 	andeq	r1, r0, r8, lsl #24
     9e0:	00690b00 	rsbeq	r0, r9, r0, lsl #22
     9e4:	5b122001 	blpl	4889f0 <kernel_start-0x7b77650>
     9e8:	02000000 	andeq	r0, r0, #0
     9ec:	00007491 	muleq	r0, r1, r4
     9f0:	0004410c 	andeq	r4, r4, ip, lsl #2
     9f4:	0a120100 	beq	480dfc <kernel_start-0x7b7f244>
     9f8:	0000005b 	andeq	r0, r0, fp, asr r0
     9fc:	08000c0c 	stmdaeq	r0, {r2, r3, sl, fp}
     a00:	00000040 	andeq	r0, r0, r0, asr #32
     a04:	01349c01 	teqeq	r4, r1, lsl #24
     a08:	9a070000 	bls	1c0a10 <kernel_start-0x7e3f630>
     a0c:	01000004 	tsteq	r0, r4
     a10:	005b0e13 	subseq	r0, fp, r3, lsl lr
     a14:	91020000 	mrsls	r0, (UNDEF: 2)
     a18:	045a0774 	ldrbeq	r0, [sl], #-1908	; 0xfffff88c
     a1c:	14010000 	strne	r0, [r1], #-0
     a20:	00005b0e 	andeq	r5, r0, lr, lsl #22
     a24:	70910200 	addsvc	r0, r1, r0, lsl #4
     a28:	046a0900 	strbteq	r0, [sl], #-2304	; 0xfffff700
     a2c:	09010000 	stmdbeq	r1, {}	; <UNPREDICTABLE>
     a30:	000bd406 	andeq	sp, fp, r6, lsl #8
     a34:	00003808 	andeq	r3, r0, r8, lsl #16
     a38:	5a9c0100 	bpl	fe700e40 <used_pipes+0xde700e0c>
     a3c:	07000001 	streq	r0, [r0, -r1]
     a40:	0000049a 	muleq	r0, sl, r4
     a44:	5b0e0a01 	blpl	383250 <kernel_start-0x7c7cdf0>
     a48:	02000000 	andeq	r0, r0, #0
     a4c:	0d007491 	cfstrseq	mvf7, [r0, #-580]	; 0xfffffdbc
     a50:	0000041b 	andeq	r0, r0, fp, lsl r4
     a54:	b8060401 	stmdalt	r6, {r0, sl}
     a58:	1c08000b 	stcne	0, cr0, [r8], {11}
     a5c:	01000000 	mrseq	r0, (UNDEF: 0)
     a60:	01fb009c 			; <UNDEFINED> instruction: 0x01fb009c
     a64:	00040000 	andeq	r0, r4, r0
     a68:	00000524 	andeq	r0, r0, r4, lsr #10
     a6c:	01030104 	tsteq	r3, r4, lsl #2
     a70:	310c0000 	mrscc	r0, (UNDEF: 12)
     a74:	0b000005 	bleq	a90 <kernel_start-0x7fff5b0>
     a78:	e4000000 	str	r0, [r0], #-0
     a7c:	1008000c 	andne	r0, r8, ip
     a80:	97000002 	strls	r0, [r0, -r2]
     a84:	02000008 	andeq	r0, r0, #8
     a88:	00600601 	rsbeq	r0, r0, r1, lsl #12
     a8c:	02020000 	andeq	r0, r2, #0
     a90:	0000df05 	andeq	sp, r0, r5, lsl #30
     a94:	05040200 	streq	r0, [r4, #-512]	; 0xfffffe00
     a98:	000000cd 	andeq	r0, r0, sp, asr #1
     a9c:	c8050802 	stmdagt	r5, {r1, fp}
     aa0:	03000000 	movweq	r0, #0
     aa4:	000000b5 	strheq	r0, [r0], -r5
     aa8:	4d182e02 	ldcmi	14, cr2, [r8, #-8]
     aac:	02000000 	andeq	r0, r0, #0
     ab0:	005e0801 	subseq	r0, lr, r1, lsl #16
     ab4:	e9030000 	stmdb	r3, {}	; <UNPREDICTABLE>
     ab8:	02000000 	andeq	r0, r0, #0
     abc:	00601931 	rsbeq	r1, r0, r1, lsr r9
     ac0:	02020000 	andeq	r0, r2, #0
     ac4:	00006c07 	andeq	r6, r0, r7, lsl #24
     ac8:	00fa0300 	rscseq	r0, sl, r0, lsl #6
     acc:	34020000 	strcc	r0, [r2], #-0
     ad0:	00007319 	andeq	r7, r0, r9, lsl r3
     ad4:	07040200 	streq	r0, [r4, -r0, lsl #4]
     ad8:	000000a3 	andeq	r0, r0, r3, lsr #1
     adc:	9e070802 	cdpls	8, 0, cr0, cr7, cr2, {0}
     ae0:	04000000 	streq	r0, [r0], #-0
     ae4:	6e690504 	cdpvs	5, 6, cr0, cr9, cr4, {0}
     ae8:	04020074 	streq	r0, [r2], #-116	; 0xffffff8c
     aec:	0000a807 	andeq	sl, r0, r7, lsl #16
     af0:	50420500 	subpl	r0, r2, r0, lsl #10
     af4:	0601004d 	streq	r0, [r1], -sp, asr #32
     af8:	0000540a 	andeq	r5, r0, sl, lsl #8
     afc:	24030500 	strcs	r0, [r3], #-1280	; 0xfffffb00
     b00:	06200000 	strteq	r0, [r0], -r0
     b04:	00000542 	andeq	r0, r0, r2, asr #10
     b08:	b4063d01 	strlt	r3, [r6], #-3329	; 0xfffff2ff
     b0c:	4008000e 	andmi	r0, r8, lr
     b10:	01000000 	mrseq	r0, (UNDEF: 0)
     b14:	0000f49c 	muleq	r0, ip, r4
     b18:	02690700 	rsbeq	r0, r9, #0, 14
     b1c:	3d010000 	stccc	0, cr0, [r1, #-0]
     b20:	00004119 	andeq	r4, r0, r9, lsl r1
     b24:	67910200 	ldrvs	r0, [r1, r0, lsl #4]
     b28:	0004d208 	andeq	sp, r4, r8, lsl #4
     b2c:	0e3e0100 	rsfeqe	f0, f6, f0
     b30:	00000067 	andeq	r0, r0, r7, rrx
     b34:	08749102 	ldmdaeq	r4!, {r1, r8, ip, pc}^
     b38:	000004df 	ldrdeq	r0, [r0], -pc	; <UNPREDICTABLE>
     b3c:	670e3f01 	strvs	r3, [lr, -r1, lsl #30]
     b40:	02000000 	andeq	r0, r0, #0
     b44:	1c087091 	stcne	0, cr7, [r8], {145}	; 0x91
     b48:	01000005 	tsteq	r0, r5
     b4c:	00670e40 	rsbeq	r0, r7, r0, asr #28
     b50:	91020000 	mrsls	r0, (UNDEF: 2)
     b54:	0606006c 	streq	r0, [r6], -ip, rrx
     b58:	01000005 	tsteq	r0, r5
     b5c:	0d360614 	ldceq	6, cr0, [r6, #-80]!	; 0xffffffb0
     b60:	017e0800 	cmneq	lr, r0, lsl #16
     b64:	9c010000 	stcls	0, cr0, [r1], {-0}
     b68:	0000018b 	andeq	r0, r0, fp, lsl #3
     b6c:	00050b07 	andeq	r0, r5, r7, lsl #22
     b70:	16140100 	ldrne	r0, [r4], -r0, lsl #2
     b74:	0000018b 	andeq	r0, r0, fp, lsl #3
     b78:	075c9102 	ldrbeq	r9, [ip, -r2, lsl #2]
     b7c:	00000269 	andeq	r0, r0, r9, ror #4
     b80:	41241401 			; <UNDEFINED> instruction: 0x41241401
     b84:	02000000 	andeq	r0, r0, #0
     b88:	c8085b91 	stmdagt	r8, {r0, r4, r7, r8, r9, fp, ip, lr}
     b8c:	01000004 	tsteq	r0, r4
     b90:	00670e15 	rsbeq	r0, r7, r5, lsl lr
     b94:	91020000 	mrsls	r0, (UNDEF: 2)
     b98:	04e50874 	strbteq	r0, [r5], #2164	; 0x874
     b9c:	16010000 	strne	r0, [r1], -r0
     ba0:	0000540e 	andeq	r5, r0, lr, lsl #8
     ba4:	72910200 	addsvc	r0, r1, #0, 4
     ba8:	0004d208 	andeq	sp, r4, r8, lsl #4
     bac:	0e340100 	rsfeqs	f0, f4, f0
     bb0:	00000067 	andeq	r0, r0, r7, rrx
     bb4:	08689102 	stmdaeq	r8!, {r1, r8, ip, pc}^
     bb8:	000004df 	ldrdeq	r0, [r0], -pc	; <UNPREDICTABLE>
     bbc:	670e3501 	strvs	r3, [lr, -r1, lsl #10]
     bc0:	02000000 	andeq	r0, r0, #0
     bc4:	f2086491 	vqshl.s8	d6, d1, d24
     bc8:	01000004 	tsteq	r0, r4
     bcc:	00670e36 	rsbeq	r0, r7, r6, lsr lr
     bd0:	91020000 	mrsls	r0, (UNDEF: 2)
     bd4:	0d460960 	vstreq.16	s1, [r6, #-192]	; 0xffffff40	; <UNPREDICTABLE>
     bd8:	00200800 	eoreq	r0, r0, r0, lsl #16
     bdc:	690a0000 	stmdbvs	sl, {}	; <UNPREDICTABLE>
     be0:	0d170100 	ldfeqs	f0, [r7, #-0]
     be4:	00000081 	andeq	r0, r0, r1, lsl #1
     be8:	006c9102 	rsbeq	r9, ip, r2, lsl #2
     bec:	91040b00 	tstls	r4, r0, lsl #22
     bf0:	02000001 	andeq	r0, r0, #1
     bf4:	00670801 	rsbeq	r0, r7, r1, lsl #16
     bf8:	10060000 	andne	r0, r6, r0
     bfc:	01000005 	tsteq	r0, r5
     c00:	0d04060c 	stceq	6, cr0, [r4, #-48]	; 0xffffffd0
     c04:	00320800 	eorseq	r0, r2, r0, lsl #16
     c08:	9c010000 	stcls	0, cr0, [r1], {-0}
     c0c:	000001dc 	ldrdeq	r0, [r0], -ip
     c10:	00052c07 	andeq	r2, r5, r7, lsl #24
     c14:	1b0c0100 	blne	30101c <kernel_start-0x7cff024>
     c18:	00000067 	andeq	r0, r0, r7, rrx
     c1c:	086c9102 	stmdaeq	ip!, {r1, r8, ip, pc}^
     c20:	000000f2 	strdeq	r0, [r0], -r2
     c24:	670e0d01 	strvs	r0, [lr, -r1, lsl #26]
     c28:	02000000 	andeq	r0, r0, #0
     c2c:	720a7091 	andvc	r7, sl, #145	; 0x91
     c30:	01007465 	tsteq	r0, r5, ror #8
     c34:	00670e0e 	rsbeq	r0, r7, lr, lsl #28
     c38:	91020000 	mrsls	r0, (UNDEF: 2)
     c3c:	eb0c0074 	bl	300e14 <kernel_start-0x7cff22c>
     c40:	01000004 	tsteq	r0, r4
     c44:	0ce40608 	stcleq	6, cr0, [r4], #32
     c48:	00200800 	eoreq	r0, r0, r0, lsl #16
     c4c:	9c010000 	stcls	0, cr0, [r1], {-0}
     c50:	6d70620d 	lfmvs	f6, 2, [r0, #-52]!	; 0xffffffcc
     c54:	15080100 	strne	r0, [r8, #-256]	; 0xffffff00
     c58:	00000041 	andeq	r0, r0, r1, asr #32
     c5c:	00779102 	rsbseq	r9, r7, r2, lsl #2
     c60:	0000ea00 	andeq	lr, r0, r0, lsl #20
     c64:	fc000400 	stc2	4, cr0, [r0], {-0}
     c68:	04000005 	streq	r0, [r0], #-5
     c6c:	00010301 	andeq	r0, r1, r1, lsl #6
     c70:	058a0c00 	streq	r0, [sl, #3072]	; 0xc00
     c74:	000b0000 	andeq	r0, fp, r0
     c78:	0ef40000 	cdpeq	0, 15, cr0, cr4, cr0, {0}
     c7c:	00ec0800 	rsceq	r0, ip, r0, lsl #16
     c80:	09f40000 	ldmibeq	r4!, {}^	; <UNPREDICTABLE>
     c84:	01020000 	mrseq	r0, (UNDEF: 2)
     c88:	00006006 	andeq	r6, r0, r6
     c8c:	05020200 	streq	r0, [r2, #-512]	; 0xfffffe00
     c90:	000000df 	ldrdeq	r0, [r0], -pc	; <UNPREDICTABLE>
     c94:	cd050402 	cfstrsgt	mvf0, [r5, #-8]
     c98:	02000000 	andeq	r0, r0, #0
     c9c:	00c80508 	sbceq	r0, r8, r8, lsl #10
     ca0:	b5030000 	strlt	r0, [r3, #-0]
     ca4:	02000000 	andeq	r0, r0, #0
     ca8:	004d182e 	subeq	r1, sp, lr, lsr #16
     cac:	01020000 	mrseq	r0, (UNDEF: 2)
     cb0:	00005e08 	andeq	r5, r0, r8, lsl #28
     cb4:	00e90300 	rsceq	r0, r9, r0, lsl #6
     cb8:	31020000 	mrscc	r0, (UNDEF: 2)
     cbc:	00006019 	andeq	r6, r0, r9, lsl r0
     cc0:	07020200 	streq	r0, [r2, -r0, lsl #4]
     cc4:	0000006c 	andeq	r0, r0, ip, rrx
     cc8:	0000fa03 	andeq	pc, r0, r3, lsl #20
     ccc:	19340200 	ldmdbne	r4!, {r9}
     cd0:	00000073 	andeq	r0, r0, r3, ror r0
     cd4:	a3070402 	movwge	r0, #29698	; 0x7402
     cd8:	02000000 	andeq	r0, r0, #0
     cdc:	009e0708 	addseq	r0, lr, r8, lsl #14
     ce0:	04040000 	streq	r0, [r4], #-0
     ce4:	746e6905 	strbtvc	r6, [lr], #-2309	; 0xfffff6fb
     ce8:	07040200 	streq	r0, [r4, -r0, lsl #4]
     cec:	000000a8 	andeq	r0, r0, r8, lsr #1
     cf0:	00056705 	andeq	r6, r5, r5, lsl #14
     cf4:	0a170100 	beq	5c10fc <kernel_start-0x7a3ef44>
     cf8:	00000054 	andeq	r0, r0, r4, asr r0
     cfc:	08000fa8 	stmdaeq	r0, {r3, r5, r7, r8, r9, sl, fp}
     d00:	00000038 	andeq	r0, r0, r8, lsr r0
     d04:	4d069c01 	stcmi	12, cr9, [r6, #-4]
     d08:	01000005 	tsteq	r0, r5
     d0c:	0ef40604 	cdpeq	6, 15, cr0, cr4, cr4, {0}
     d10:	00b40800 	adcseq	r0, r4, r0, lsl #16
     d14:	9c010000 	stcls	0, cr0, [r1], {-0}
     d18:	000000e7 	andeq	r0, r0, r7, ror #1
     d1c:	00058107 	andeq	r8, r5, r7, lsl #2
     d20:	28040100 	stmdacs	r4, {r8}
     d24:	000000e7 	andeq	r0, r0, r7, ror #1
     d28:	076c9102 	strbeq	r9, [ip, -r2, lsl #2]!
     d2c:	00000579 	andeq	r0, r0, r9, ror r5
     d30:	413c0401 	teqmi	ip, r1, lsl #8
     d34:	02000000 	andeq	r0, r0, #0
     d38:	69086b91 	stmdbvs	r8, {r0, r4, r7, r8, r9, fp, sp, lr}
     d3c:	0b050100 	bleq	141144 <kernel_start-0x7ebeefc>
     d40:	00000041 	andeq	r0, r0, r1, asr #32
     d44:	00779102 	rsbseq	r9, r7, r2, lsl #2
     d48:	00410409 	subeq	r0, r1, r9, lsl #8
     d4c:	78000000 	stmdavc	r0, {}	; <UNPREDICTABLE>
     d50:	04000001 	streq	r0, [r0], #-1
     d54:	00069600 	andeq	r9, r6, r0, lsl #12
     d58:	03010400 	movweq	r0, #5120	; 0x1400
     d5c:	0c000001 	stceq	0, cr0, [r0], {1}
     d60:	000005c5 	andeq	r0, r0, r5, asr #11
     d64:	0000000b 	andeq	r0, r0, fp
     d68:	08000fe0 	stmdaeq	r0, {r5, r6, r7, r8, r9, sl, fp}
     d6c:	000003d0 	ldrdeq	r0, [r0], -r0	; <UNPREDICTABLE>
     d70:	00000b04 	andeq	r0, r0, r4, lsl #22
     d74:	60060102 	andvs	r0, r6, r2, lsl #2
     d78:	02000000 	andeq	r0, r0, #0
     d7c:	00df0502 	sbcseq	r0, pc, r2, lsl #10
     d80:	04020000 	streq	r0, [r2], #-0
     d84:	0000cd05 	andeq	ip, r0, r5, lsl #26
     d88:	05080200 	streq	r0, [r8, #-512]	; 0xfffffe00
     d8c:	000000c8 	andeq	r0, r0, r8, asr #1
     d90:	0000b503 	andeq	fp, r0, r3, lsl #10
     d94:	182e0200 	stmdane	lr!, {r9}
     d98:	0000004d 	andeq	r0, r0, sp, asr #32
     d9c:	5e080102 	adfple	f0, f0, f2
     da0:	02000000 	andeq	r0, r0, #0
     da4:	006c0702 	rsbeq	r0, ip, r2, lsl #14
     da8:	fa030000 	blx	c0db0 <kernel_start-0x7f3f290>
     dac:	02000000 	andeq	r0, r0, #0
     db0:	00671934 	rsbeq	r1, r7, r4, lsr r9
     db4:	04020000 	streq	r0, [r2], #-0
     db8:	0000a307 	andeq	sl, r0, r7, lsl #6
     dbc:	07080200 	streq	r0, [r8, -r0, lsl #4]
     dc0:	0000009e 	muleq	r0, lr, r0
     dc4:	69050404 	stmdbvs	r5, {r2, sl}
     dc8:	0200746e 	andeq	r7, r0, #1845493760	; 0x6e000000
     dcc:	00a80704 	adceq	r0, r8, r4, lsl #14
     dd0:	b9050000 	stmdblt	r5, {}	; <UNPREDICTABLE>
     dd4:	01000005 	tsteq	r0, r5
     dd8:	130c064a 	movwne	r0, #50762	; 0xc64a
     ddc:	00a40800 	adceq	r0, r4, r0, lsl #16
     de0:	9c010000 	stcls	0, cr0, [r1], {-0}
     de4:	000000d6 	ldrdeq	r0, [r0], -r6
     de8:	0005c006 	andeq	ip, r5, r6
     dec:	154a0100 	strbne	r0, [sl, #-256]	; 0xffffff00
     df0:	00000041 	andeq	r0, r0, r1, asr #32
     df4:	076f9102 	strbeq	r9, [pc, -r2, lsl #2]!
     df8:	006e6970 	rsbeq	r6, lr, r0, ror r9
     dfc:	41234a01 			; <UNDEFINED> instruction: 0x41234a01
     e00:	02000000 	andeq	r0, r0, #0
     e04:	69066e91 	stmdbvs	r6, {r0, r4, r7, r9, sl, fp, sp, lr}
     e08:	01000002 	tsteq	r0, r2
     e0c:	0041304a 	subeq	r3, r1, sl, asr #32
     e10:	91020000 	mrsls	r0, (UNDEF: 2)
     e14:	00f2086d 	rscseq	r0, r2, sp, ror #16
     e18:	4b010000 	blmi	40e20 <kernel_start-0x7fbf220>
     e1c:	00005b0e 	andeq	r5, r0, lr, lsl #22
     e20:	74910200 	ldrvc	r0, [r1], #512	; 0x200
     e24:	05af0900 	streq	r0, [pc, #2304]!	; 172c <kernel_start-0x7ffe914>
     e28:	37010000 	strcc	r0, [r1, -r0]
     e2c:	000fe006 	andeq	lr, pc, r6
     e30:	00032c08 	andeq	r2, r3, r8, lsl #24
     e34:	069c0100 	ldreq	r0, [ip], r0, lsl #2
     e38:	000005c0 	andeq	r0, r0, r0, asr #11
     e3c:	41183701 	tstmi	r8, r1, lsl #14
     e40:	02000000 	andeq	r0, r0, #0
     e44:	70075f91 	mulvc	r7, r1, pc	; <UNPREDICTABLE>
     e48:	01006e69 	tsteq	r0, r9, ror #28
     e4c:	00412637 	subeq	r2, r1, r7, lsr r6
     e50:	91020000 	mrsls	r0, (UNDEF: 2)
     e54:	05a5065e 	streq	r0, [r5, #1630]!	; 0x65e
     e58:	37010000 	strcc	r0, [r1, -r0]
     e5c:	00004133 	andeq	r4, r0, r3, lsr r1
     e60:	5d910200 	lfmpl	f0, 4, [r1]
     e64:	0005a008 	andeq	sl, r5, r8
     e68:	0e380100 	rsfeqe	f0, f0, f0
     e6c:	0000005b 	andeq	r0, r0, fp, asr r0
     e70:	08749102 	ldmdaeq	r4!, {r1, r8, ip, pc}^
     e74:	000005dc 	ldrdeq	r0, [r0], -ip
     e78:	5b143801 	blpl	50ee84 <kernel_start-0x7af11bc>
     e7c:	02000000 	andeq	r0, r0, #0
     e80:	000a7091 	muleq	sl, r1, r0
     e84:	4c000000 	stcmi	0, cr0, [r0], {-0}
     e88:	08000001 	stmdaeq	r0, {r0}
     e8c:	000000f2 	strdeq	r0, [r0], -r2
     e90:	5b0d3b01 	blpl	34fa9c <kernel_start-0x7cb05a4>
     e94:	02000000 	andeq	r0, r0, #0
     e98:	0a006491 	beq	1a0e4 <kernel_start-0x7fe5f5c>
     e9c:	00000018 	andeq	r0, r0, r8, lsl r0
     ea0:	00000165 	andeq	r0, r0, r5, ror #2
     ea4:	0000f208 	andeq	pc, r0, r8, lsl #4
     ea8:	0d3e0100 	ldfeqs	f0, [lr, #-0]
     eac:	0000005b 	andeq	r0, r0, fp, asr r0
     eb0:	00689102 	rsbeq	r9, r8, r2, lsl #2
     eb4:	0000300b 	andeq	r3, r0, fp
     eb8:	00f20800 	rscseq	r0, r2, r0, lsl #16
     ebc:	41010000 	mrsmi	r0, (UNDEF: 1)
     ec0:	00005b0d 	andeq	r5, r0, sp, lsl #22
     ec4:	6c910200 	lfmvs	f0, 4, [r1], {0}
     ec8:	f3000000 	vhadd.u8	d0, d0, d0
     ecc:	04000001 	streq	r0, [r0], #-1
     ed0:	00074800 	andeq	r4, r7, r0, lsl #16
     ed4:	03010400 	movweq	r0, #5120	; 0x1400
     ed8:	0c000001 	stceq	0, cr0, [r0], {1}
     edc:	0000066a 	andeq	r0, r0, sl, ror #12
     ee0:	0000000b 	andeq	r0, r0, fp
     ee4:	080013b0 	stmdaeq	r0, {r4, r5, r7, r8, r9, ip}
     ee8:	000002e0 	andeq	r0, r0, r0, ror #5
     eec:	00000ca7 	andeq	r0, r0, r7, lsr #25
     ef0:	60060102 	andvs	r0, r6, r2, lsl #2
     ef4:	02000000 	andeq	r0, r0, #0
     ef8:	00df0502 	sbcseq	r0, pc, r2, lsl #10
     efc:	04020000 	streq	r0, [r2], #-0
     f00:	0000cd05 	andeq	ip, r0, r5, lsl #26
     f04:	05080200 	streq	r0, [r8, #-512]	; 0xfffffe00
     f08:	000000c8 	andeq	r0, r0, r8, asr #1
     f0c:	0000b503 	andeq	fp, r0, r3, lsl #10
     f10:	182e0200 	stmdane	lr!, {r9}
     f14:	0000004d 	andeq	r0, r0, sp, asr #32
     f18:	5e080102 	adfple	f0, f0, f2
     f1c:	03000000 	movweq	r0, #0
     f20:	000000e9 	andeq	r0, r0, r9, ror #1
     f24:	60193102 	andsvs	r3, r9, r2, lsl #2
     f28:	02000000 	andeq	r0, r0, #0
     f2c:	006c0702 	rsbeq	r0, ip, r2, lsl #14
     f30:	fa030000 	blx	c0f38 <kernel_start-0x7f3f108>
     f34:	02000000 	andeq	r0, r0, #0
     f38:	00731934 	rsbseq	r1, r3, r4, lsr r9
     f3c:	04020000 	streq	r0, [r2], #-0
     f40:	0000a307 	andeq	sl, r0, r7, lsl #6
     f44:	07080200 	streq	r0, [r8, -r0, lsl #4]
     f48:	0000009e 	muleq	r0, lr, r0
     f4c:	69050404 	stmdbvs	r5, {r2, sl}
     f50:	0200746e 	andeq	r7, r0, #1845493760	; 0x6e000000
     f54:	00a80704 	adceq	r0, r8, r4, lsl #14
     f58:	ed050000 	stc	0, cr0, [r5, #-0]
     f5c:	01000005 	tsteq	r0, r5
     f60:	14ec0639 	strbtne	r0, [ip], #1593	; 0x639
     f64:	01a40800 			; <UNDEFINED> instruction: 0x01a40800
     f68:	9c010000 	stcls	0, cr0, [r1], {-0}
     f6c:	000000f1 	strdeq	r0, [r0], -r1
     f70:	00062406 	andeq	r2, r6, r6, lsl #8
     f74:	18390100 	ldmdane	r9!, {r8}
     f78:	00000067 	andeq	r0, r0, r7, rrx
     f7c:	06749102 	ldrbteq	r9, [r4], -r2, lsl #2
     f80:	00000649 	andeq	r0, r0, r9, asr #12
     f84:	67273901 	strvs	r3, [r7, -r1, lsl #18]!
     f88:	02000000 	andeq	r0, r0, #0
     f8c:	0e067091 	mcreq	0, 0, r7, cr6, cr1, {4}
     f90:	01000006 	tsteq	r0, r6
     f94:	00673a39 	rsbeq	r3, r7, r9, lsr sl
     f98:	91020000 	mrsls	r0, (UNDEF: 2)
     f9c:	05f6066c 	ldrbeq	r0, [r6, #1644]!	; 0x66c
     fa0:	39010000 	stmdbcc	r1, {}	; <UNPREDICTABLE>
     fa4:	0000674d 	andeq	r6, r0, sp, asr #14
     fa8:	68910200 	ldmvs	r1, {r9}
     fac:	00065306 	andeq	r5, r6, r6, lsl #6
     fb0:	60390100 	eorsvs	r0, r9, r0, lsl #2
     fb4:	00000067 	andeq	r0, r0, r7, rrx
     fb8:	00009102 	andeq	r9, r0, r2, lsl #2
     fbc:	00068e07 	andeq	r8, r6, r7, lsl #28
     fc0:	061b0100 	ldreq	r0, [fp], -r0, lsl #2
     fc4:	08001450 	stmdaeq	r0, {r4, r6, sl, ip}
     fc8:	0000009c 	muleq	r0, ip, r0
     fcc:	01449c01 	cmpeq	r4, r1, lsl #24
     fd0:	49060000 	stmdbmi	r6, {}	; <UNPREDICTABLE>
     fd4:	01000006 	tsteq	r0, r6
     fd8:	0067161b 	rsbeq	r1, r7, fp, lsl r6
     fdc:	91020000 	mrsls	r0, (UNDEF: 2)
     fe0:	060e0864 	streq	r0, [lr], -r4, ror #16
     fe4:	25010000 	strcs	r0, [r1, #-0]
     fe8:	0000540c 	andeq	r5, r0, ip, lsl #8
     fec:	76910200 	ldrvc	r0, [r1], r0, lsl #4
     ff0:	52524109 	subspl	r4, r2, #1073741826	; 0x40000002
     ff4:	0c290100 	stfeqs	f0, [r9], #-0
     ff8:	00000067 	andeq	r0, r0, r7, rrx
     ffc:	086c9102 	stmdaeq	ip!, {r1, r8, ip, pc}^
    1000:	00000682 	andeq	r0, r0, r2, lsl #13
    1004:	670c2a01 	strvs	r2, [ip, -r1, lsl #20]
    1008:	02000000 	andeq	r0, r0, #0
    100c:	0a007091 	beq	1d258 <kernel_start-0x7fe2de8>
    1010:	0000062a 	andeq	r0, r0, sl, lsr #12
    1014:	670a0601 	strvs	r0, [sl, -r1, lsl #12]
    1018:	b0000000 	andlt	r0, r0, r0
    101c:	a0080013 	andge	r0, r8, r3, lsl r0
    1020:	01000000 	mrseq	r0, (UNDEF: 0)
    1024:	05e2089c 	strbeq	r0, [r2, #2204]!	; 0x89c
    1028:	07010000 	streq	r0, [r1, -r0]
    102c:	0000670e 	andeq	r6, r0, lr, lsl #14
    1030:	68910200 	ldmvs	r1, {r9}
    1034:	00061808 	andeq	r1, r6, r8, lsl #16
    1038:	0e080100 	adfeqe	f0, f0, f0
    103c:	00000067 	andeq	r0, r0, r7, rrx
    1040:	08649102 	stmdaeq	r4!, {r1, r8, ip, pc}^
    1044:	00000606 	andeq	r0, r0, r6, lsl #12
    1048:	670e0901 	strvs	r0, [lr, -r1, lsl #18]
    104c:	02000000 	andeq	r0, r0, #0
    1050:	00087491 	muleq	r8, r1, r4
    1054:	01000006 	tsteq	r0, r6
    1058:	00670e0e 	rsbeq	r0, r7, lr, lsl #28
    105c:	91020000 	mrsls	r0, (UNDEF: 2)
    1060:	063c0860 	ldrteq	r0, [ip], -r0, ror #16
    1064:	0f010000 	svceq	0x00010000
    1068:	0000540e 	andeq	r5, r0, lr, lsl #8
    106c:	5e910200 	cdppl	2, 9, cr0, cr1, cr0, {0}
    1070:	00066108 	andeq	r6, r6, r8, lsl #2
    1074:	0e100100 	mufeqs	f0, f0, f0
    1078:	00000054 	andeq	r0, r0, r4, asr r0
    107c:	08709102 	ldmdaeq	r0!, {r1, r8, ip, pc}^
    1080:	0000065b 	andeq	r0, r0, fp, asr r6
    1084:	670e1401 	strvs	r1, [lr, -r1, lsl #8]
    1088:	02000000 	andeq	r0, r0, #0
    108c:	cc0b5891 	stcgt	8, cr5, [fp], {145}	; 0x91
    1090:	26080013 			; <UNDEFINED> instruction: 0x26080013
    1094:	de000000 	cdple	0, 0, cr0, cr0, cr0, {0}
    1098:	09000001 	stmdbeq	r0, {r0}
    109c:	0a010069 	beq	41248 <kernel_start-0x7fbedf8>
    10a0:	00004111 	andeq	r4, r0, r1, lsl r1
    10a4:	73910200 	orrsvc	r0, r1, #0, 4
    10a8:	14100c00 	ldrne	r0, [r0], #-3072	; 0xfffff400
    10ac:	001c0800 	andseq	r0, ip, r0, lsl #16
    10b0:	69090000 	stmdbvs	r9, {}	; <UNPREDICTABLE>
    10b4:	11110100 	tstne	r1, r0, lsl #2
    10b8:	00000041 	andeq	r0, r0, r1, asr #32
    10bc:	006f9102 	rsbeq	r9, pc, r2, lsl #2
    10c0:	01480000 	mrseq	r0, (UNDEF: 72)
    10c4:	00040000 	andeq	r0, r4, r0
    10c8:	0000081a 	andeq	r0, r0, sl, lsl r8
    10cc:	01030104 	tsteq	r3, r4, lsl #2
    10d0:	ba0c0000 	blt	3010d8 <kernel_start-0x7cfef68>
    10d4:	0b000006 	bleq	10f4 <kernel_start-0x7ffef4c>
    10d8:	90000000 	andls	r0, r0, r0
    10dc:	28080016 	stmdacs	r8, {r1, r2, r4}
    10e0:	ac000001 	stcge	0, cr0, [r0], {1}
    10e4:	0200000e 	andeq	r0, r0, #14
    10e8:	00600601 	rsbeq	r0, r0, r1, lsl #12
    10ec:	02020000 	andeq	r0, r2, #0
    10f0:	0000df05 	andeq	sp, r0, r5, lsl #30
    10f4:	05040200 	streq	r0, [r4, #-512]	; 0xfffffe00
    10f8:	000000cd 	andeq	r0, r0, sp, asr #1
    10fc:	c8050802 	stmdagt	r5, {r1, fp}
    1100:	03000000 	movweq	r0, #0
    1104:	000000b5 	strheq	r0, [r0], -r5
    1108:	4d182e02 	ldcmi	14, cr2, [r8, #-8]
    110c:	02000000 	andeq	r0, r0, #0
    1110:	005e0801 	subseq	r0, lr, r1, lsl #16
    1114:	02020000 	andeq	r0, r2, #0
    1118:	00006c07 	andeq	r6, r0, r7, lsl #24
    111c:	00fa0300 	rscseq	r0, sl, r0, lsl #6
    1120:	34020000 	strcc	r0, [r2], #-0
    1124:	00006719 	andeq	r6, r0, r9, lsl r7
    1128:	07040200 	streq	r0, [r4, -r0, lsl #4]
    112c:	000000a3 	andeq	r0, r0, r3, lsr #1
    1130:	9e070802 	cdpls	8, 0, cr0, cr7, cr2, {0}
    1134:	04000000 	streq	r0, [r0], #-0
    1138:	6e690504 	cdpvs	5, 6, cr0, cr9, cr4, {0}
    113c:	04020074 	streq	r0, [r2], #-116	; 0xffffff8c
    1140:	0000a807 	andeq	sl, r0, r7, lsl #16
    1144:	06950500 	ldreq	r0, [r5], r0, lsl #10
    1148:	2e010000 	cdpcs	0, 0, cr0, cr1, cr0, {0}
    114c:	00179806 	andseq	r9, r7, r6, lsl #16
    1150:	00002008 	andeq	r2, r0, r8
    1154:	a99c0100 	ldmibge	ip, {r8}
    1158:	06000000 	streq	r0, [r0], -r0
    115c:	00000465 	andeq	r0, r0, r5, ror #8
    1160:	411f2e01 	tstmi	pc, r1, lsl #28
    1164:	02000000 	andeq	r0, r0, #0
    1168:	07007791 			; <UNDEFINED> instruction: 0x07007791
    116c:	000006d2 	ldrdeq	r0, [r0], -r2
    1170:	70062801 	andvc	r2, r6, r1, lsl #16
    1174:	28080017 	stmdacs	r8, {r0, r1, r2, r4}
    1178:	01000000 	mrseq	r0, (UNDEF: 0)
    117c:	06a6089c 	ssateq	r0, #7, ip, lsl #17
    1180:	07010000 	streq	r0, [r1, -r0]
    1184:	00169006 	andseq	r9, r6, r6
    1188:	0000e008 	andeq	lr, r0, r8
    118c:	069c0100 	ldreq	r0, [ip], r0, lsl #2
    1190:	000006e9 	andeq	r0, r0, r9, ror #13
    1194:	5b1a0701 	blpl	682da0 <kernel_start-0x797d2a0>
    1198:	02000000 	andeq	r0, r0, #0
    119c:	cd095c91 	stcgt	12, cr5, [r9, #-580]	; 0xfffffdbc
    11a0:	01000004 	tsteq	r0, r4
    11a4:	005b0c0f 	subseq	r0, fp, pc, lsl #24
    11a8:	91020000 	mrsls	r0, (UNDEF: 2)
    11ac:	06060974 			; <UNDEFINED> instruction: 0x06060974
    11b0:	11010000 	mrsne	r0, (UNDEF: 1)
    11b4:	00005b0c 	andeq	r5, r0, ip, lsl #22
    11b8:	70910200 	addsvc	r0, r1, r0, lsl #4
    11bc:	00066109 	andeq	r6, r6, r9, lsl #2
    11c0:	0c1a0100 	ldfeqs	f0, [sl], {-0}
    11c4:	0000005b 	andeq	r0, r0, fp, asr r0
    11c8:	09689102 	stmdbeq	r8!, {r1, r8, ip, pc}^
    11cc:	000006b1 			; <UNDEFINED> instruction: 0x000006b1
    11d0:	5b0c2201 	blpl	3099dc <kernel_start-0x7cf6664>
    11d4:	02000000 	andeq	r0, r0, #0
    11d8:	e60a6491 			; <UNDEFINED> instruction: 0xe60a6491
    11dc:	26080016 			; <UNDEFINED> instruction: 0x26080016
    11e0:	33000000 	movwcc	r0, #0
    11e4:	0b000001 	bleq	11f0 <kernel_start-0x7ffee50>
    11e8:	14010069 	strne	r0, [r1], #-105	; 0xffffff97
    11ec:	00004113 	andeq	r4, r0, r3, lsl r1
    11f0:	6f910200 	svcvs	0x00910200
    11f4:	17280c00 	strne	r0, [r8, -r0, lsl #24]!
    11f8:	001a0800 	andseq	r0, sl, r0, lsl #16
    11fc:	690b0000 	stmdbvs	fp, {}	; <UNPREDICTABLE>
    1200:	131d0100 	tstne	sp, #0, 2
    1204:	00000041 	andeq	r0, r0, r1, asr #32
    1208:	006e9102 	rsbeq	r9, lr, r2, lsl #2
    120c:	017d0000 	cmneq	sp, r0
    1210:	00040000 	andeq	r0, r4, r0
    1214:	000008e8 	andeq	r0, r0, r8, ror #17
    1218:	01030104 	tsteq	r3, r4, lsl #2
    121c:	020c0000 	andeq	r0, ip, #0
    1220:	0b000007 	bleq	1244 <kernel_start-0x7ffedfc>
    1224:	b8000000 	stmdalt	r0, {}	; <UNPREDICTABLE>
    1228:	30080017 	andcc	r0, r8, r7, lsl r0
    122c:	d7000001 	strle	r0, [r0, -r1]
    1230:	0200000f 	andeq	r0, r0, #15
    1234:	00600601 	rsbeq	r0, r0, r1, lsl #12
    1238:	02020000 	andeq	r0, r2, #0
    123c:	0000df05 	andeq	sp, r0, r5, lsl #30
    1240:	05040200 	streq	r0, [r4, #-512]	; 0xfffffe00
    1244:	000000cd 	andeq	r0, r0, sp, asr #1
    1248:	c8050802 	stmdagt	r5, {r1, fp}
    124c:	02000000 	andeq	r0, r0, #0
    1250:	005e0801 	subseq	r0, lr, r1, lsl #16
    1254:	02020000 	andeq	r0, r2, #0
    1258:	00006c07 	andeq	r6, r0, r7, lsl #24
    125c:	00fa0300 	rscseq	r0, sl, r0, lsl #6
    1260:	34020000 	strcc	r0, [r2], #-0
    1264:	00005b19 	andeq	r5, r0, r9, lsl fp
    1268:	07040200 	streq	r0, [r4, -r0, lsl #4]
    126c:	000000a3 	andeq	r0, r0, r3, lsr #1
    1270:	9e070802 	cdpls	8, 0, cr0, cr7, cr2, {0}
    1274:	04000000 	streq	r0, [r0], #-0
    1278:	6e690504 	cdpvs	5, 6, cr0, cr9, cr4, {0}
    127c:	04020074 	streq	r0, [r2], #-116	; 0xffffff8c
    1280:	0000a807 	andeq	sl, r0, r7, lsl #16
    1284:	04080200 	streq	r0, [r8], #-512	; 0xfffffe00
    1288:	00000735 	andeq	r0, r0, r5, lsr r7
    128c:	67080102 	strvs	r0, [r8, -r2, lsl #2]
    1290:	05000000 	streq	r0, [r0, #-0]
    1294:	00424350 	subeq	r4, r2, r0, asr r3
    1298:	0806010c 	stmdaeq	r6, {r2, r3, r8}
    129c:	000000ba 	strheq	r0, [r0], -sl
    12a0:	44495006 	strbmi	r5, [r9], #-6
    12a4:	06070100 	streq	r0, [r7], -r0, lsl #2
    12a8:	00000069 	andeq	r0, r0, r9, rrx
    12ac:	032c0700 			; <UNDEFINED> instruction: 0x032c0700
    12b0:	09010000 	stmdbeq	r1, {}	; <UNPREDICTABLE>
    12b4:	0000ba0e 	andeq	fp, r0, lr, lsl #20
    12b8:	46070400 	strmi	r0, [r7], -r0, lsl #8
    12bc:	01000007 	tsteq	r0, r7
    12c0:	00ba0e0a 	adcseq	r0, sl, sl, lsl #28
    12c4:	00080000 	andeq	r0, r8, r0
    12c8:	00850408 	addeq	r0, r5, r8, lsl #8
    12cc:	fd090000 	stc2	0, cr0, [r9, #-0]
    12d0:	01000006 	tsteq	r0, r6
    12d4:	00ba0d0e 	adcseq	r0, sl, lr, lsl #26
    12d8:	03050000 	movweq	r0, #20480	; 0x5000
    12dc:	20000028 	andcs	r0, r0, r8, lsr #32
    12e0:	0006f209 	andeq	pc, r6, r9, lsl #4
    12e4:	0d110100 	ldfeqs	f0, [r1, #-0]
    12e8:	000000ba 	strheq	r0, [r0], -sl
    12ec:	002c0305 	eoreq	r0, ip, r5, lsl #6
    12f0:	41092000 	mrsmi	r2, (UNDEF: 9)
    12f4:	01000007 	tsteq	r0, r7
    12f8:	00ba0d14 	adcseq	r0, sl, r4, lsl sp
    12fc:	03050000 	movweq	r0, #20480	; 0x5000
    1300:	20000030 	andcs	r0, r0, r0, lsr r0
    1304:	0007250a 	andeq	r2, r7, sl, lsl #10
    1308:	062f0100 	strteq	r0, [pc], -r0, lsl #2
    130c:	08001858 	stmdaeq	r0, {r3, r4, r6, fp, ip}
    1310:	00000090 	muleq	r0, r0, r0
    1314:	01449c01 	cmpeq	r4, r1, lsl #24
    1318:	190b0000 	stmdbne	fp, {}	; <UNPREDICTABLE>
    131c:	01000007 	tsteq	r0, r7
    1320:	00ba1c2f 	adcseq	r1, sl, pc, lsr #24
    1324:	91020000 	mrsls	r0, (UNDEF: 2)
    1328:	18be0c6c 	ldmne	lr!, {r2, r3, r5, r6, sl, fp}
    132c:	00180800 	andseq	r0, r8, r0, lsl #16
    1330:	f70d0000 			; <UNDEFINED> instruction: 0xf70d0000
    1334:	01000006 	tsteq	r0, r6
    1338:	00ba0f3c 	adcseq	r0, sl, ip, lsr pc
    133c:	91020000 	mrsls	r0, (UNDEF: 2)
    1340:	074b0d74 	smlsldxeq	r0, fp, r4, sp
    1344:	3d010000 	stccc	0, cr0, [r1, #-0]
    1348:	0000ba0f 	andeq	fp, r0, pc, lsl #20
    134c:	70910200 	addsvc	r0, r1, r0, lsl #4
    1350:	1e0e0000 	cdpne	0, 0, cr0, cr14, cr0, {0}
    1354:	01000007 	tsteq	r0, r7
    1358:	17d8061d 	bfine	r0, sp, #12, #13
    135c:	00800800 	addeq	r0, r0, r0, lsl #16
    1360:	9c010000 	stcls	0, cr0, [r1], {-0}
    1364:	0000016a 	andeq	r0, r0, sl, ror #2
    1368:	0007190b 	andeq	r1, r7, fp, lsl #18
    136c:	191d0100 	ldmdbne	sp, {r8}
    1370:	000000ba 	strheq	r0, [r0], -sl
    1374:	00749102 	rsbseq	r9, r4, r2, lsl #2
    1378:	00072f0f 	andeq	r2, r7, pc, lsl #30
    137c:	0a170100 	beq	5c1784 <kernel_start-0x7a3e8bc>
    1380:	0000004f 	andeq	r0, r0, pc, asr #32
    1384:	080017b8 	stmdaeq	r0, {r3, r4, r5, r7, r8, r9, sl, ip}
    1388:	00000020 	andeq	r0, r0, r0, lsr #32
    138c:	12009c01 	andne	r9, r0, #256	; 0x100
    1390:	04000002 	streq	r0, [r0], #-2
    1394:	0009ed00 	andeq	lr, r9, r0, lsl #26
    1398:	03010400 	movweq	r0, #5120	; 0x1400
    139c:	0c000001 	stceq	0, cr0, [r0], {1}
    13a0:	00000784 	andeq	r0, r0, r4, lsl #15
    13a4:	0000000b 	andeq	r0, r0, fp
    13a8:	080018e8 	stmdaeq	r0, {r3, r5, r6, r7, fp, ip}
    13ac:	0000021e 	andeq	r0, r0, lr, lsl r2
    13b0:	00001105 	andeq	r1, r0, r5, lsl #2
    13b4:	60060102 	andvs	r0, r6, r2, lsl #2
    13b8:	02000000 	andeq	r0, r0, #0
    13bc:	00df0502 	sbcseq	r0, pc, r2, lsl #10
    13c0:	04020000 	streq	r0, [r2], #-0
    13c4:	0000cd05 	andeq	ip, r0, r5, lsl #26
    13c8:	05080200 	streq	r0, [r8, #-512]	; 0xfffffe00
    13cc:	000000c8 	andeq	r0, r0, r8, asr #1
    13d0:	0000b503 	andeq	fp, r0, r3, lsl #10
    13d4:	182e0200 	stmdane	lr!, {r9}
    13d8:	0000004d 	andeq	r0, r0, sp, asr #32
    13dc:	5e080102 	adfple	f0, f0, f2
    13e0:	02000000 	andeq	r0, r0, #0
    13e4:	006c0702 	rsbeq	r0, ip, r2, lsl #14
    13e8:	fa030000 	blx	c13f0 <kernel_start-0x7f3ec50>
    13ec:	02000000 	andeq	r0, r0, #0
    13f0:	00671934 	rsbeq	r1, r7, r4, lsr r9
    13f4:	04020000 	streq	r0, [r2], #-0
    13f8:	0000a307 	andeq	sl, r0, r7, lsl #6
    13fc:	07080200 	streq	r0, [r8, -r0, lsl #4]
    1400:	0000009e 	muleq	r0, lr, r0
    1404:	69050404 	stmdbvs	r5, {r2, sl}
    1408:	0200746e 	andeq	r7, r0, #1845493760	; 0x6e000000
    140c:	00a80704 	adceq	r0, r8, r4, lsl #14
    1410:	75050000 	strvc	r0, [r5, #-0]
    1414:	93000000 	movwls	r0, #0
    1418:	06000000 	streq	r0, [r0], -r0
    141c:	0000007c 	andeq	r0, r0, ip, ror r0
    1420:	58070004 	stmdapl	r7, {r2}
    1424:	03000007 	movweq	r0, #7
    1428:	00830c2e 	addeq	r0, r3, lr, lsr #24
    142c:	93080000 	movwls	r0, #32768	; 0x8000
    1430:	01000000 	mrseq	r0, (UNDEF: 0)
    1434:	0305058a 	movweq	r0, #21898	; 0x558a
    1438:	20000034 	andcs	r0, r0, r4, lsr r0
    143c:	00079f09 	andeq	r9, r7, r9, lsl #30
    1440:	05ba0100 	ldreq	r0, [sl, #256]!	; 0x100
    1444:	00000075 	andeq	r0, r0, r5, ror r0
    1448:	08001aa6 	stmdaeq	r0, {r1, r2, r5, r7, r9, fp, ip}
    144c:	00000060 	andeq	r0, r0, r0, rrx
    1450:	010e9c01 	tsteq	lr, r1, lsl #24
    1454:	500a0000 	andpl	r0, sl, r0
    1458:	01000007 	tsteq	r0, r7
    145c:	007517ba 	ldrhteq	r1, [r5], #-122	; 0xffffff86
    1460:	91020000 	mrsls	r0, (UNDEF: 2)
    1464:	736d0b6c 	cmnvc	sp, #108, 22	; 0x1b000
    1468:	ba010067 	blt	4160c <kernel_start-0x7fbea34>
    146c:	00004128 	andeq	r4, r0, r8, lsr #2
    1470:	6b910200 	blvs	fe441c78 <used_pipes+0xde441c44>
    1474:	001ab80c 	andseq	fp, sl, ip, lsl #16
    1478:	00004008 	andeq	r4, r0, r8
    147c:	079a0d00 	ldreq	r0, [sl, r0, lsl #26]
    1480:	bd010000 	stclt	0, cr0, [r1, #-0]
    1484:	00005b0c 	andeq	r5, r0, ip, lsl #22
    1488:	74910200 	ldrvc	r0, [r1], #512	; 0x200
    148c:	0007630d 	andeq	r6, r7, sp, lsl #6
    1490:	0bbe0100 	bleq	fef81898 <used_pipes+0xdef81864>
    1494:	00000041 	andeq	r0, r0, r1, asr #32
    1498:	00739102 	rsbseq	r9, r3, r2, lsl #2
    149c:	07c60900 	strbeq	r0, [r6, r0, lsl #18]
    14a0:	a5010000 	strge	r0, [r1, #-0]
    14a4:	00007505 	andeq	r7, r0, r5, lsl #10
    14a8:	001a4400 	andseq	r4, sl, r0, lsl #8
    14ac:	00006208 	andeq	r6, r0, r8, lsl #4
    14b0:	799c0100 	ldmibvc	ip, {r8}
    14b4:	0a000001 	beq	14c0 <kernel_start-0x7ffeb80>
    14b8:	00000750 	andeq	r0, r0, r0, asr r7
    14bc:	7516a501 	ldrvc	sl, [r6, #-1281]	; 0xfffffaff
    14c0:	02000000 	andeq	r0, r0, #0
    14c4:	520c6c91 	andpl	r6, ip, #37120	; 0x9100
    14c8:	4608001a 			; <UNDEFINED> instruction: 0x4608001a
    14cc:	0d000000 	stceq	0, cr0, [r0, #-0]
    14d0:	0000079a 	muleq	r0, sl, r7
    14d4:	5b0ca801 	blpl	32b4e0 <kernel_start-0x7cd4b60>
    14d8:	02000000 	andeq	r0, r0, #0
    14dc:	630d7491 	movwvs	r7, #54417	; 0xd491
    14e0:	01000007 	tsteq	r0, r7
    14e4:	00410ba9 	subeq	r0, r1, r9, lsr #23
    14e8:	91020000 	mrsls	r0, (UNDEF: 2)
    14ec:	1a6c0c73 	bne	1b046c0 <kernel_start-0x64fb980>
    14f0:	00280800 	eoreq	r0, r8, r0, lsl #16
    14f4:	690d0000 	stmdbvs	sp, {}	; <UNPREDICTABLE>
    14f8:	01000002 	tsteq	r0, r2
    14fc:	00410cac 	subeq	r0, r1, ip, lsr #25
    1500:	91020000 	mrsls	r0, (UNDEF: 2)
    1504:	00000072 	andeq	r0, r0, r2, ror r0
    1508:	0007bb0e 	andeq	fp, r7, lr, lsl #22
    150c:	05990100 	ldreq	r0, [r9, #256]	; 0x100
    1510:	00000075 	andeq	r0, r0, r5, ror r0
    1514:	080019f8 	stmdaeq	r0, {r3, r4, r5, r6, r7, r8, fp, ip}
    1518:	0000004c 	andeq	r0, r0, ip, asr #32
    151c:	01ba9c01 			; <UNDEFINED> instruction: 0x01ba9c01
    1520:	6b0d0000 	blvs	341528 <kernel_start-0x7cbeb18>
    1524:	01000007 	tsteq	r0, r7
    1528:	0075069a 			; <UNDEFINED> instruction: 0x0075069a
    152c:	91020000 	mrsls	r0, (UNDEF: 2)
    1530:	1a040c70 	bne	1046f8 <kernel_start-0x7efb948>
    1534:	00300800 	eorseq	r0, r0, r0, lsl #16
    1538:	690f0000 	stmdbvs	pc, {}	; <UNPREDICTABLE>
    153c:	0a9b0100 	beq	fe6c1944 <used_pipes+0xde6c1910>
    1540:	00000075 	andeq	r0, r0, r5, ror r0
    1544:	00749102 	rsbseq	r9, r4, r2, lsl #2
    1548:	07ad1000 	streq	r1, [sp, r0]!
    154c:	8c010000 	stchi	0, cr0, [r1], {-0}
    1550:	0019a006 	andseq	sl, r9, r6
    1554:	00005808 	andeq	r5, r0, r8, lsl #16
    1558:	ee9c0100 	fmle	f0, f4, f0
    155c:	0f000001 	svceq	0x00000001
    1560:	00727470 	rsbseq	r7, r2, r0, ror r4
    1564:	5b0b8d01 	blpl	2e4970 <kernel_start-0x7d1b6d0>
    1568:	02000000 	andeq	r0, r0, #0
    156c:	690f7491 	stmdbvs	pc, {r0, r4, r7, sl, ip, sp, lr}	; <UNPREDICTABLE>
    1570:	8e010064 	cdphi	0, 0, cr0, cr1, cr4, {3}
    1574:	0000410a 	andeq	r4, r0, sl, lsl #2
    1578:	73910200 	orrsvc	r0, r1, #0, 4
    157c:	07731100 	ldrbeq	r1, [r3, -r0, lsl #2]!
    1580:	0d010000 	stceq	0, cr0, [r1, #-0]
    1584:	0018e81d 	andseq	lr, r8, sp, lsl r8
    1588:	0000b808 	andeq	fp, r0, r8, lsl #16
    158c:	139c0100 	orrsne	r0, ip, #0, 2
    1590:	0a000002 	beq	15a0 <kernel_start-0x7ffeaa0>
    1594:	00000374 	andeq	r0, r0, r4, ror r3
    1598:	13340d01 	teqne	r4, #1, 26	; 0x40
    159c:	01000002 	tsteq	r0, r2
    15a0:	04120050 	ldreq	r0, [r2], #-80	; 0xffffffb0
	...

Disassembly of section .debug_abbrev:

00000000 <.debug_abbrev>:
   0:	10001101 	andne	r1, r0, r1, lsl #2
   4:	12011106 	andne	r1, r1, #-2147483647	; 0x80000001
   8:	1b0e0301 	blne	380c14 <kernel_start-0x7c7f42c>
   c:	130e250e 	movwne	r2, #58638	; 0xe50e
  10:	00000005 	andeq	r0, r0, r5
  14:	25011101 	strcs	r1, [r1, #-257]	; 0xfffffeff
  18:	030b130e 	movweq	r1, #45838	; 0xb30e
  1c:	110e1b0e 	tstne	lr, lr, lsl #22
  20:	10061201 	andne	r1, r6, r1, lsl #4
  24:	02000017 	andeq	r0, r0, #23
  28:	0b0b0024 	bleq	2c00c0 <kernel_start-0x7d3ff80>
  2c:	0e030b3e 	vmoveq.16	d3[0], r0
  30:	16030000 	strne	r0, [r3], -r0
  34:	3a0e0300 	bcc	380c3c <kernel_start-0x7c7f404>
  38:	390b3b0b 	stmdbcc	fp, {r0, r1, r3, r8, r9, fp, ip, sp}
  3c:	0013490b 	andseq	r4, r3, fp, lsl #18
  40:	00240400 	eoreq	r0, r4, r0, lsl #8
  44:	0b3e0b0b 	bleq	f82c78 <kernel_start-0x707d3c8>
  48:	00000803 	andeq	r0, r0, r3, lsl #16
  4c:	3f002e05 	svccc	0x00002e05
  50:	3a0e0319 	bcc	380cbc <kernel_start-0x7c7f384>
  54:	390b3b0b 	stmdbcc	fp, {r0, r1, r3, r8, r9, fp, ip, sp}
  58:	1201110b 	andne	r1, r1, #-1073741822	; 0xc0000002
  5c:	96184006 	ldrls	r4, [r8], -r6
  60:	00001942 	andeq	r1, r0, r2, asr #18
  64:	3f012e06 	svccc	0x00012e06
  68:	3a0e0319 	bcc	380cd4 <kernel_start-0x7c7f36c>
  6c:	390b3b0b 	stmdbcc	fp, {r0, r1, r3, r8, r9, fp, ip, sp}
  70:	1201110b 	andne	r1, r1, #-1073741822	; 0xc0000002
  74:	96184006 	ldrls	r4, [r8], -r6
  78:	13011942 	movwne	r1, #6466	; 0x1942
  7c:	0b070000 	bleq	1c0084 <kernel_start-0x7e3ffbc>
  80:	12011101 	andne	r1, r1, #1073741824	; 0x40000000
  84:	08000006 	stmdaeq	r0, {r1, r2}
  88:	08030034 	stmdaeq	r3, {r2, r4, r5}
  8c:	0b3b0b3a 	bleq	ec2d7c <kernel_start-0x713d2c4>
  90:	13490b39 	movtne	r0, #39737	; 0x9b39
  94:	00001802 	andeq	r1, r0, r2, lsl #16
  98:	03003409 	movweq	r3, #1033	; 0x409
  9c:	3b0b3a0e 	blcc	2ce8dc <kernel_start-0x7d31764>
  a0:	490b390b 	stmdbmi	fp, {r0, r1, r3, r8, fp, ip, sp}
  a4:	00180213 	andseq	r0, r8, r3, lsl r2
  a8:	010b0a00 	tsteq	fp, r0, lsl #20
  ac:	06120111 			; <UNDEFINED> instruction: 0x06120111
  b0:	00001301 	andeq	r1, r0, r1, lsl #6
  b4:	4901010b 	stmdbmi	r1, {r0, r1, r3, r8}
  b8:	00130113 	andseq	r0, r3, r3, lsl r1
  bc:	00210c00 	eoreq	r0, r1, r0, lsl #24
  c0:	0b2f1349 	bleq	bc4dec <kernel_start-0x743b254>
  c4:	0f0d0000 	svceq	0x000d0000
  c8:	490b0b00 	stmdbmi	fp, {r8, r9, fp}
  cc:	0e000013 	mcreq	0, 0, r0, cr0, cr3, {0}
  d0:	193f012e 	ldmdbne	pc!, {r1, r2, r3, r5, r8}	; <UNPREDICTABLE>
  d4:	0b3a0e03 	bleq	e838e8 <kernel_start-0x717c758>
  d8:	0b390b3b 	bleq	e42dcc <kernel_start-0x71bd274>
  dc:	06120111 			; <UNDEFINED> instruction: 0x06120111
  e0:	42961840 	addsmi	r1, r6, #64, 16	; 0x400000
  e4:	00000019 	andeq	r0, r0, r9, lsl r0
  e8:	25011101 	strcs	r1, [r1, #-257]	; 0xfffffeff
  ec:	030b130e 	movweq	r1, #45838	; 0xb30e
  f0:	110e1b0e 	tstne	lr, lr, lsl #22
  f4:	10061201 	andne	r1, r6, r1, lsl #4
  f8:	02000017 	andeq	r0, r0, #23
  fc:	0b0b0024 	bleq	2c0194 <kernel_start-0x7d3feac>
 100:	0e030b3e 	vmoveq.16	d3[0], r0
 104:	16030000 	strne	r0, [r3], -r0
 108:	3a0e0300 	bcc	380d10 <kernel_start-0x7c7f330>
 10c:	390b3b0b 	stmdbcc	fp, {r0, r1, r3, r8, r9, fp, ip, sp}
 110:	0013490b 	andseq	r4, r3, fp, lsl #18
 114:	00350400 	eorseq	r0, r5, r0, lsl #8
 118:	00001349 	andeq	r1, r0, r9, asr #6
 11c:	0b002405 	bleq	9138 <kernel_start-0x7ff6f08>
 120:	030b3e0b 	movweq	r3, #48651	; 0xbe0b
 124:	06000008 	streq	r0, [r0], -r8
 128:	0e030034 	mcreq	0, 0, r0, cr3, cr4, {1}
 12c:	0b3b0b3a 	bleq	ec2e1c <kernel_start-0x713d224>
 130:	13490b39 	movtne	r0, #39737	; 0x9b39
 134:	193c193f 	ldmdbne	ip!, {r0, r1, r2, r3, r4, r5, r8, fp, ip}
 138:	34070000 	strcc	r0, [r7], #-0
 13c:	3a134700 	bcc	4d1d44 <kernel_start-0x7b2e2fc>
 140:	390b3b0b 	stmdbcc	fp, {r0, r1, r3, r8, r9, fp, ip, sp}
 144:	0018020b 	andseq	r0, r8, fp, lsl #4
 148:	002e0800 	eoreq	r0, lr, r0, lsl #16
 14c:	0e03193f 			; <UNDEFINED> instruction: 0x0e03193f
 150:	0b3b0b3a 	bleq	ec2e40 <kernel_start-0x713d200>
 154:	13490b39 	movtne	r0, #39737	; 0x9b39
 158:	06120111 			; <UNDEFINED> instruction: 0x06120111
 15c:	42971840 	addsmi	r1, r7, #64, 16	; 0x400000
 160:	09000019 	stmdbeq	r0, {r0, r3, r4}
 164:	193f012e 	ldmdbne	pc!, {r1, r2, r3, r5, r8}	; <UNPREDICTABLE>
 168:	0b3a0e03 	bleq	e8397c <kernel_start-0x717c6c4>
 16c:	0b390b3b 	bleq	e42e60 <kernel_start-0x71bd1e0>
 170:	01111927 	tsteq	r1, r7, lsr #18
 174:	18400612 	stmdane	r0, {r1, r4, r9, sl}^
 178:	01194296 			; <UNDEFINED> instruction: 0x01194296
 17c:	0a000013 	beq	1d0 <kernel_start-0x7fffe70>
 180:	0e030005 	cdpeq	0, 0, cr0, cr3, cr5, {0}
 184:	0b3b0b3a 	bleq	ec2e74 <kernel_start-0x713d1cc>
 188:	13490b39 	movtne	r0, #39737	; 0x9b39
 18c:	00001802 	andeq	r1, r0, r2, lsl #16
 190:	0300340b 	movweq	r3, #1035	; 0x40b
 194:	3b0b3a0e 	blcc	2ce9d4 <kernel_start-0x7d3166c>
 198:	490b390b 	stmdbmi	fp, {r0, r1, r3, r8, fp, ip, sp}
 19c:	00180213 	andseq	r0, r8, r3, lsl r2
 1a0:	010b0c00 	tsteq	fp, r0, lsl #24
 1a4:	06120111 			; <UNDEFINED> instruction: 0x06120111
 1a8:	340d0000 	strcc	r0, [sp], #-0
 1ac:	3a080300 	bcc	200db4 <kernel_start-0x7dff28c>
 1b0:	390b3b0b 	stmdbcc	fp, {r0, r1, r3, r8, r9, fp, ip, sp}
 1b4:	0213490b 	andseq	r4, r3, #180224	; 0x2c000
 1b8:	0e000018 	mcreq	0, 0, r0, cr0, cr8, {0}
 1bc:	193f012e 	ldmdbne	pc!, {r1, r2, r3, r5, r8}	; <UNPREDICTABLE>
 1c0:	0b3a0e03 	bleq	e839d4 <kernel_start-0x717c66c>
 1c4:	0b390b3b 	bleq	e42eb8 <kernel_start-0x71bd188>
 1c8:	01111927 	tsteq	r1, r7, lsr #18
 1cc:	18400612 	stmdane	r0, {r1, r4, r9, sl}^
 1d0:	01194297 			; <UNDEFINED> instruction: 0x01194297
 1d4:	0f000013 	svceq	0x00000013
 1d8:	193f012e 	ldmdbne	pc!, {r1, r2, r3, r5, r8}	; <UNPREDICTABLE>
 1dc:	0b3a0e03 	bleq	e839f0 <kernel_start-0x717c650>
 1e0:	0b390b3b 	bleq	e42ed4 <kernel_start-0x71bd16c>
 1e4:	01111349 	tsteq	r1, r9, asr #6
 1e8:	18400612 	stmdane	r0, {r1, r4, r9, sl}^
 1ec:	01194297 			; <UNDEFINED> instruction: 0x01194297
 1f0:	10000013 	andne	r0, r0, r3, lsl r0
 1f4:	193f002e 	ldmdbne	pc!, {r1, r2, r3, r5}	; <UNPREDICTABLE>
 1f8:	0b3a0e03 	bleq	e83a0c <kernel_start-0x717c634>
 1fc:	0b390b3b 	bleq	e42ef0 <kernel_start-0x71bd150>
 200:	06120111 			; <UNDEFINED> instruction: 0x06120111
 204:	42971840 	addsmi	r1, r7, #64, 16	; 0x400000
 208:	00000019 	andeq	r0, r0, r9, lsl r0
 20c:	25011101 	strcs	r1, [r1, #-257]	; 0xfffffeff
 210:	030b130e 	movweq	r1, #45838	; 0xb30e
 214:	110e1b0e 	tstne	lr, lr, lsl #22
 218:	10061201 	andne	r1, r6, r1, lsl #4
 21c:	02000017 	andeq	r0, r0, #23
 220:	0b0b0024 	bleq	2c02b8 <kernel_start-0x7d3fd88>
 224:	0e030b3e 	vmoveq.16	d3[0], r0
 228:	16030000 	strne	r0, [r3], -r0
 22c:	3a0e0300 	bcc	380e34 <kernel_start-0x7c7f20c>
 230:	390b3b0b 	stmdbcc	fp, {r0, r1, r3, r8, r9, fp, ip, sp}
 234:	0013490b 	andseq	r4, r3, fp, lsl #18
 238:	00350400 	eorseq	r0, r5, r0, lsl #8
 23c:	00001349 	andeq	r1, r0, r9, asr #6
 240:	0b002405 	bleq	925c <kernel_start-0x7ff6de4>
 244:	030b3e0b 	movweq	r3, #48651	; 0xbe0b
 248:	06000008 	streq	r0, [r0], -r8
 24c:	0e030034 	mcreq	0, 0, r0, cr3, cr4, {1}
 250:	0b3b0b3a 	bleq	ec2f40 <kernel_start-0x713d100>
 254:	13490b39 	movtne	r0, #39737	; 0x9b39
 258:	193c193f 	ldmdbne	ip!, {r0, r1, r2, r3, r4, r5, r8, fp, ip}
 25c:	13070000 	movwne	r0, #28672	; 0x7000
 260:	0b080301 	bleq	200e6c <kernel_start-0x7dff1d4>
 264:	3b0b3a0b 	blcc	2cea98 <kernel_start-0x7d315a8>
 268:	010b390b 	tsteq	fp, fp, lsl #18
 26c:	08000013 	stmdaeq	r0, {r0, r1, r4}
 270:	0803000d 	stmdaeq	r3, {r0, r2, r3}
 274:	0b3b0b3a 	bleq	ec2f64 <kernel_start-0x713d0dc>
 278:	13490b39 	movtne	r0, #39737	; 0x9b39
 27c:	00000b38 	andeq	r0, r0, r8, lsr fp
 280:	03000d09 	movweq	r0, #3337	; 0xd09
 284:	3b0b3a0e 	blcc	2ceac4 <kernel_start-0x7d3157c>
 288:	490b390b 	stmdbmi	fp, {r0, r1, r3, r8, fp, ip, sp}
 28c:	000b3813 	andeq	r3, fp, r3, lsl r8
 290:	000f0a00 	andeq	r0, pc, r0, lsl #20
 294:	13490b0b 	movtne	r0, #39691	; 0x9b0b
 298:	340b0000 	strcc	r0, [fp], #-0
 29c:	3a134700 	bcc	4d1ea4 <kernel_start-0x7b2e19c>
 2a0:	390b3b0b 	stmdbcc	fp, {r0, r1, r3, r8, r9, fp, ip, sp}
 2a4:	0018020b 	andseq	r0, r8, fp, lsl #4
 2a8:	01010c00 	tsteq	r1, r0, lsl #24
 2ac:	13011349 	movwne	r1, #4937	; 0x1349
 2b0:	210d0000 	mrscs	r0, (UNDEF: 13)
 2b4:	2f134900 	svccs	0x00134900
 2b8:	0e00000b 	cdpeq	0, 0, cr0, cr0, cr11, {0}
 2bc:	0e030034 	mcreq	0, 0, r0, cr3, cr4, {1}
 2c0:	0b3b0b3a 	bleq	ec2fb0 <kernel_start-0x713d090>
 2c4:	13490b39 	movtne	r0, #39737	; 0x9b39
 2c8:	1802193f 	stmdane	r2, {r0, r1, r2, r3, r4, r5, r8, fp, ip}
 2cc:	2e0f0000 	cdpcs	0, 0, cr0, cr15, cr0, {0}
 2d0:	03193f00 	tsteq	r9, #0, 30
 2d4:	3b0b3a0e 	blcc	2ceb14 <kernel_start-0x7d3152c>
 2d8:	880b390b 	stmdahi	fp, {r0, r1, r3, r8, fp, ip, sp}
 2dc:	01110b01 	tsteq	r1, r1, lsl #22
 2e0:	18400612 	stmdane	r0, {r1, r4, r9, sl}^
 2e4:	00194296 	mulseq	r9, r6, r2
 2e8:	012e1000 			; <UNDEFINED> instruction: 0x012e1000
 2ec:	0e03193f 			; <UNDEFINED> instruction: 0x0e03193f
 2f0:	0b3b0b3a 	bleq	ec2fe0 <kernel_start-0x713d060>
 2f4:	01110b39 	tsteq	r1, r9, lsr fp
 2f8:	18400612 	stmdane	r0, {r1, r4, r9, sl}^
 2fc:	01194297 			; <UNDEFINED> instruction: 0x01194297
 300:	11000013 	tstne	r0, r3, lsl r0
 304:	0111010b 	tsteq	r1, fp, lsl #2
 308:	00000612 	andeq	r0, r0, r2, lsl r6
 30c:	03003412 	movweq	r3, #1042	; 0x412
 310:	3b0b3a08 	blcc	2ceb38 <kernel_start-0x7d31508>
 314:	490b390b 	stmdbmi	fp, {r0, r1, r3, r8, fp, ip, sp}
 318:	00180213 	andseq	r0, r8, r3, lsl r2
 31c:	002e1300 	eoreq	r1, lr, r0, lsl #6
 320:	0e03193f 			; <UNDEFINED> instruction: 0x0e03193f
 324:	0b3b0b3a 	bleq	ec3014 <kernel_start-0x713d02c>
 328:	01110b39 	tsteq	r1, r9, lsr fp
 32c:	18400612 	stmdane	r0, {r1, r4, r9, sl}^
 330:	00194296 	mulseq	r9, r6, r2
 334:	012e1400 			; <UNDEFINED> instruction: 0x012e1400
 338:	0e03193f 			; <UNDEFINED> instruction: 0x0e03193f
 33c:	0b3b0b3a 	bleq	ec302c <kernel_start-0x713d014>
 340:	19270b39 	stmdbne	r7!, {r0, r3, r4, r5, r8, r9, fp}
 344:	06120111 			; <UNDEFINED> instruction: 0x06120111
 348:	42971840 	addsmi	r1, r7, #64, 16	; 0x400000
 34c:	15000019 	strne	r0, [r0, #-25]	; 0xffffffe7
 350:	0e030005 	cdpeq	0, 0, cr0, cr3, cr5, {0}
 354:	0b3b0b3a 	bleq	ec3044 <kernel_start-0x713cffc>
 358:	13490b39 	movtne	r0, #39737	; 0x9b39
 35c:	00001802 	andeq	r1, r0, r2, lsl #16
 360:	01110100 	tsteq	r1, r0, lsl #2
 364:	0b130e25 	bleq	4c3c00 <kernel_start-0x7b3c440>
 368:	0e1b0e03 	cdpeq	14, 1, cr0, cr11, cr3, {0}
 36c:	06120111 			; <UNDEFINED> instruction: 0x06120111
 370:	00001710 	andeq	r1, r0, r0, lsl r7
 374:	0b002402 	bleq	9384 <kernel_start-0x7ff6cbc>
 378:	030b3e0b 	movweq	r3, #48651	; 0xbe0b
 37c:	0300000e 	movweq	r0, #14
 380:	0e030016 	mcreq	0, 0, r0, cr3, cr6, {0}
 384:	0b3b0b3a 	bleq	ec3074 <kernel_start-0x713cfcc>
 388:	13490b39 	movtne	r0, #39737	; 0x9b39
 38c:	24040000 	strcs	r0, [r4], #-0
 390:	3e0b0b00 	vmlacc.f64	d0, d11, d0
 394:	0008030b 	andeq	r0, r8, fp, lsl #6
 398:	00340500 	eorseq	r0, r4, r0, lsl #10
 39c:	0b3a0e03 	bleq	e83bb0 <kernel_start-0x717c490>
 3a0:	0b390b3b 	bleq	e43094 <kernel_start-0x71bcfac>
 3a4:	193f1349 	ldmdbne	pc!, {r0, r3, r6, r8, r9, ip}	; <UNPREDICTABLE>
 3a8:	00001802 	andeq	r1, r0, r2, lsl #16
 3ac:	3f002e06 	svccc	0x00002e06
 3b0:	3a0e0319 	bcc	38101c <kernel_start-0x7c7f024>
 3b4:	390b3b0b 	stmdbcc	fp, {r0, r1, r3, r8, r9, fp, ip, sp}
 3b8:	1201110b 	andne	r1, r1, #-1073741822	; 0xc0000002
 3bc:	96184006 	ldrls	r4, [r8], -r6
 3c0:	00001942 	andeq	r1, r0, r2, asr #18
 3c4:	3f002e07 	svccc	0x00002e07
 3c8:	3a0e0319 	bcc	381034 <kernel_start-0x7c7f00c>
 3cc:	390b3b0b 	stmdbcc	fp, {r0, r1, r3, r8, r9, fp, ip, sp}
 3d0:	1201110b 	andne	r1, r1, #-1073741822	; 0xc0000002
 3d4:	97184006 	ldrls	r4, [r8, -r6]
 3d8:	00001942 	andeq	r1, r0, r2, asr #18
 3dc:	3f012e08 	svccc	0x00012e08
 3e0:	3a0e0319 	bcc	38104c <kernel_start-0x7c7eff4>
 3e4:	390b3b0b 	stmdbcc	fp, {r0, r1, r3, r8, r9, fp, ip, sp}
 3e8:	1119270b 	tstne	r9, fp, lsl #14
 3ec:	40061201 	andmi	r1, r6, r1, lsl #4
 3f0:	19429718 	stmdbne	r2, {r3, r4, r8, r9, sl, ip, pc}^
 3f4:	00001301 	andeq	r1, r0, r1, lsl #6
 3f8:	03000509 	movweq	r0, #1289	; 0x509
 3fc:	3b0b3a0e 	blcc	2cec3c <kernel_start-0x7d31404>
 400:	490b390b 	stmdbmi	fp, {r0, r1, r3, r8, fp, ip, sp}
 404:	00180213 	andseq	r0, r8, r3, lsl r2
 408:	012e0a00 			; <UNDEFINED> instruction: 0x012e0a00
 40c:	0e03193f 			; <UNDEFINED> instruction: 0x0e03193f
 410:	0b3b0b3a 	bleq	ec3100 <kernel_start-0x713cf40>
 414:	01110b39 	tsteq	r1, r9, lsr fp
 418:	18400612 	stmdane	r0, {r1, r4, r9, sl}^
 41c:	01194297 			; <UNDEFINED> instruction: 0x01194297
 420:	0b000013 	bleq	474 <kernel_start-0x7fffbcc>
 424:	0e030034 	mcreq	0, 0, r0, cr3, cr4, {1}
 428:	0b3b0b3a 	bleq	ec3118 <kernel_start-0x713cf28>
 42c:	13490b39 	movtne	r0, #39737	; 0x9b39
 430:	00001802 	andeq	r1, r0, r2, lsl #16
 434:	0b000f0c 	bleq	406c <kernel_start-0x7ffbfd4>
 438:	0000000b 	andeq	r0, r0, fp
 43c:	25011101 	strcs	r1, [r1, #-257]	; 0xfffffeff
 440:	030b130e 	movweq	r1, #45838	; 0xb30e
 444:	110e1b0e 	tstne	lr, lr, lsl #22
 448:	10061201 	andne	r1, r6, r1, lsl #4
 44c:	02000017 	andeq	r0, r0, #23
 450:	0b0b0024 	bleq	2c04e8 <kernel_start-0x7d3fb58>
 454:	0e030b3e 	vmoveq.16	d3[0], r0
 458:	16030000 	strne	r0, [r3], -r0
 45c:	3a0e0300 	bcc	381064 <kernel_start-0x7c7efdc>
 460:	390b3b0b 	stmdbcc	fp, {r0, r1, r3, r8, r9, fp, ip, sp}
 464:	0013490b 	andseq	r4, r3, fp, lsl #18
 468:	00240400 	eoreq	r0, r4, r0, lsl #8
 46c:	0b3e0b0b 	bleq	f830a0 <kernel_start-0x707cfa0>
 470:	00000803 	andeq	r0, r0, r3, lsl #16
 474:	3f012e05 	svccc	0x00012e05
 478:	3a0e0319 	bcc	3810e4 <kernel_start-0x7c7ef5c>
 47c:	390b3b0b 	stmdbcc	fp, {r0, r1, r3, r8, r9, fp, ip, sp}
 480:	4919270b 	ldmdbmi	r9, {r0, r1, r3, r8, r9, sl, sp}
 484:	12011113 	andne	r1, r1, #-1073741820	; 0xc0000004
 488:	97184006 	ldrls	r4, [r8, -r6]
 48c:	13011942 	movwne	r1, #6466	; 0x1942
 490:	05060000 	streq	r0, [r6, #-0]
 494:	3a0e0300 	bcc	38109c <kernel_start-0x7c7efa4>
 498:	390b3b0b 	stmdbcc	fp, {r0, r1, r3, r8, r9, fp, ip, sp}
 49c:	0213490b 	andseq	r4, r3, #180224	; 0x2c000
 4a0:	07000018 	smladeq	r0, r8, r0, r0
 4a4:	0e030034 	mcreq	0, 0, r0, cr3, cr4, {1}
 4a8:	0b3b0b3a 	bleq	ec3198 <kernel_start-0x713cea8>
 4ac:	13490b39 	movtne	r0, #39737	; 0x9b39
 4b0:	00001802 	andeq	r1, r0, r2, lsl #16
 4b4:	0b000f08 	bleq	40dc <kernel_start-0x7ffbf64>
 4b8:	0900000b 	stmdbeq	r0, {r0, r1, r3}
 4bc:	193f012e 	ldmdbne	pc!, {r1, r2, r3, r5, r8}	; <UNPREDICTABLE>
 4c0:	0b3a0e03 	bleq	e83cd4 <kernel_start-0x717c36c>
 4c4:	0b390b3b 	bleq	e431b8 <kernel_start-0x71bce88>
 4c8:	06120111 			; <UNDEFINED> instruction: 0x06120111
 4cc:	42971840 	addsmi	r1, r7, #64, 16	; 0x400000
 4d0:	00130119 	andseq	r0, r3, r9, lsl r1
 4d4:	010b0a00 	tsteq	fp, r0, lsl #20
 4d8:	06120111 			; <UNDEFINED> instruction: 0x06120111
 4dc:	340b0000 	strcc	r0, [fp], #-0
 4e0:	3a080300 	bcc	2010e8 <kernel_start-0x7dfef58>
 4e4:	390b3b0b 	stmdbcc	fp, {r0, r1, r3, r8, r9, fp, ip, sp}
 4e8:	0213490b 	andseq	r4, r3, #180224	; 0x2c000
 4ec:	0c000018 	stceq	0, cr0, [r0], {24}
 4f0:	193f012e 	ldmdbne	pc!, {r1, r2, r3, r5, r8}	; <UNPREDICTABLE>
 4f4:	0b3a0e03 	bleq	e83d08 <kernel_start-0x717c338>
 4f8:	0b390b3b 	bleq	e431ec <kernel_start-0x71bce54>
 4fc:	01111349 	tsteq	r1, r9, asr #6
 500:	18400612 	stmdane	r0, {r1, r4, r9, sl}^
 504:	01194297 			; <UNDEFINED> instruction: 0x01194297
 508:	0d000013 	stceq	0, cr0, [r0, #-76]	; 0xffffffb4
 50c:	193f002e 	ldmdbne	pc!, {r1, r2, r3, r5}	; <UNPREDICTABLE>
 510:	0b3a0e03 	bleq	e83d24 <kernel_start-0x717c31c>
 514:	0b390b3b 	bleq	e43208 <kernel_start-0x71bce38>
 518:	06120111 			; <UNDEFINED> instruction: 0x06120111
 51c:	42971840 	addsmi	r1, r7, #64, 16	; 0x400000
 520:	00000019 	andeq	r0, r0, r9, lsl r0
 524:	25011101 	strcs	r1, [r1, #-257]	; 0xfffffeff
 528:	030b130e 	movweq	r1, #45838	; 0xb30e
 52c:	110e1b0e 	tstne	lr, lr, lsl #22
 530:	10061201 	andne	r1, r6, r1, lsl #4
 534:	02000017 	andeq	r0, r0, #23
 538:	0b0b0024 	bleq	2c05d0 <kernel_start-0x7d3fa70>
 53c:	0e030b3e 	vmoveq.16	d3[0], r0
 540:	16030000 	strne	r0, [r3], -r0
 544:	3a0e0300 	bcc	38114c <kernel_start-0x7c7eef4>
 548:	390b3b0b 	stmdbcc	fp, {r0, r1, r3, r8, r9, fp, ip, sp}
 54c:	0013490b 	andseq	r4, r3, fp, lsl #18
 550:	00240400 	eoreq	r0, r4, r0, lsl #8
 554:	0b3e0b0b 	bleq	f83188 <kernel_start-0x707ceb8>
 558:	00000803 	andeq	r0, r0, r3, lsl #16
 55c:	03003405 	movweq	r3, #1029	; 0x405
 560:	3b0b3a08 	blcc	2ced88 <kernel_start-0x7d312b8>
 564:	490b390b 	stmdbmi	fp, {r0, r1, r3, r8, fp, ip, sp}
 568:	02193f13 	andseq	r3, r9, #19, 30	; 0x4c
 56c:	06000018 			; <UNDEFINED> instruction: 0x06000018
 570:	193f012e 	ldmdbne	pc!, {r1, r2, r3, r5, r8}	; <UNPREDICTABLE>
 574:	0b3a0e03 	bleq	e83d88 <kernel_start-0x717c2b8>
 578:	0b390b3b 	bleq	e4326c <kernel_start-0x71bcdd4>
 57c:	01111927 	tsteq	r1, r7, lsr #18
 580:	18400612 	stmdane	r0, {r1, r4, r9, sl}^
 584:	01194296 			; <UNDEFINED> instruction: 0x01194296
 588:	07000013 	smladeq	r0, r3, r0, r0
 58c:	0e030005 	cdpeq	0, 0, cr0, cr3, cr5, {0}
 590:	0b3b0b3a 	bleq	ec3280 <kernel_start-0x713cdc0>
 594:	13490b39 	movtne	r0, #39737	; 0x9b39
 598:	00001802 	andeq	r1, r0, r2, lsl #16
 59c:	03003408 	movweq	r3, #1032	; 0x408
 5a0:	3b0b3a0e 	blcc	2cede0 <kernel_start-0x7d31260>
 5a4:	490b390b 	stmdbmi	fp, {r0, r1, r3, r8, fp, ip, sp}
 5a8:	00180213 	andseq	r0, r8, r3, lsl r2
 5ac:	010b0900 	tsteq	fp, r0, lsl #18
 5b0:	06120111 			; <UNDEFINED> instruction: 0x06120111
 5b4:	340a0000 	strcc	r0, [sl], #-0
 5b8:	3a080300 	bcc	2011c0 <kernel_start-0x7dfee80>
 5bc:	390b3b0b 	stmdbcc	fp, {r0, r1, r3, r8, r9, fp, ip, sp}
 5c0:	0213490b 	andseq	r4, r3, #180224	; 0x2c000
 5c4:	0b000018 	bleq	62c <kernel_start-0x7fffa14>
 5c8:	0b0b000f 	bleq	2c060c <kernel_start-0x7d3fa34>
 5cc:	00001349 	andeq	r1, r0, r9, asr #6
 5d0:	3f012e0c 	svccc	0x00012e0c
 5d4:	3a0e0319 	bcc	381240 <kernel_start-0x7c7ee00>
 5d8:	390b3b0b 	stmdbcc	fp, {r0, r1, r3, r8, r9, fp, ip, sp}
 5dc:	1119270b 	tstne	r9, fp, lsl #14
 5e0:	40061201 	andmi	r1, r6, r1, lsl #4
 5e4:	19429718 	stmdbne	r2, {r3, r4, r8, r9, sl, ip, pc}^
 5e8:	050d0000 	streq	r0, [sp, #-0]
 5ec:	3a080300 	bcc	2011f4 <kernel_start-0x7dfee4c>
 5f0:	390b3b0b 	stmdbcc	fp, {r0, r1, r3, r8, r9, fp, ip, sp}
 5f4:	0213490b 	andseq	r4, r3, #180224	; 0x2c000
 5f8:	00000018 	andeq	r0, r0, r8, lsl r0
 5fc:	25011101 	strcs	r1, [r1, #-257]	; 0xfffffeff
 600:	030b130e 	movweq	r1, #45838	; 0xb30e
 604:	110e1b0e 	tstne	lr, lr, lsl #22
 608:	10061201 	andne	r1, r6, r1, lsl #4
 60c:	02000017 	andeq	r0, r0, #23
 610:	0b0b0024 	bleq	2c06a8 <kernel_start-0x7d3f998>
 614:	0e030b3e 	vmoveq.16	d3[0], r0
 618:	16030000 	strne	r0, [r3], -r0
 61c:	3a0e0300 	bcc	381224 <kernel_start-0x7c7ee1c>
 620:	390b3b0b 	stmdbcc	fp, {r0, r1, r3, r8, r9, fp, ip, sp}
 624:	0013490b 	andseq	r4, r3, fp, lsl #18
 628:	00240400 	eoreq	r0, r4, r0, lsl #8
 62c:	0b3e0b0b 	bleq	f83260 <kernel_start-0x707cde0>
 630:	00000803 	andeq	r0, r0, r3, lsl #16
 634:	3f002e05 	svccc	0x00002e05
 638:	3a0e0319 	bcc	3812a4 <kernel_start-0x7c7ed9c>
 63c:	390b3b0b 	stmdbcc	fp, {r0, r1, r3, r8, r9, fp, ip, sp}
 640:	1113490b 	tstne	r3, fp, lsl #18
 644:	40061201 	andmi	r1, r6, r1, lsl #4
 648:	19429718 	stmdbne	r2, {r3, r4, r8, r9, sl, ip, pc}^
 64c:	2e060000 	cdpcs	0, 0, cr0, cr6, cr0, {0}
 650:	03193f01 	tsteq	r9, #1, 30
 654:	3b0b3a0e 	blcc	2cee94 <kernel_start-0x7d311ac>
 658:	270b390b 	strcs	r3, [fp, -fp, lsl #18]
 65c:	12011119 	andne	r1, r1, #1073741830	; 0x40000006
 660:	97184006 	ldrls	r4, [r8, -r6]
 664:	13011942 	movwne	r1, #6466	; 0x1942
 668:	05070000 	streq	r0, [r7, #-0]
 66c:	3a0e0300 	bcc	381274 <kernel_start-0x7c7edcc>
 670:	390b3b0b 	stmdbcc	fp, {r0, r1, r3, r8, r9, fp, ip, sp}
 674:	0213490b 	andseq	r4, r3, #180224	; 0x2c000
 678:	08000018 	stmdaeq	r0, {r3, r4}
 67c:	08030034 	stmdaeq	r3, {r2, r4, r5}
 680:	0b3b0b3a 	bleq	ec3370 <kernel_start-0x713ccd0>
 684:	13490b39 	movtne	r0, #39737	; 0x9b39
 688:	00001802 	andeq	r1, r0, r2, lsl #16
 68c:	0b000f09 	bleq	42b8 <kernel_start-0x7ffbd88>
 690:	0013490b 	andseq	r4, r3, fp, lsl #18
 694:	11010000 	mrsne	r0, (UNDEF: 1)
 698:	130e2501 	movwne	r2, #58625	; 0xe501
 69c:	1b0e030b 	blne	3812d0 <kernel_start-0x7c7ed70>
 6a0:	1201110e 	andne	r1, r1, #-2147483645	; 0x80000003
 6a4:	00171006 	andseq	r1, r7, r6
 6a8:	00240200 	eoreq	r0, r4, r0, lsl #4
 6ac:	0b3e0b0b 	bleq	f832e0 <kernel_start-0x707cd60>
 6b0:	00000e03 	andeq	r0, r0, r3, lsl #28
 6b4:	03001603 	movweq	r1, #1539	; 0x603
 6b8:	3b0b3a0e 	blcc	2ceef8 <kernel_start-0x7d31148>
 6bc:	490b390b 	stmdbmi	fp, {r0, r1, r3, r8, fp, ip, sp}
 6c0:	04000013 	streq	r0, [r0], #-19	; 0xffffffed
 6c4:	0b0b0024 	bleq	2c075c <kernel_start-0x7d3f8e4>
 6c8:	08030b3e 	stmdaeq	r3, {r1, r2, r3, r4, r5, r8, r9, fp}
 6cc:	2e050000 	cdpcs	0, 0, cr0, cr5, cr0, {0}
 6d0:	03193f01 	tsteq	r9, #1, 30
 6d4:	3b0b3a0e 	blcc	2cef14 <kernel_start-0x7d3112c>
 6d8:	270b390b 	strcs	r3, [fp, -fp, lsl #18]
 6dc:	12011119 	andne	r1, r1, #1073741830	; 0x40000006
 6e0:	97184006 	ldrls	r4, [r8, -r6]
 6e4:	13011942 	movwne	r1, #6466	; 0x1942
 6e8:	05060000 	streq	r0, [r6, #-0]
 6ec:	3a0e0300 	bcc	3812f4 <kernel_start-0x7c7ed4c>
 6f0:	390b3b0b 	stmdbcc	fp, {r0, r1, r3, r8, r9, fp, ip, sp}
 6f4:	0213490b 	andseq	r4, r3, #180224	; 0x2c000
 6f8:	07000018 	smladeq	r0, r8, r0, r0
 6fc:	08030005 	stmdaeq	r3, {r0, r2}
 700:	0b3b0b3a 	bleq	ec33f0 <kernel_start-0x713cc50>
 704:	13490b39 	movtne	r0, #39737	; 0x9b39
 708:	00001802 	andeq	r1, r0, r2, lsl #16
 70c:	03003408 	movweq	r3, #1032	; 0x408
 710:	3b0b3a0e 	blcc	2cef50 <kernel_start-0x7d310f0>
 714:	490b390b 	stmdbmi	fp, {r0, r1, r3, r8, fp, ip, sp}
 718:	00180213 	andseq	r0, r8, r3, lsl r2
 71c:	012e0900 			; <UNDEFINED> instruction: 0x012e0900
 720:	0e03193f 			; <UNDEFINED> instruction: 0x0e03193f
 724:	0b3b0b3a 	bleq	ec3414 <kernel_start-0x713cc2c>
 728:	19270b39 	stmdbne	r7!, {r0, r3, r4, r5, r8, r9, fp}
 72c:	06120111 			; <UNDEFINED> instruction: 0x06120111
 730:	42971840 	addsmi	r1, r7, #64, 16	; 0x400000
 734:	0a000019 	beq	7a0 <kernel_start-0x7fff8a0>
 738:	1755010b 	ldrbne	r0, [r5, -fp, lsl #2]
 73c:	00001301 	andeq	r1, r0, r1, lsl #6
 740:	55010b0b 	strpl	r0, [r1, #-2827]	; 0xfffff4f5
 744:	00000017 	andeq	r0, r0, r7, lsl r0
 748:	25011101 	strcs	r1, [r1, #-257]	; 0xfffffeff
 74c:	030b130e 	movweq	r1, #45838	; 0xb30e
 750:	110e1b0e 	tstne	lr, lr, lsl #22
 754:	10061201 	andne	r1, r6, r1, lsl #4
 758:	02000017 	andeq	r0, r0, #23
 75c:	0b0b0024 	bleq	2c07f4 <kernel_start-0x7d3f84c>
 760:	0e030b3e 	vmoveq.16	d3[0], r0
 764:	16030000 	strne	r0, [r3], -r0
 768:	3a0e0300 	bcc	381370 <kernel_start-0x7c7ecd0>
 76c:	390b3b0b 	stmdbcc	fp, {r0, r1, r3, r8, r9, fp, ip, sp}
 770:	0013490b 	andseq	r4, r3, fp, lsl #18
 774:	00240400 	eoreq	r0, r4, r0, lsl #8
 778:	0b3e0b0b 	bleq	f833ac <kernel_start-0x707cc94>
 77c:	00000803 	andeq	r0, r0, r3, lsl #16
 780:	3f012e05 	svccc	0x00012e05
 784:	3a0e0319 	bcc	3813f0 <kernel_start-0x7c7ec50>
 788:	390b3b0b 	stmdbcc	fp, {r0, r1, r3, r8, r9, fp, ip, sp}
 78c:	1119270b 	tstne	r9, fp, lsl #14
 790:	40061201 	andmi	r1, r6, r1, lsl #4
 794:	19429718 	stmdbne	r2, {r3, r4, r8, r9, sl, ip, pc}^
 798:	00001301 	andeq	r1, r0, r1, lsl #6
 79c:	03000506 	movweq	r0, #1286	; 0x506
 7a0:	3b0b3a0e 	blcc	2cefe0 <kernel_start-0x7d31060>
 7a4:	490b390b 	stmdbmi	fp, {r0, r1, r3, r8, fp, ip, sp}
 7a8:	00180213 	andseq	r0, r8, r3, lsl r2
 7ac:	012e0700 			; <UNDEFINED> instruction: 0x012e0700
 7b0:	0e03193f 			; <UNDEFINED> instruction: 0x0e03193f
 7b4:	0b3b0b3a 	bleq	ec34a4 <kernel_start-0x713cb9c>
 7b8:	19270b39 	stmdbne	r7!, {r0, r3, r4, r5, r8, r9, fp}
 7bc:	06120111 			; <UNDEFINED> instruction: 0x06120111
 7c0:	42961840 	addsmi	r1, r6, #64, 16	; 0x400000
 7c4:	00130119 	andseq	r0, r3, r9, lsl r1
 7c8:	00340800 	eorseq	r0, r4, r0, lsl #16
 7cc:	0b3a0e03 	bleq	e83fe0 <kernel_start-0x717c060>
 7d0:	0b390b3b 	bleq	e434c4 <kernel_start-0x71bcb7c>
 7d4:	18021349 	stmdane	r2, {r0, r3, r6, r8, r9, ip}
 7d8:	34090000 	strcc	r0, [r9], #-0
 7dc:	3a080300 	bcc	2013e4 <kernel_start-0x7dfec5c>
 7e0:	390b3b0b 	stmdbcc	fp, {r0, r1, r3, r8, r9, fp, ip, sp}
 7e4:	0213490b 	andseq	r4, r3, #180224	; 0x2c000
 7e8:	0a000018 	beq	850 <kernel_start-0x7fff7f0>
 7ec:	193f012e 	ldmdbne	pc!, {r1, r2, r3, r5, r8}	; <UNPREDICTABLE>
 7f0:	0b3a0e03 	bleq	e84004 <kernel_start-0x717c03c>
 7f4:	0b390b3b 	bleq	e434e8 <kernel_start-0x71bcb58>
 7f8:	01111349 	tsteq	r1, r9, asr #6
 7fc:	18400612 	stmdane	r0, {r1, r4, r9, sl}^
 800:	00194296 	mulseq	r9, r6, r2
 804:	010b0b00 	tsteq	fp, r0, lsl #22
 808:	06120111 			; <UNDEFINED> instruction: 0x06120111
 80c:	00001301 	andeq	r1, r0, r1, lsl #6
 810:	11010b0c 	tstne	r1, ip, lsl #22
 814:	00061201 	andeq	r1, r6, r1, lsl #4
 818:	11010000 	mrsne	r0, (UNDEF: 1)
 81c:	130e2501 	movwne	r2, #58625	; 0xe501
 820:	1b0e030b 	blne	381454 <kernel_start-0x7c7ebec>
 824:	1201110e 	andne	r1, r1, #-2147483645	; 0x80000003
 828:	00171006 	andseq	r1, r7, r6
 82c:	00240200 	eoreq	r0, r4, r0, lsl #4
 830:	0b3e0b0b 	bleq	f83464 <kernel_start-0x707cbdc>
 834:	00000e03 	andeq	r0, r0, r3, lsl #28
 838:	03001603 	movweq	r1, #1539	; 0x603
 83c:	3b0b3a0e 	blcc	2cf07c <kernel_start-0x7d30fc4>
 840:	490b390b 	stmdbmi	fp, {r0, r1, r3, r8, fp, ip, sp}
 844:	04000013 	streq	r0, [r0], #-19	; 0xffffffed
 848:	0b0b0024 	bleq	2c08e0 <kernel_start-0x7d3f760>
 84c:	08030b3e 	stmdaeq	r3, {r1, r2, r3, r4, r5, r8, r9, fp}
 850:	2e050000 	cdpcs	0, 0, cr0, cr5, cr0, {0}
 854:	03193f01 	tsteq	r9, #1, 30
 858:	3b0b3a0e 	blcc	2cf098 <kernel_start-0x7d30fa8>
 85c:	270b390b 	strcs	r3, [fp, -fp, lsl #18]
 860:	12011119 	andne	r1, r1, #1073741830	; 0x40000006
 864:	97184006 	ldrls	r4, [r8, -r6]
 868:	13011942 	movwne	r1, #6466	; 0x1942
 86c:	05060000 	streq	r0, [r6, #-0]
 870:	3a0e0300 	bcc	381478 <kernel_start-0x7c7ebc8>
 874:	390b3b0b 	stmdbcc	fp, {r0, r1, r3, r8, r9, fp, ip, sp}
 878:	0213490b 	andseq	r4, r3, #180224	; 0x2c000
 87c:	07000018 	smladeq	r0, r8, r0, r0
 880:	193f002e 	ldmdbne	pc!, {r1, r2, r3, r5}	; <UNPREDICTABLE>
 884:	0b3a0e03 	bleq	e84098 <kernel_start-0x717bfa8>
 888:	0b390b3b 	bleq	e4357c <kernel_start-0x71bcac4>
 88c:	06120111 			; <UNDEFINED> instruction: 0x06120111
 890:	42971840 	addsmi	r1, r7, #64, 16	; 0x400000
 894:	08000019 	stmdaeq	r0, {r0, r3, r4}
 898:	193f012e 	ldmdbne	pc!, {r1, r2, r3, r5, r8}	; <UNPREDICTABLE>
 89c:	0b3a0e03 	bleq	e840b0 <kernel_start-0x717bf90>
 8a0:	0b390b3b 	bleq	e43594 <kernel_start-0x71bcaac>
 8a4:	01111927 	tsteq	r1, r7, lsr #18
 8a8:	18400612 	stmdane	r0, {r1, r4, r9, sl}^
 8ac:	00194296 	mulseq	r9, r6, r2
 8b0:	00340900 	eorseq	r0, r4, r0, lsl #18
 8b4:	0b3a0e03 	bleq	e840c8 <kernel_start-0x717bf78>
 8b8:	0b390b3b 	bleq	e435ac <kernel_start-0x71bca94>
 8bc:	18021349 	stmdane	r2, {r0, r3, r6, r8, r9, ip}
 8c0:	0b0a0000 	bleq	2808c8 <kernel_start-0x7d7f778>
 8c4:	12011101 	andne	r1, r1, #1073741824	; 0x40000000
 8c8:	00130106 	andseq	r0, r3, r6, lsl #2
 8cc:	00340b00 	eorseq	r0, r4, r0, lsl #22
 8d0:	0b3a0803 	bleq	e828e4 <kernel_start-0x717d75c>
 8d4:	0b390b3b 	bleq	e435c8 <kernel_start-0x71bca78>
 8d8:	18021349 	stmdane	r2, {r0, r3, r6, r8, r9, ip}
 8dc:	0b0c0000 	bleq	3008e4 <kernel_start-0x7cff75c>
 8e0:	12011101 	andne	r1, r1, #1073741824	; 0x40000000
 8e4:	00000006 	andeq	r0, r0, r6
 8e8:	25011101 	strcs	r1, [r1, #-257]	; 0xfffffeff
 8ec:	030b130e 	movweq	r1, #45838	; 0xb30e
 8f0:	110e1b0e 	tstne	lr, lr, lsl #22
 8f4:	10061201 	andne	r1, r6, r1, lsl #4
 8f8:	02000017 	andeq	r0, r0, #23
 8fc:	0b0b0024 	bleq	2c0994 <kernel_start-0x7d3f6ac>
 900:	0e030b3e 	vmoveq.16	d3[0], r0
 904:	16030000 	strne	r0, [r3], -r0
 908:	3a0e0300 	bcc	381510 <kernel_start-0x7c7eb30>
 90c:	390b3b0b 	stmdbcc	fp, {r0, r1, r3, r8, r9, fp, ip, sp}
 910:	0013490b 	andseq	r4, r3, fp, lsl #18
 914:	00240400 	eoreq	r0, r4, r0, lsl #8
 918:	0b3e0b0b 	bleq	f8354c <kernel_start-0x707caf4>
 91c:	00000803 	andeq	r0, r0, r3, lsl #16
 920:	03011305 	movweq	r1, #4869	; 0x1305
 924:	3a0b0b08 	bcc	2c354c <kernel_start-0x7d3caf4>
 928:	390b3b0b 	stmdbcc	fp, {r0, r1, r3, r8, r9, fp, ip, sp}
 92c:	0013010b 	andseq	r0, r3, fp, lsl #2
 930:	000d0600 	andeq	r0, sp, r0, lsl #12
 934:	0b3a0803 	bleq	e82948 <kernel_start-0x717d6f8>
 938:	0b390b3b 	bleq	e4362c <kernel_start-0x71bca14>
 93c:	0b381349 	bleq	e05668 <kernel_start-0x71fa9d8>
 940:	0d070000 	stceq	0, cr0, [r7, #-0]
 944:	3a0e0300 	bcc	38154c <kernel_start-0x7c7eaf4>
 948:	390b3b0b 	stmdbcc	fp, {r0, r1, r3, r8, r9, fp, ip, sp}
 94c:	3813490b 	ldmdacc	r3, {r0, r1, r3, r8, fp, lr}
 950:	0800000b 	stmdaeq	r0, {r0, r1, r3}
 954:	0b0b000f 	bleq	2c0998 <kernel_start-0x7d3f6a8>
 958:	00001349 	andeq	r1, r0, r9, asr #6
 95c:	03003409 	movweq	r3, #1033	; 0x409
 960:	3b0b3a0e 	blcc	2cf1a0 <kernel_start-0x7d30ea0>
 964:	490b390b 	stmdbmi	fp, {r0, r1, r3, r8, fp, ip, sp}
 968:	02193f13 	andseq	r3, r9, #19, 30	; 0x4c
 96c:	0a000018 	beq	9d4 <kernel_start-0x7fff66c>
 970:	193f012e 	ldmdbne	pc!, {r1, r2, r3, r5, r8}	; <UNPREDICTABLE>
 974:	0b3a0e03 	bleq	e84188 <kernel_start-0x717beb8>
 978:	0b390b3b 	bleq	e4366c <kernel_start-0x71bc9d4>
 97c:	01111927 	tsteq	r1, r7, lsr #18
 980:	18400612 	stmdane	r0, {r1, r4, r9, sl}^
 984:	01194297 			; <UNDEFINED> instruction: 0x01194297
 988:	0b000013 	bleq	9dc <kernel_start-0x7fff664>
 98c:	0e030005 	cdpeq	0, 0, cr0, cr3, cr5, {0}
 990:	0b3b0b3a 	bleq	ec3680 <kernel_start-0x713c9c0>
 994:	13490b39 	movtne	r0, #39737	; 0x9b39
 998:	00001802 	andeq	r1, r0, r2, lsl #16
 99c:	11010b0c 	tstne	r1, ip, lsl #22
 9a0:	00061201 	andeq	r1, r6, r1, lsl #4
 9a4:	00340d00 	eorseq	r0, r4, r0, lsl #26
 9a8:	0b3a0e03 	bleq	e841bc <kernel_start-0x717be84>
 9ac:	0b390b3b 	bleq	e436a0 <kernel_start-0x71bc9a0>
 9b0:	18021349 	stmdane	r2, {r0, r3, r6, r8, r9, ip}
 9b4:	2e0e0000 	cdpcs	0, 0, cr0, cr14, cr0, {0}
 9b8:	03193f01 	tsteq	r9, #1, 30
 9bc:	3b0b3a0e 	blcc	2cf1fc <kernel_start-0x7d30e44>
 9c0:	270b390b 	strcs	r3, [fp, -fp, lsl #18]
 9c4:	12011119 	andne	r1, r1, #1073741830	; 0x40000006
 9c8:	96184006 	ldrls	r4, [r8], -r6
 9cc:	13011942 	movwne	r1, #6466	; 0x1942
 9d0:	2e0f0000 	cdpcs	0, 0, cr0, cr15, cr0, {0}
 9d4:	03193f00 	tsteq	r9, #0, 30
 9d8:	3b0b3a0e 	blcc	2cf218 <kernel_start-0x7d30e28>
 9dc:	490b390b 	stmdbmi	fp, {r0, r1, r3, r8, fp, ip, sp}
 9e0:	12011113 	andne	r1, r1, #-1073741820	; 0xc0000004
 9e4:	97184006 	ldrls	r4, [r8, -r6]
 9e8:	00001942 	andeq	r1, r0, r2, asr #18
 9ec:	01110100 	tsteq	r1, r0, lsl #2
 9f0:	0b130e25 	bleq	4c428c <kernel_start-0x7b3bdb4>
 9f4:	0e1b0e03 	cdpeq	14, 1, cr0, cr11, cr3, {0}
 9f8:	06120111 			; <UNDEFINED> instruction: 0x06120111
 9fc:	00001710 	andeq	r1, r0, r0, lsl r7
 a00:	0b002402 	bleq	9a10 <kernel_start-0x7ff6630>
 a04:	030b3e0b 	movweq	r3, #48651	; 0xbe0b
 a08:	0300000e 	movweq	r0, #14
 a0c:	0e030016 	mcreq	0, 0, r0, cr3, cr6, {0}
 a10:	0b3b0b3a 	bleq	ec3700 <kernel_start-0x713c940>
 a14:	13490b39 	movtne	r0, #39737	; 0x9b39
 a18:	24040000 	strcs	r0, [r4], #-0
 a1c:	3e0b0b00 	vmlacc.f64	d0, d11, d0
 a20:	0008030b 	andeq	r0, r8, fp, lsl #6
 a24:	01010500 	tsteq	r1, r0, lsl #10
 a28:	13011349 	movwne	r1, #4937	; 0x1349
 a2c:	21060000 	mrscs	r0, (UNDEF: 6)
 a30:	2f134900 	svccs	0x00134900
 a34:	0700000b 	streq	r0, [r0, -fp]
 a38:	0e030034 	mcreq	0, 0, r0, cr3, cr4, {1}
 a3c:	0b3b0b3a 	bleq	ec372c <kernel_start-0x713c914>
 a40:	13490b39 	movtne	r0, #39737	; 0x9b39
 a44:	193c193f 	ldmdbne	ip!, {r0, r1, r2, r3, r4, r5, r8, fp, ip}
 a48:	34080000 	strcc	r0, [r8], #-0
 a4c:	3a134700 	bcc	4d2654 <kernel_start-0x7b2d9ec>
 a50:	390b3b0b 	stmdbcc	fp, {r0, r1, r3, r8, r9, fp, ip, sp}
 a54:	0018020b 	andseq	r0, r8, fp, lsl #4
 a58:	012e0900 			; <UNDEFINED> instruction: 0x012e0900
 a5c:	0e03193f 			; <UNDEFINED> instruction: 0x0e03193f
 a60:	0b3b0b3a 	bleq	ec3750 <kernel_start-0x713c8f0>
 a64:	19270b39 	stmdbne	r7!, {r0, r3, r4, r5, r8, r9, fp}
 a68:	01111349 	tsteq	r1, r9, asr #6
 a6c:	18400612 	stmdane	r0, {r1, r4, r9, sl}^
 a70:	01194297 			; <UNDEFINED> instruction: 0x01194297
 a74:	0a000013 	beq	ac8 <kernel_start-0x7fff578>
 a78:	0e030005 	cdpeq	0, 0, cr0, cr3, cr5, {0}
 a7c:	0b3b0b3a 	bleq	ec376c <kernel_start-0x713c8d4>
 a80:	13490b39 	movtne	r0, #39737	; 0x9b39
 a84:	00001802 	andeq	r1, r0, r2, lsl #16
 a88:	0300050b 	movweq	r0, #1291	; 0x50b
 a8c:	3b0b3a08 	blcc	2cf2b4 <kernel_start-0x7d30d8c>
 a90:	490b390b 	stmdbmi	fp, {r0, r1, r3, r8, fp, ip, sp}
 a94:	00180213 	andseq	r0, r8, r3, lsl r2
 a98:	010b0c00 	tsteq	fp, r0, lsl #24
 a9c:	06120111 			; <UNDEFINED> instruction: 0x06120111
 aa0:	340d0000 	strcc	r0, [sp], #-0
 aa4:	3a0e0300 	bcc	3816ac <kernel_start-0x7c7e994>
 aa8:	390b3b0b 	stmdbcc	fp, {r0, r1, r3, r8, r9, fp, ip, sp}
 aac:	0213490b 	andseq	r4, r3, #180224	; 0x2c000
 ab0:	0e000018 	mcreq	0, 0, r0, cr0, cr8, {0}
 ab4:	193f012e 	ldmdbne	pc!, {r1, r2, r3, r5, r8}	; <UNPREDICTABLE>
 ab8:	0b3a0e03 	bleq	e842cc <kernel_start-0x717bd74>
 abc:	0b390b3b 	bleq	e437b0 <kernel_start-0x71bc890>
 ac0:	01111349 	tsteq	r1, r9, asr #6
 ac4:	18400612 	stmdane	r0, {r1, r4, r9, sl}^
 ac8:	01194297 			; <UNDEFINED> instruction: 0x01194297
 acc:	0f000013 	svceq	0x00000013
 ad0:	08030034 	stmdaeq	r3, {r2, r4, r5}
 ad4:	0b3b0b3a 	bleq	ec37c4 <kernel_start-0x713c87c>
 ad8:	13490b39 	movtne	r0, #39737	; 0x9b39
 adc:	00001802 	andeq	r1, r0, r2, lsl #16
 ae0:	3f012e10 	svccc	0x00012e10
 ae4:	3a0e0319 	bcc	381750 <kernel_start-0x7c7e8f0>
 ae8:	390b3b0b 	stmdbcc	fp, {r0, r1, r3, r8, r9, fp, ip, sp}
 aec:	1201110b 	andne	r1, r1, #-1073741822	; 0xc0000002
 af0:	97184006 	ldrls	r4, [r8, -r6]
 af4:	13011942 	movwne	r1, #6466	; 0x1942
 af8:	2e110000 	cdpcs	0, 1, cr0, cr1, cr0, {0}
 afc:	03193f01 	tsteq	r9, #1, 30
 b00:	3b0b3a0e 	blcc	2cf340 <kernel_start-0x7d30d00>
 b04:	270b390b 	strcs	r3, [fp, -fp, lsl #18]
 b08:	12011119 	andne	r1, r1, #1073741830	; 0x40000006
 b0c:	96184006 	ldrls	r4, [r8], -r6
 b10:	13011942 	movwne	r1, #6466	; 0x1942
 b14:	0f120000 	svceq	0x00120000
 b18:	000b0b00 	andeq	r0, fp, r0, lsl #22
	...

Disassembly of section .debug_aranges:

00000000 <.debug_aranges>:
   0:	0000001c 	andeq	r0, r0, ip, lsl r0
   4:	00000002 	andeq	r0, r0, r2
   8:	00040000 	andeq	r0, r4, r0
   c:	00000000 	andeq	r0, r0, r0
  10:	08000000 	stmdaeq	r0, {}	; <UNPREDICTABLE>
  14:	00000046 	andeq	r0, r0, r6, asr #32
	...
  20:	0000001c 	andeq	r0, r0, ip, lsl r0
  24:	00260002 	eoreq	r0, r6, r2
  28:	00040000 	andeq	r0, r4, r0
  2c:	00000000 	andeq	r0, r0, r0
  30:	08000048 	stmdaeq	r0, {r3, r6}
  34:	000005f8 	strdeq	r0, [r0], -r8
	...
  40:	0000001c 	andeq	r0, r0, ip, lsl r0
  44:	029c0002 	addseq	r0, ip, #2
  48:	00040000 	andeq	r0, r4, r0
  4c:	00000000 	andeq	r0, r0, r0
  50:	08000640 	stmdaeq	r0, {r6, r9, sl}
  54:	000001c8 	andeq	r0, r0, r8, asr #3
	...
  60:	0000001c 	andeq	r0, r0, ip, lsl r0
  64:	049d0002 	ldreq	r0, [sp], #2
  68:	00040000 	andeq	r0, r4, r0
  6c:	00000000 	andeq	r0, r0, r0
  70:	08000808 	stmdaeq	r0, {r3, fp}
  74:	00000174 	andeq	r0, r0, r4, ror r1
	...
  80:	0000001c 	andeq	r0, r0, ip, lsl r0
  84:	071e0002 	ldreq	r0, [lr, -r2]
  88:	00040000 	andeq	r0, r4, r0
  8c:	00000000 	andeq	r0, r0, r0
  90:	0800097c 	stmdaeq	r0, {r2, r3, r4, r5, r6, r8, fp}
  94:	0000023c 	andeq	r0, r0, ip, lsr r2
	...
  a0:	0000001c 	andeq	r0, r0, ip, lsl r0
  a4:	08f50002 	ldmeq	r5!, {r1}^
  a8:	00040000 	andeq	r0, r4, r0
  ac:	00000000 	andeq	r0, r0, r0
  b0:	08000bb8 	stmdaeq	r0, {r3, r4, r5, r7, r8, r9, fp}
  b4:	0000012c 	andeq	r0, r0, ip, lsr #2
	...
  c0:	0000001c 	andeq	r0, r0, ip, lsl r0
  c4:	0a620002 	beq	18800d4 <kernel_start-0x677ff6c>
  c8:	00040000 	andeq	r0, r4, r0
  cc:	00000000 	andeq	r0, r0, r0
  d0:	08000ce4 	stmdaeq	r0, {r2, r5, r6, r7, sl, fp}
  d4:	00000210 	andeq	r0, r0, r0, lsl r2
	...
  e0:	0000001c 	andeq	r0, r0, ip, lsl r0
  e4:	0c610002 	stcleq	0, cr0, [r1], #-8
  e8:	00040000 	andeq	r0, r4, r0
  ec:	00000000 	andeq	r0, r0, r0
  f0:	08000ef4 	stmdaeq	r0, {r2, r4, r5, r6, r7, r9, sl, fp}
  f4:	000000ec 	andeq	r0, r0, ip, ror #1
	...
 100:	0000001c 	andeq	r0, r0, ip, lsl r0
 104:	0d4f0002 	stcleq	0, cr0, [pc, #-8]	; 104 <kernel_start-0x7ffff3c>
 108:	00040000 	andeq	r0, r4, r0
 10c:	00000000 	andeq	r0, r0, r0
 110:	08000fe0 	stmdaeq	r0, {r5, r6, r7, r8, r9, sl, fp}
 114:	000003d0 	ldrdeq	r0, [r0], -r0	; <UNPREDICTABLE>
	...
 120:	0000001c 	andeq	r0, r0, ip, lsl r0
 124:	0ecb0002 	cdpeq	0, 12, cr0, cr11, cr2, {0}
 128:	00040000 	andeq	r0, r4, r0
 12c:	00000000 	andeq	r0, r0, r0
 130:	080013b0 	stmdaeq	r0, {r4, r5, r7, r8, r9, ip}
 134:	000002e0 	andeq	r0, r0, r0, ror #5
	...
 140:	0000001c 	andeq	r0, r0, ip, lsl r0
 144:	10c20002 	sbcne	r0, r2, r2
 148:	00040000 	andeq	r0, r4, r0
 14c:	00000000 	andeq	r0, r0, r0
 150:	08001690 	stmdaeq	r0, {r4, r7, r9, sl, ip}
 154:	00000128 	andeq	r0, r0, r8, lsr #2
	...
 160:	0000001c 	andeq	r0, r0, ip, lsl r0
 164:	120e0002 	andne	r0, lr, #2
 168:	00040000 	andeq	r0, r4, r0
 16c:	00000000 	andeq	r0, r0, r0
 170:	080017b8 	stmdaeq	r0, {r3, r4, r5, r7, r8, r9, sl, ip}
 174:	00000130 	andeq	r0, r0, r0, lsr r1
	...
 180:	0000001c 	andeq	r0, r0, ip, lsl r0
 184:	138f0002 	orrne	r0, pc, #2
 188:	00040000 	andeq	r0, r4, r0
 18c:	00000000 	andeq	r0, r0, r0
 190:	080018e8 	stmdaeq	r0, {r3, r5, r6, r7, fp, ip}
 194:	0000021e 	andeq	r0, r0, lr, lsl r2
	...

Disassembly of section .debug_str:

00000000 <.debug_str>:
   0:	2f637273 	svccs	0x00637273
   4:	746f6f62 	strbtvc	r6, [pc], #-3938	; c <kernel_start-0x8000034>
   8:	2f00732e 	svccs	0x0000732e
   c:	656d6f68 	strbvs	r6, [sp, #-3944]!	; 0xfffff098
  10:	7361742f 	cmnvc	r1, #788529152	; 0x2f000000
  14:	442f736f 	strtmi	r7, [pc], #-879	; 1c <kernel_start-0x8000024>
  18:	6d75636f 	ldclvs	3, cr6, [r5, #-444]!	; 0xfffffe44
  1c:	73746e65 	cmnvc	r4, #1616	; 0x650
  20:	6d74732f 	ldclvs	3, cr7, [r4, #-188]!	; 0xffffff44
  24:	6f5f3233 	svcvs	0x005f3233
  28:	4e470073 	mcrmi	0, 2, r0, cr7, cr3, {3}
  2c:	53412055 	movtpl	r2, #4181	; 0x1055
  30:	332e3220 			; <UNDEFINED> instruction: 0x332e3220
  34:	656b0038 	strbvs	r0, [fp, #-56]!	; 0xffffffc8
  38:	6c656e72 	stclvs	14, cr6, [r5], #-456	; 0xfffffe38
  3c:	74616400 	strbtvc	r6, [r1], #-1024	; 0xfffffc00
  40:	65740061 	ldrbvs	r0, [r4, #-97]!	; 0xffffff9f
  44:	53557473 	cmppl	r5, #1929379840	; 0x73000000
  48:	00545241 	subseq	r5, r4, r1, asr #4
  4c:	74736574 	ldrbtvc	r6, [r3], #-1396	; 0xfffffa8c
  50:	324d4954 	subcc	r4, sp, #84, 18	; 0x150000
  54:	73657400 	cmnvc	r5, #0, 8
  58:	4d495474 	cfstrdmi	mvd5, [r9, #-464]	; 0xfffffe30
  5c:	6e750034 	mrcvs	0, 3, r0, cr5, cr4, {1}
  60:	6e676973 			; <UNDEFINED> instruction: 0x6e676973
  64:	63206465 			; <UNDEFINED> instruction: 0x63206465
  68:	00726168 	rsbseq	r6, r2, r8, ror #2
  6c:	726f6873 	rsbvc	r6, pc, #7536640	; 0x730000
  70:	6e752074 	mrcvs	0, 3, r2, cr5, cr4, {3}
  74:	6e676973 			; <UNDEFINED> instruction: 0x6e676973
  78:	69206465 	stmdbvs	r0!, {r0, r2, r5, r6, sl, sp, lr}
  7c:	7000746e 	andvc	r7, r0, lr, ror #8
  80:	65636f72 	strbvs	r6, [r3, #-3954]!	; 0xfffff08e
  84:	00327373 	eorseq	r7, r2, r3, ror r3
  88:	656b7564 	strbvs	r7, [fp, #-1380]!	; 0xfffffa9c
  8c:	666f5f73 	uqsub16vs	r5, pc, r3	; <UNPREDICTABLE>
  90:	7a61685f 	bvc	185a214 <kernel_start-0x67a5e2c>
  94:	5f647261 	svcpl	0x00647261
  98:	6973756d 	ldmdbvs	r3!, {r0, r2, r3, r5, r6, r8, sl, ip, sp, lr}^
  9c:	6f6c0063 	svcvs	0x006c0063
  a0:	6c20676e 	stcvs	7, cr6, [r0], #-440	; 0xfffffe48
  a4:	20676e6f 	rsbcs	r6, r7, pc, ror #28
  a8:	69736e75 	ldmdbvs	r3!, {r0, r2, r4, r5, r6, r9, sl, fp, sp, lr}^
  ac:	64656e67 	strbtvs	r6, [r5], #-3687	; 0xfffff199
  b0:	746e6920 	strbtvc	r6, [lr], #-2336	; 0xfffff6e0
  b4:	6e697500 	cdpvs	5, 6, cr7, cr9, cr0, {0}
  b8:	745f3874 	ldrbvc	r3, [pc], #-2164	; c0 <kernel_start-0x7ffff80>
  bc:	616c7000 	cmnvs	ip, r0
  c0:	756d5f79 	strbvc	r5, [sp, #-3961]!	; 0xfffff087
  c4:	00636973 	rsbeq	r6, r3, r3, ror r9
  c8:	676e6f6c 	strbvs	r6, [lr, -ip, ror #30]!
  cc:	6e6f6c20 	cdpvs	12, 6, cr6, cr15, cr0, {1}
  d0:	6e692067 	cdpvs	0, 6, cr2, cr9, cr7, {3}
  d4:	65740074 	ldrbvs	r0, [r4, #-116]!	; 0xffffff8c
  d8:	705f7473 	subsvc	r7, pc, r3, ror r4	; <UNPREDICTABLE>
  dc:	73006d77 	movwvc	r6, #3447	; 0xd77
  e0:	74726f68 	ldrbtvc	r6, [r2], #-3944	; 0xfffff098
  e4:	746e6920 	strbtvc	r6, [lr], #-2336	; 0xfffff6e0
  e8:	6e697500 	cdpvs	5, 6, cr7, cr9, cr0, {0}
  ec:	5f363174 	svcpl	0x00363174
  f0:	75630074 	strbvc	r0, [r3, #-116]!	; 0xffffff8c
  f4:	6e657272 	mcrvs	2, 3, r7, cr5, cr2, {3}
  f8:	69750074 	ldmdbvs	r5!, {r2, r4, r5, r6}^
  fc:	3233746e 	eorscc	r7, r3, #1845493760	; 0x6e000000
 100:	4700745f 	smlsdmi	r0, pc, r4, r7	; <UNPREDICTABLE>
 104:	4320554e 			; <UNDEFINED> instruction: 0x4320554e
 108:	31203731 			; <UNDEFINED> instruction: 0x31203731
 10c:	2e332e30 	mrccs	14, 1, r2, cr3, cr0, {1}
 110:	30322031 	eorscc	r2, r2, r1, lsr r0
 114:	36303132 			; <UNDEFINED> instruction: 0x36303132
 118:	28203132 	stmdacs	r0!, {r1, r4, r5, r8, ip, sp}
 11c:	656c6572 	strbvs	r6, [ip, #-1394]!	; 0xfffffa8e
 120:	29657361 	stmdbcs	r5!, {r0, r5, r6, r8, r9, ip, sp, lr}^
 124:	746d2d20 	strbtvc	r2, [sp], #-3360	; 0xfffff2e0
 128:	626d7568 	rsbvs	r7, sp, #104, 10	; 0x1a000000
 12c:	636d2d20 	cmnvs	sp, #32, 26	; 0x800
 130:	633d7570 	teqvs	sp, #112, 10	; 0x1c000000
 134:	6574726f 	ldrbvs	r7, [r4, #-623]!	; 0xfffffd91
 138:	336d2d78 	cmncc	sp, #120, 26	; 0x1e00
 13c:	666d2d20 	strbtvs	r2, [sp], -r0, lsr #26
 140:	74616f6c 	strbtvc	r6, [r1], #-3948	; 0xfffff094
 144:	6962612d 	stmdbvs	r2!, {r0, r2, r3, r5, r8, sp, lr}^
 148:	666f733d 			; <UNDEFINED> instruction: 0x666f733d
 14c:	6d2d2074 	stcvs	0, cr2, [sp, #-464]!	; 0xfffffe30
 150:	68637261 	stmdavs	r3!, {r0, r5, r6, r9, ip, sp, lr}^
 154:	6d72613d 	ldfvse	f6, [r2, #-244]!	; 0xffffff0c
 158:	6d2d3776 	stcvs	7, cr3, [sp, #-472]!	; 0xfffffe28
 15c:	20672d20 	rsbcs	r2, r7, r0, lsr #26
 160:	00304f2d 	eorseq	r4, r0, sp, lsr #30
 164:	74736574 	ldrbtvc	r6, [r3], #-1396	; 0xfffffa8c
 168:	00434441 	subeq	r4, r3, r1, asr #8
 16c:	636f7270 	cmnvs	pc, #112, 4
 170:	31737365 	cmncc	r3, r5, ror #6
 174:	73657400 	cmnvc	r5, #0, 8
 178:	6c654474 	cfstrdvs	mvd4, [r5], #-464	; 0xfffffe30
 17c:	70007961 	andvc	r7, r0, r1, ror #18
 180:	65636f72 	strbvs	r6, [r3, #-3954]!	; 0xfffff08e
 184:	00337373 	eorseq	r7, r3, r3, ror r3
 188:	2f637273 	svccs	0x00637273
 18c:	6e72656b 	cdpvs	5, 7, cr6, cr2, cr11, {3}
 190:	632e6c65 			; <UNDEFINED> instruction: 0x632e6c65
 194:	616e6500 	cmnvs	lr, r0, lsl #10
 198:	5f656c62 	svcpl	0x00656c62
 19c:	65747865 	ldrbvs	r7, [r4, #-2149]!	; 0xfffff79b
 1a0:	6c616e72 	stclvs	14, cr6, [r1], #-456	; 0xfffffe38
 1a4:	6f6c635f 	svcvs	0x006c635f
 1a8:	70006b63 	andvc	r6, r0, r3, ror #22
 1ac:	6d5f6c6c 	ldclvs	12, cr6, [pc, #-432]	; 4 <kernel_start-0x800003c>
 1b0:	64006c75 	strvs	r6, [r0], #-3189	; 0xfffff38b
 1b4:	79616c65 	stmdbvc	r1!, {r0, r2, r5, r6, sl, fp, sp, lr}^
 1b8:	65736d5f 	ldrbvs	r6, [r3, #-3423]!	; 0xfffff2a1
 1bc:	65640063 	strbvs	r0, [r4, #-99]!	; 0xffffff9d
 1c0:	5f79616c 	svcpl	0x0079616c
 1c4:	736d5f31 	cmnvc	sp, #49, 30	; 0xc4
 1c8:	73006365 	movwvc	r6, #869	; 0x365
 1cc:	632f6372 			; <UNDEFINED> instruction: 0x632f6372
 1d0:	6b636f6c 	blvs	18dbf88 <kernel_start-0x67240b8>
 1d4:	6f6c632f 	svcvs	0x006c632f
 1d8:	632e6b63 			; <UNDEFINED> instruction: 0x632e6b63
 1dc:	616e6500 	cmnvs	lr, r0, lsl #10
 1e0:	5f656c62 	svcpl	0x00656c62
 1e4:	74726175 	ldrbtvc	r6, [r2], #-373	; 0xfffffe8b
 1e8:	6f6c635f 	svcvs	0x006c635f
 1ec:	00736b63 	rsbseq	r6, r3, r3, ror #22
 1f0:	43455355 	movtmi	r5, #21333	; 0x5355
 1f4:	524f575f 	subpl	r5, pc, #24903680	; 0x17c0000
 1f8:	474e494b 	strbmi	r4, [lr, -fp, asr #18]
 1fc:	6c6c7000 	stclvs	0, cr7, [ip], #-0
 200:	616e655f 	cmnvs	lr, pc, asr r5
 204:	64656c62 	strbtvs	r6, [r5], #-3170	; 0xfffff39e
 208:	6c756d00 	ldclvs	13, cr6, [r5], #-0
 20c:	6c706974 			; <UNDEFINED> instruction: 0x6c706974
 210:	00726569 	rsbseq	r6, r2, r9, ror #10
 214:	62616e65 	rsbvs	r6, r1, #1616	; 0x650
 218:	655f656c 	ldrbvs	r6, [pc, #-1388]	; fffffcb4 <used_pipes+0xdffffc80>
 21c:	72657478 	rsbvc	r7, r5, #120, 8	; 0x78000000
 220:	5f6c616e 	svcpl	0x006c616e
 224:	636f6c63 	cmnvs	pc, #25344	; 0x6300
 228:	6c705f6b 	ldclvs	15, cr5, [r0], #-428	; 0xfffffe54
 22c:	756d006c 	strbvc	r0, [sp, #-108]!	; 0xffffff94
 230:	7069746c 	rsbvc	r7, r9, ip, ror #8
 234:	7265696c 	rsbvc	r6, r5, #108, 18	; 0x1b0000
 238:	6c65735f 	stclvs	3, cr7, [r5], #-380	; 0xfffffe84
 23c:	00746365 	rsbseq	r6, r4, r5, ror #6
 240:	62616e65 	rsbvs	r6, r1, #1616	; 0x650
 244:	7047656c 	subvc	r6, r7, ip, ror #10
 248:	6c436f69 	mcrrvs	15, 6, r6, r3, cr9
 24c:	736b636f 	cmnvc	fp, #-1140850687	; 0xbc000001
 250:	616e6500 	cmnvs	lr, r0, lsl #10
 254:	5f656c62 	svcpl	0x00656c62
 258:	656d6974 	strbvs	r6, [sp, #-2420]!	; 0xfffff68c
 25c:	6c635f72 	stclvs	15, cr5, [r3], #-456	; 0xfffffe38
 260:	736b636f 	cmnvc	fp, #-1140850687	; 0xbc000001
 264:	706d6300 	rsbvc	r6, sp, r0, lsl #6
 268:	6c61765f 	stclvs	6, cr7, [r1], #-380	; 0xfffffe84
 26c:	65006575 	strvs	r6, [r0, #-1397]	; 0xfffffa8b
 270:	6c62616e 	stfvse	f6, [r2], #-440	; 0xfffffe48
 274:	43444165 	movtmi	r4, #16741	; 0x4165
 278:	636f6c43 	cmnvs	pc, #17152	; 0x4300
 27c:	6700736b 	strvs	r7, [r0, -fp, ror #6]
 280:	73557465 	cmpvc	r5, #1694498816	; 0x65000000
 284:	6f576365 	svcvs	0x00576365
 288:	6e696b72 	vmovvs.8	d9[7], r6
 28c:	65670067 	strbvs	r0, [r7, #-103]!	; 0xffffff99
 290:	6f6c4374 	svcvs	0x006c4374
 294:	72466b63 	subvc	r6, r6, #101376	; 0x18c00
 298:	73007165 	movwvc	r7, #357	; 0x165
 29c:	632f6372 			; <UNDEFINED> instruction: 0x632f6372
 2a0:	65746e6f 	ldrbvs	r6, [r4, #-3695]!	; 0xfffff191
 2a4:	735f7478 	cmpvc	pc, #120, 8	; 0x78000000
 2a8:	63746977 	cmnvs	r4, #1949696	; 0x1dc000
 2ac:	676e6968 	strbvs	r6, [lr, -r8, ror #18]!
 2b0:	6e6f632f 	cdpvs	3, 6, cr6, cr15, cr15, {1}
 2b4:	74786574 	ldrbtvc	r6, [r8], #-1396	; 0xfffffa8c
 2b8:	6977735f 	ldmdbvs	r7!, {r0, r1, r2, r3, r4, r6, r8, r9, ip, sp, lr}^
 2bc:	69686374 	stmdbvs	r8!, {r2, r4, r5, r6, r8, r9, sp, lr}^
 2c0:	632e676e 			; <UNDEFINED> instruction: 0x632e676e
 2c4:	73795300 	cmnvc	r9, #0, 6
 2c8:	6b636954 	blvs	18da820 <kernel_start-0x6725820>
 2cc:	5253495f 	subspl	r4, r3, #1556480	; 0x17c000
 2d0:	61747300 	cmnvs	r4, r0, lsl #6
 2d4:	73006574 	movwvc	r6, #1396	; 0x574
 2d8:	64656863 	strbtvs	r6, [r5], #-2147	; 0xfffff79d
 2dc:	4e656c75 	mcrmi	12, 3, r6, cr5, cr5, {3}
 2e0:	50747865 	rsbspl	r7, r4, r5, ror #16
 2e4:	65636f72 	strbvs	r6, [r3, #-3954]!	; 0xfffff08e
 2e8:	63007373 	movwvs	r7, #883	; 0x373
 2ec:	65727275 	ldrbvs	r7, [r2, #-629]!	; 0xfffffd8b
 2f0:	505f746e 	subspl	r7, pc, lr, ror #8
 2f4:	705f4243 	subsvc	r4, pc, r3, asr #4
 2f8:	73007274 	movwvc	r7, #628	; 0x274
 2fc:	74726174 	ldrbtvc	r6, [r2], #-372	; 0xfffffe8c
 300:	65686353 	strbvs	r6, [r8, #-851]!	; 0xfffffcad
 304:	656c7564 	strbvs	r7, [ip, #-1380]!	; 0xfffffa9c
 308:	75630072 	strbvc	r0, [r3, #-114]!	; 0xffffff8e
 30c:	6e657272 	mcrvs	2, 3, r7, cr5, cr2, {3}
 310:	72705f74 	rsbsvc	r5, r0, #116, 30	; 0x1d0
 314:	7365636f 	cmnvc	r5, #-1140850687	; 0xbc000001
 318:	616c0073 	smcvs	49155	; 0xc003
 31c:	755f7473 	ldrbvc	r7, [pc, #-1139]	; fffffeb1 <used_pipes+0xdffffe7d>
 320:	5f726573 	svcpl	0x00726573
 324:	636f7270 	cmnvs	pc, #112, 4
 328:	00737365 	rsbseq	r7, r3, r5, ror #6
 32c:	7478656e 	ldrbtvc	r6, [r8], #-1390	; 0xfffffa92
 330:	64646100 	strbtvs	r6, [r4], #-256	; 0xffffff00
 334:	5f6f745f 	svcpl	0x006f745f
 338:	5f424350 	svcpl	0x00424350
 33c:	7473696c 	ldrbtvc	r6, [r3], #-2412	; 0xfffff694
 340:	6e616800 	cdpvs	8, 6, cr6, cr1, cr0, {0}
 344:	72656c64 	rsbvc	r6, r5, #100, 24	; 0x6400
 348:	6464615f 	strbtvs	r6, [r4], #-351	; 0xfffffea1
 34c:	73736572 	cmnvc	r3, #478150656	; 0x1c800000
 350:	4d495400 	cfstrdmi	mvd5, [r9, #-0]
 354:	53495f34 	movtpl	r5, #40756	; 0x9f34
 358:	65730052 	ldrbvs	r0, [r3, #-82]!	; 0xffffffae
 35c:	746e4974 	strbtvc	r4, [lr], #-2420	; 0xfffff68c
 360:	75727265 	ldrbvc	r7, [r2, #-613]!	; 0xfffffd9b
 364:	54007470 	strpl	r7, [r0], #-1136	; 0xfffffb90
 368:	5f334d49 	svcpl	0x00334d49
 36c:	00525349 	subseq	r5, r2, r9, asr #6
 370:	5f6d656d 	svcpl	0x006d656d
 374:	72646461 	rsbvc	r6, r4, #1627389952	; 0x61000000
 378:	00737365 	rsbseq	r7, r3, r5, ror #6
 37c:	53746573 	cmnpl	r4, #482344960	; 0x1cc00000
 380:	69747379 	ldmdbvs	r4!, {r0, r3, r4, r5, r6, r8, r9, ip, sp, lr}^
 384:	65526b63 	ldrbvs	r6, [r2, #-2915]	; 0xfffff49d
 388:	64616f6c 	strbtvs	r6, [r1], #-3948	; 0xfffff094
 38c:	736f7000 	cmnvc	pc, #0
 390:	6f697469 	svcvs	0x00697469
 394:	656c006e 	strbvs	r0, [ip, #-110]!	; 0xffffff92
 398:	6c003164 	stfvss	f3, [r0], {100}	; 0x64
 39c:	00326465 	eorseq	r6, r2, r5, ror #8
 3a0:	3364656c 	cmncc	r4, #108, 10	; 0x1b000000
 3a4:	4d495400 	cfstrdmi	mvd5, [r9, #-0]
 3a8:	53495f32 	movtpl	r5, #40754	; 0x9f32
 3ac:	6c630052 	stclvs	0, cr0, [r3], #-328	; 0xfffffeb8
 3b0:	49726165 	ldmdbmi	r2!, {r0, r2, r5, r6, r8, sp, lr}^
 3b4:	7265746e 	rsbvc	r7, r5, #1845493760	; 0x6e000000
 3b8:	74707572 	ldrbtvc	r7, [r0], #-1394	; 0xfffffa8e
 3bc:	4d495400 	cfstrdmi	mvd5, [r9, #-0]
 3c0:	53495f35 	movtpl	r5, #40757	; 0x9f35
 3c4:	6e650052 	mcrvs	0, 3, r0, cr5, cr2, {2}
 3c8:	656c6261 	strbvs	r6, [ip, #-609]!	; 0xfffffd9f
 3cc:	74737953 	ldrbtvc	r7, [r3], #-2387	; 0xfffff6ad
 3d0:	006b6369 	rsbeq	r6, fp, r9, ror #6
 3d4:	64726148 	ldrbtvs	r6, [r2], #-328	; 0xfffffeb8
 3d8:	6c756146 	ldfvse	f6, [r5], #-280	; 0xfffffee8
 3dc:	53495f74 	movtpl	r5, #40820	; 0x9f74
 3e0:	72730052 	rsbsvc	r0, r3, #82	; 0x52
 3e4:	6e692f63 	cdpvs	15, 6, cr2, cr9, cr3, {3}
 3e8:	72726574 	rsbsvc	r6, r2, #116, 10	; 0x1d000000
 3ec:	73747075 	cmnvc	r4, #117	; 0x75
 3f0:	746e692f 	strbtvc	r6, [lr], #-2351	; 0xfffff6d1
 3f4:	75727265 	ldrbvc	r7, [r2, #-613]!	; 0xfffffd9b
 3f8:	632e7470 			; <UNDEFINED> instruction: 0x632e7470
 3fc:	74746100 	ldrbtvc	r6, [r4], #-256	; 0xffffff00
 400:	48686361 	stmdami	r8!, {r0, r5, r6, r8, r9, sp, lr}^
 404:	6c646e61 	stclvs	14, cr6, [r4], #-388	; 0xfffffe7c
 408:	69007265 	stmdbvs	r0, {r0, r2, r5, r6, r9, ip, sp, lr}
 40c:	4474696e 	ldrbtmi	r6, [r4], #-2414	; 0xfffff692
 410:	6f6c6c61 	svcvs	0x006c6c61
 414:	61705363 	cmnvs	r0, r3, ror #6
 418:	64006563 	strvs	r6, [r0], #-1379	; 0xfffffa9d
 41c:	62617369 	rsbvs	r7, r1, #-1543503871	; 0xa4000001
 420:	6e55656c 	cdpvs	5, 5, cr6, cr5, cr12, {3}
 424:	67696c61 	strbvs	r6, [r9, -r1, ror #24]!
 428:	4164656e 	cmnmi	r4, lr, ror #10
 42c:	65726464 	ldrbvs	r6, [r2, #-1124]!	; 0xfffffb9c
 430:	61467373 	hvcvs	26419	; 0x6733
 434:	00746c75 	rsbseq	r6, r4, r5, ror ip
 438:	5f727563 	svcpl	0x00727563
 43c:	72646461 	rsbvc	r6, r4, #1627389952	; 0x61000000
 440:	6e696600 	cdpvs	6, 6, cr6, cr9, cr0, {0}
 444:	61764164 	cmnvs	r6, r4, ror #2
 448:	62616c69 	rsbvs	r6, r1, #26880	; 0x6900
 44c:	7250656c 	subsvc	r6, r0, #108, 10	; 0x1b000000
 450:	7365636f 	cmnvc	r5, #-1140850687	; 0xbc000001
 454:	67615073 			; <UNDEFINED> instruction: 0x67615073
 458:	72700065 	rsbsvc	r0, r0, #101	; 0x65
 45c:	735f636f 	cmpvc	pc, #-1140850687	; 0xbc000001
 460:	65746174 	ldrbvs	r6, [r4, #-372]!	; 0xfffffe8c
 464:	7479625f 	ldrbtvc	r6, [r9], #-607	; 0xfffffda1
 468:	6e690065 	cdpvs	0, 6, cr0, cr9, cr5, {3}
 46c:	72507469 	subsvc	r7, r0, #1761607680	; 0x69000000
 470:	7365636f 	cmnvc	r5, #-1140850687	; 0xbc000001
 474:	67615073 			; <UNDEFINED> instruction: 0x67615073
 478:	73007365 	movwvc	r7, #869	; 0x365
 47c:	6d2f6372 	stcvs	3, cr6, [pc, #-456]!	; 2bc <kernel_start-0x7fffd84>
 480:	726f6d65 	rsbvc	r6, pc, #6464	; 0x1940
 484:	616d5f79 	smcvs	54777	; 0xd5f9
 488:	6567616e 	strbvs	r6, [r7, #-366]!	; 0xfffffe92
 48c:	746e656d 	strbtvc	r6, [lr], #-1389	; 0xfffffa93
 490:	6d656d2f 	stclvs	13, cr6, [r5, #-188]!	; 0xffffff44
 494:	2e79726f 	cdpcs	2, 7, cr7, cr9, cr15, {3}
 498:	75630063 	strbvc	r0, [r3, #-99]!	; 0xffffff9d
 49c:	6e657272 	mcrvs	2, 3, r7, cr5, cr2, {3}
 4a0:	61705f74 	cmnvs	r0, r4, ror pc
 4a4:	735f6567 	cmpvc	pc, #432013312	; 0x19c00000
 4a8:	74726174 	ldrbtvc	r6, [r2], #-372	; 0xfffffe8c
 4ac:	5f676e69 	svcpl	0x00676e69
 4b0:	72646461 	rsbvc	r6, r4, #1627389952	; 0x61000000
 4b4:	7a697300 	bvc	1a5d0bc <kernel_start-0x65a2f84>
 4b8:	656c0065 	strbvs	r0, [ip, #-101]!	; 0xffffff9b
 4bc:	6874676e 	ldmdavs	r4!, {r1, r2, r3, r5, r6, r8, r9, sl, sp, lr}^
 4c0:	6c616d00 	stclvs	13, cr6, [r1], #-0
 4c4:	00636f6c 	rsbeq	r6, r3, ip, ror #30
 4c8:	65746f6e 	ldrbvs	r6, [r4, #-3950]!	; 0xfffff092
 4cc:	6572665f 	ldrbvs	r6, [r2, #-1631]!	; 0xfffff9a1
 4d0:	75710071 	ldrbvc	r0, [r1, #-113]!	; 0xffffff8f
 4d4:	65747261 	ldrbvs	r7, [r4, #-609]!	; 0xfffffd9f
 4d8:	73755f72 	cmnvc	r5, #456	; 0x1c8
 4dc:	645f6365 	ldrbvs	r6, [pc], #-869	; 4e4 <kernel_start-0x7fffb5c>
 4e0:	79616c65 	stmdbvc	r1!, {r0, r2, r5, r6, sl, fp, sp, lr}^
 4e4:	776f7000 	strbvc	r7, [pc, -r0]!
 4e8:	73007265 	movwvc	r7, #613	; 0x265
 4ec:	50427465 	subpl	r7, r2, r5, ror #8
 4f0:	6f6e004d 	svcvs	0x006e004d
 4f4:	705f6574 	subsvc	r6, pc, r4, ror r5	; <UNPREDICTABLE>
 4f8:	5f79616c 	svcpl	0x0079616c
 4fc:	656d6974 	strbvs	r6, [sp, #-2420]!	; 0xfffff68c
 500:	6573755f 	ldrbvs	r7, [r3, #-1375]!	; 0xfffffaa1
 504:	6c700063 	ldclvs	0, cr0, [r0], #-396	; 0xfffffe74
 508:	6e5f7961 	vnmlavs.f16	s15, s30, s3	; <UNPREDICTABLE>
 50c:	0065746f 	rsbeq	r7, r5, pc, ror #8
 510:	6973756d 	ldmdbvs	r3!, {r0, r2, r3, r5, r6, r8, sl, ip, sp, lr}^
 514:	65645f63 	strbvs	r5, [r4, #-3939]!	; 0xfffff09d
 518:	0079616c 	rsbseq	r6, r9, ip, ror #2
 51c:	73756170 	cmnvc	r5, #112, 2
 520:	6c705f65 	ldclvs	15, cr5, [r0], #-404	; 0xfffffe6c
 524:	745f7961 	ldrbvc	r7, [pc], #-2401	; 52c <kernel_start-0x7fffb14>
 528:	5f656d69 	svcpl	0x00656d69
 52c:	63657375 	cmnvs	r5, #-738197503	; 0xd4000001
 530:	63727300 	cmnvs	r2, #0, 6
 534:	73696d2f 	cmnvc	r9, #3008	; 0xbc0
 538:	756d2f63 	strbvc	r2, [sp, #-3939]!	; 0xfffff09d
 53c:	2e636973 			; <UNDEFINED> instruction: 0x2e636973
 540:	6c700063 	ldclvs	0, cr0, [r0], #-396	; 0xfffffe74
 544:	705f7961 	subsvc	r7, pc, r1, ror #18
 548:	65737561 	ldrbvs	r7, [r3, #-1377]!	; 0xfffffa9f
 54c:	61747300 	cmnvs	r4, r0, lsl #6
 550:	6f437472 	svcvs	0x00437472
 554:	6e69746e 	cdpvs	4, 6, cr7, cr9, cr14, {3}
 558:	73756f75 	cmnvc	r5, #468	; 0x1d4
 55c:	766e6f43 	strbtvc	r6, [lr], -r3, asr #30
 560:	69737265 	ldmdbvs	r3!, {r0, r2, r5, r6, r9, ip, sp, lr}^
 564:	72006e6f 	andvc	r6, r0, #1776	; 0x6f0
 568:	44646165 	strbtmi	r6, [r4], #-357	; 0xfffffe9b
 56c:	43617461 	cmnmi	r1, #1627389952	; 0x61000000
 570:	65766e6f 	ldrbvs	r6, [r6, #-3695]!	; 0xfffff191
 574:	64657472 	strbtvs	r7, [r5], #-1138	; 0xfffffb8e
 578:	71657300 	cmnvc	r5, r0, lsl #6
 57c:	6e656c5f 	mcrvs	12, 3, r6, cr5, cr15, {2}
 580:	71657300 	cmnvc	r5, r0, lsl #6
 584:	636e6575 	cmnvs	lr, #490733568	; 0x1d400000
 588:	72730065 	rsbsvc	r0, r3, #101	; 0x65
 58c:	65702f63 	ldrbvs	r2, [r0, #-3939]!	; 0xfffff09d
 590:	68706972 	ldmdavs	r0!, {r1, r4, r5, r6, r8, fp, sp, lr}^
 594:	6c617265 	sfmvs	f7, 2, [r1], #-404	; 0xfffffe6c
 598:	64612f73 	strbtvs	r2, [r1], #-3955	; 0xfffff08d
 59c:	00632e63 	rsbeq	r2, r3, r3, ror #28
 5a0:	79666e63 	stmdbvc	r6!, {r0, r1, r5, r6, r9, sl, fp, sp, lr}^
 5a4:	69706700 	ldmdbvs	r0!, {r8, r9, sl, sp, lr}^
 5a8:	6f6d5f6f 	svcvs	0x006d5f6f
 5ac:	63006564 	movwvs	r6, #1380	; 0x564
 5b0:	69666e6f 	stmdbvs	r6!, {r0, r1, r2, r3, r5, r6, r9, sl, fp, sp, lr}^
 5b4:	6e695067 	cdpvs	0, 6, cr5, cr9, cr7, {3}
 5b8:	74657300 	strbtvc	r7, [r5], #-768	; 0xfffffd00
 5bc:	006e6950 	rsbeq	r6, lr, r0, asr r9
 5c0:	74726f70 	ldrbtvc	r6, [r2], #-3952	; 0xfffff090
 5c4:	63727300 	cmnvs	r2, #0, 6
 5c8:	7265702f 	rsbvc	r7, r5, #47	; 0x2f
 5cc:	65687069 	strbvs	r7, [r8, #-105]!	; 0xffffff97
 5d0:	736c6172 	cmnvc	ip, #-2147483620	; 0x8000001c
 5d4:	6970672f 	ldmdbvs	r0!, {r0, r1, r2, r3, r5, r8, r9, sl, sp, lr}^
 5d8:	00632e6f 	rsbeq	r2, r3, pc, ror #28
 5dc:	65646f6d 	strbvs	r6, [r4, #-3949]!	; 0xfffff093
 5e0:	6c630079 	stclvs	0, cr0, [r3], #-484	; 0xfffffe1c
 5e4:	5f6b636f 	svcpl	0x006b636f
 5e8:	71657266 	cmnvc	r5, r6, ror #4
 5ec:	74657300 	strbtvc	r7, [r5], #-768	; 0xfffffd00
 5f0:	656d6954 	strbvs	r6, [sp, #-2388]!	; 0xfffff6ac
 5f4:	69640072 	stmdbvs	r4!, {r1, r4, r5, r6}^
 5f8:	74636572 	strbtvc	r6, [r3], #-1394	; 0xfffffa8e
 5fc:	006e6f69 	rsbeq	r6, lr, r9, ror #30
 600:	65746661 	ldrbvs	r6, [r4, #-1633]!	; 0xfffff99f
 604:	68615f72 	stmdavs	r1!, {r1, r4, r5, r6, r8, r9, sl, fp, ip, lr}^
 608:	72705f62 	rsbsvc	r5, r0, #392	; 0x188
 60c:	72700065 	rsbsvc	r0, r0, #101	; 0x65
 610:	61637365 	cmnvs	r3, r5, ror #6
 614:	0072656c 	rsbseq	r6, r2, ip, ror #10
 618:	5f626861 	svcpl	0x00626861
 61c:	5f657270 	svcpl	0x00657270
 620:	00676572 	rsbeq	r6, r7, r2, ror r5
 624:	656d6974 	strbvs	r6, [sp, #-2420]!	; 0xfffff68c
 628:	65670072 	strbvs	r0, [r7, #-114]!	; 0xffffff8e
 62c:	6d695474 	cfstrdvs	mvd5, [r9, #-464]!	; 0xfffffe30
 630:	6c437265 	sfmvs	f7, 2, [r3], {101}	; 0x65
 634:	466b636f 	strbtmi	r6, [fp], -pc, ror #6
 638:	00716572 	rsbseq	r6, r1, r2, ror r5
 63c:	31627061 	cmncc	r2, r1, rrx
 640:	6572705f 	ldrbvs	r7, [r2, #-95]!	; 0xffffffa1
 644:	6765725f 			; <UNDEFINED> instruction: 0x6765725f
 648:	65726600 	ldrbvs	r6, [r2, #-1536]!	; 0xfffffa00
 64c:	6e657571 	mcrvs	5, 3, r7, cr5, cr1, {3}
 650:	69007963 	stmdbvs	r0, {r0, r1, r5, r6, r8, fp, ip, sp, lr}
 654:	5f72746e 	svcpl	0x0072746e
 658:	61006e65 	tstvs	r0, r5, ror #28
 65c:	72657466 	rsbvc	r7, r5, #1711276032	; 0x66000000
 660:	6270615f 	rsbsvs	r6, r0, #-1073741801	; 0xc0000017
 664:	72705f31 	rsbsvc	r5, r0, #49, 30	; 0xc4
 668:	72730065 	rsbsvc	r0, r3, #101	; 0x65
 66c:	65702f63 	ldrbvs	r2, [r0, #-3939]!	; 0xfffff09d
 670:	68706972 	ldmdavs	r0!, {r1, r4, r5, r6, r8, fp, sp, lr}^
 674:	6c617265 	sfmvs	f7, 2, [r1], #-404	; 0xfffffe6c
 678:	69742f73 	ldmdbvs	r4!, {r0, r1, r4, r5, r6, r8, r9, sl, fp, sp}^
 67c:	2e72656d 	cdpcs	5, 7, cr6, cr2, cr13, {3}
 680:	69740063 	ldmdbvs	r4!, {r0, r1, r5, r6}^
 684:	5f72656d 	svcpl	0x0072656d
 688:	636f6c63 	cmnvs	pc, #25344	; 0x6300
 68c:	6573006b 	ldrbvs	r0, [r3, #-107]!	; 0xffffff95
 690:	4d575074 	ldclmi	0, cr5, [r7, #-464]	; 0xfffffe30
 694:	6e657300 	cdpvs	3, 6, cr7, cr5, cr0, {0}
 698:	74794264 	ldrbtvc	r4, [r9], #-612	; 0xfffffd9c
 69c:	61695665 	cmnvs	r9, r5, ror #12
 6a0:	52415355 	subpl	r5, r1, #1409286145	; 0x54000001
 6a4:	74730054 	ldrbtvc	r0, [r3], #-84	; 0xffffffac
 6a8:	55747261 	ldrbpl	r7, [r4, #-609]!	; 0xfffffd9f
 6ac:	54524153 	ldrbpl	r4, [r2], #-339	; 0xfffffead
 6b0:	61737500 	cmnvs	r3, r0, lsl #10
 6b4:	69647472 	stmdbvs	r4!, {r1, r4, r5, r6, sl, ip, sp, lr}^
 6b8:	72730076 	rsbsvc	r0, r3, #118	; 0x76
 6bc:	65702f63 	ldrbvs	r2, [r0, #-3939]!	; 0xfffff09d
 6c0:	68706972 	ldmdavs	r0!, {r1, r4, r5, r6, r8, fp, sp, lr}^
 6c4:	6c617265 	sfmvs	f7, 2, [r1], #-404	; 0xfffffe6c
 6c8:	73752f73 	cmnvc	r5, #460	; 0x1cc
 6cc:	2e747261 	cdpcs	2, 7, cr7, cr4, cr1, {3}
 6d0:	74730063 	ldrbtvc	r0, [r3], #-99	; 0xffffff9d
 6d4:	55747261 	ldrbpl	r7, [r4, #-609]!	; 0xfffffd9f
 6d8:	54524153 	ldrbpl	r4, [r2], #-339	; 0xfffffead
 6dc:	6e617254 	mcrvs	2, 3, r7, cr1, cr4, {2}
 6e0:	73696d73 	cmnvc	r9, #7360	; 0x1cc0
 6e4:	6e6f6973 			; <UNDEFINED> instruction: 0x6e6f6973
 6e8:	75616200 	strbvc	r6, [r1, #-512]!	; 0xfffffe00
 6ec:	74617264 	strbtvc	r7, [r1], #-612	; 0xfffffd9c
 6f0:	616c0065 	cmnvs	ip, r5, rrx
 6f4:	66007473 			; <UNDEFINED> instruction: 0x66007473
 6f8:	746e6f72 	strbtvc	r6, [lr], #-3954	; 0xfffff08e
 6fc:	61656800 	cmnvs	r5, r0, lsl #16
 700:	72730064 	rsbsvc	r0, r3, #100	; 0x64
 704:	72702f63 	rsbsvc	r2, r0, #396	; 0x18c
 708:	7365636f 	cmnvc	r5, #-1140850687	; 0xbc000001
 70c:	43502f73 	cmpmi	r0, #460	; 0x1cc
 710:	696c2d42 	stmdbvs	ip!, {r1, r6, r8, sl, fp, sp}^
 714:	632e7473 			; <UNDEFINED> instruction: 0x632e7473
 718:	646f6e00 	strbtvs	r6, [pc], #-3584	; 720 <kernel_start-0x7fff920>
 71c:	64610065 	strbtvs	r0, [r1], #-101	; 0xffffff9b
 720:	42435064 	submi	r5, r3, #100	; 0x64
 724:	6d657200 	sfmvs	f7, 2, [r5, #-0]
 728:	5065766f 	rsbpl	r7, r5, pc, ror #12
 72c:	65004243 	strvs	r4, [r0, #-579]	; 0xfffffdbd
 730:	7974706d 	ldmdbvc	r4!, {r0, r2, r3, r5, r6, ip, sp, lr}^
 734:	6e6f6c00 	cdpvs	12, 6, cr6, cr15, cr0, {0}
 738:	6f642067 	svcvs	0x00642067
 73c:	656c6275 	strbvs	r6, [ip, #-629]!	; 0xfffffd8b
 740:	72756300 	rsbsvc	r6, r5, #0, 6
 744:	72700072 	rsbsvc	r0, r0, #114	; 0x72
 748:	62007665 	andvs	r7, r0, #105906176	; 0x6500000
 74c:	006b6361 	rsbeq	r6, fp, r1, ror #6
 750:	65706970 	ldrbvs	r6, [r0, #-2416]!	; 0xfffff690
 754:	0064695f 	rsbeq	r6, r4, pc, asr r9
 758:	64657375 	strbtvs	r7, [r5], #-885	; 0xfffffc8b
 75c:	7069705f 	rsbvc	r7, r9, pc, asr r0
 760:	63007365 	movwvs	r7, #869	; 0x365
 764:	746e756f 	strbtvc	r7, [lr], #-1391	; 0xfffffa91
 768:	66007265 	strvs	r7, [r0], -r5, ror #4
 76c:	5f656572 	svcpl	0x00656572
 770:	63006469 	movwvs	r6, #1129	; 0x469
 774:	74616572 	strbtvc	r6, [r1], #-1394	; 0xfffffa8e
 778:	77654e65 	strbvc	r4, [r5, -r5, ror #28]!
 77c:	636f7250 	cmnvs	pc, #80, 4
 780:	00737365 	rsbseq	r7, r3, r5, ror #6
 784:	2f637273 	svccs	0x00637273
 788:	636f7270 	cmnvs	pc, #112, 4
 78c:	2f737365 	svccs	0x00737365
 790:	636f7270 	cmnvs	pc, #112, 4
 794:	2e737365 	cdpcs	3, 7, cr7, cr3, cr5, {3}
 798:	69700063 	ldmdbvs	r0!, {r0, r1, r5, r6}^
 79c:	77006570 	smlsdxvc	r0, r0, r5, r6
 7a0:	65746972 	ldrbvs	r6, [r4, #-2418]!	; 0xfffff68e
 7a4:	65706950 	ldrbvs	r6, [r0, #-2384]!	; 0xfffff6b0
 7a8:	65747942 	ldrbvs	r7, [r4, #-2370]!	; 0xfffff6be
 7ac:	696e6900 	stmdbvs	lr!, {r8, fp, sp, lr}^
 7b0:	70695074 	rsbvc	r5, r9, r4, ror r0
 7b4:	61705365 	cmnvs	r0, r5, ror #6
 7b8:	63006563 	movwvs	r6, #1379	; 0x563
 7bc:	74616572 	strbtvc	r6, [r1], #-1394	; 0xfffffa8e
 7c0:	70695065 	rsbvc	r5, r9, r5, rrx
 7c4:	65720065 	ldrbvs	r0, [r2, #-101]!	; 0xffffff9b
 7c8:	69506461 	ldmdbvs	r0, {r0, r5, r6, sl, sp, lr}^
 7cc:	79426570 	stmdbvc	r2, {r4, r5, r6, r8, sl, sp, lr}^
 7d0:	Address 0x00000000000007d0 is out of bounds.


Disassembly of section .debug_frame:

00000000 <.debug_frame>:
   0:	0000000c 	andeq	r0, r0, ip
   4:	ffffffff 			; <UNDEFINED> instruction: 0xffffffff
   8:	7c020001 	stcvc	0, cr0, [r2], {1}
   c:	000d0c0e 	andeq	r0, sp, lr, lsl #24
  10:	0000001c 	andeq	r0, r0, ip, lsl r0
  14:	00000000 	andeq	r0, r0, r0
  18:	08000048 	stmdaeq	r0, {r3, r6}
  1c:	00000066 	andeq	r0, r0, r6, rrx
  20:	87080e41 	strhi	r0, [r8, -r1, asr #28]
  24:	41018e02 	tstmi	r1, r2, lsl #28
  28:	0d41100e 	stcleq	0, cr1, [r1, #-56]	; 0xffffffc8
  2c:	00000007 	andeq	r0, r0, r7
  30:	0000001c 	andeq	r0, r0, ip, lsl r0
  34:	00000000 	andeq	r0, r0, r0
  38:	080000ae 	stmdaeq	r0, {r1, r2, r3, r5, r7}
  3c:	0000004a 	andeq	r0, r0, sl, asr #32
  40:	87080e41 	strhi	r0, [r8, -r1, asr #28]
  44:	41018e02 	tstmi	r1, r2, lsl #28
  48:	0d41100e 	stcleq	0, cr1, [r1, #-56]	; 0xffffffc8
  4c:	00000007 	andeq	r0, r0, r7
  50:	0000001c 	andeq	r0, r0, ip, lsl r0
  54:	00000000 	andeq	r0, r0, r0
  58:	080000f8 	stmdaeq	r0, {r3, r4, r5, r6, r7}
  5c:	00000074 	andeq	r0, r0, r4, ror r0
  60:	87080e41 	strhi	r0, [r8, -r1, asr #28]
  64:	41018e02 	tstmi	r1, r2, lsl #28
  68:	0d41100e 	stcleq	0, cr1, [r1, #-56]	; 0xffffffc8
  6c:	00000007 	andeq	r0, r0, r7
  70:	0000001c 	andeq	r0, r0, ip, lsl r0
  74:	00000000 	andeq	r0, r0, r0
  78:	0800016c 	stmdaeq	r0, {r2, r3, r5, r6, r8}
  7c:	00000094 	muleq	r0, r4, r0
  80:	87080e41 	strhi	r0, [r8, -r1, asr #28]
  84:	41018e02 	tstmi	r1, r2, lsl #28
  88:	0d41180e 	stcleq	8, cr1, [r1, #-56]	; 0xffffffc8
  8c:	00000007 	andeq	r0, r0, r7
  90:	00000018 	andeq	r0, r0, r8, lsl r0
  94:	00000000 	andeq	r0, r0, r0
  98:	08000200 	stmdaeq	r0, {r9}
  9c:	0000001c 	andeq	r0, r0, ip, lsl r0
  a0:	87080e41 	strhi	r0, [r8, -r1, asr #28]
  a4:	41018e02 	tstmi	r1, r2, lsl #28
  a8:	0000070d 	andeq	r0, r0, sp, lsl #14
  ac:	0000001c 	andeq	r0, r0, ip, lsl r0
  b0:	00000000 	andeq	r0, r0, r0
  b4:	0800021c 	stmdaeq	r0, {r2, r3, r4, r9}
  b8:	00000050 	andeq	r0, r0, r0, asr r0
  bc:	87080e41 	strhi	r0, [r8, -r1, asr #28]
  c0:	41018e02 	tstmi	r1, r2, lsl #28
  c4:	0d41100e 	stcleq	0, cr1, [r1, #-56]	; 0xffffffc8
  c8:	00000007 	andeq	r0, r0, r7
  cc:	00000018 	andeq	r0, r0, r8, lsl r0
  d0:	00000000 	andeq	r0, r0, r0
  d4:	0800026c 	stmdaeq	r0, {r2, r3, r5, r6, r9}
  d8:	00000018 	andeq	r0, r0, r8, lsl r0
  dc:	87080e41 	strhi	r0, [r8, -r1, asr #28]
  e0:	41018e02 	tstmi	r1, r2, lsl #28
  e4:	0000070d 	andeq	r0, r0, sp, lsl #14
  e8:	0000001c 	andeq	r0, r0, ip, lsl r0
  ec:	00000000 	andeq	r0, r0, r0
  f0:	08000284 	stmdaeq	r0, {r2, r7, r9}
  f4:	0000003c 	andeq	r0, r0, ip, lsr r0
  f8:	87080e41 	strhi	r0, [r8, -r1, asr #28]
  fc:	41018e02 	tstmi	r1, r2, lsl #28
 100:	0c41100e 	mcrreq	0, 0, r1, r1, cr14
 104:	00000807 	andeq	r0, r0, r7, lsl #16
 108:	0000001c 	andeq	r0, r0, ip, lsl r0
 10c:	00000000 	andeq	r0, r0, r0
 110:	080002c0 	stmdaeq	r0, {r6, r7, r9}
 114:	00000038 	andeq	r0, r0, r8, lsr r0
 118:	87080e41 	strhi	r0, [r8, -r1, asr #28]
 11c:	41018e02 	tstmi	r1, r2, lsl #28
 120:	0c41100e 	mcrreq	0, 0, r1, r1, cr14
 124:	00000807 	andeq	r0, r0, r7, lsl #16
 128:	0000001c 	andeq	r0, r0, ip, lsl r0
 12c:	00000000 	andeq	r0, r0, r0
 130:	080002f8 	stmdaeq	r0, {r3, r4, r5, r6, r7, r9}
 134:	00000250 	andeq	r0, r0, r0, asr r2
 138:	87080e41 	strhi	r0, [r8, -r1, asr #28]
 13c:	41018e02 	tstmi	r1, r2, lsl #28
 140:	0d41100e 	stcleq	0, cr1, [r1, #-56]	; 0xffffffc8
 144:	00000007 	andeq	r0, r0, r7
 148:	00000018 	andeq	r0, r0, r8, lsl r0
 14c:	00000000 	andeq	r0, r0, r0
 150:	08000548 	stmdaeq	r0, {r3, r6, r8, sl}
 154:	00000098 	muleq	r0, r8, r0
 158:	87080e41 	strhi	r0, [r8, -r1, asr #28]
 15c:	41018e02 	tstmi	r1, r2, lsl #28
 160:	0000070d 	andeq	r0, r0, sp, lsl #14
 164:	00000018 	andeq	r0, r0, r8, lsl r0
 168:	00000000 	andeq	r0, r0, r0
 16c:	080005e0 	stmdaeq	r0, {r5, r6, r7, r8, sl}
 170:	00000060 	andeq	r0, r0, r0, rrx
 174:	87080e41 	strhi	r0, [r8, -r1, asr #28]
 178:	41018e02 	tstmi	r1, r2, lsl #28
 17c:	0000070d 	andeq	r0, r0, sp, lsl #14
 180:	0000000c 	andeq	r0, r0, ip
 184:	ffffffff 			; <UNDEFINED> instruction: 0xffffffff
 188:	7c020001 	stcvc	0, cr0, [r2], {1}
 18c:	000d0c0e 	andeq	r0, sp, lr, lsl #24
 190:	0000001c 	andeq	r0, r0, ip, lsl r0
 194:	00000180 	andeq	r0, r0, r0, lsl #3
 198:	08000640 	stmdaeq	r0, {r6, r9, sl}
 19c:	00000028 	andeq	r0, r0, r8, lsr #32
 1a0:	87040e41 	strhi	r0, [r4, -r1, asr #28]
 1a4:	070d4101 	streq	r4, [sp, -r1, lsl #2]
 1a8:	410d0d4e 	tstmi	sp, lr, asr #26
 1ac:	00000ec7 	andeq	r0, r0, r7, asr #29
 1b0:	0000001c 	andeq	r0, r0, ip, lsl r0
 1b4:	00000180 	andeq	r0, r0, r0, lsl #3
 1b8:	08000668 	stmdaeq	r0, {r3, r5, r6, r9, sl}
 1bc:	0000001c 	andeq	r0, r0, ip, lsl r0
 1c0:	87040e41 	strhi	r0, [r4, -r1, asr #28]
 1c4:	070d4101 	streq	r4, [sp, -r1, lsl #2]
 1c8:	410d0d48 	tstmi	sp, r8, asr #26
 1cc:	00000ec7 	andeq	r0, r0, r7, asr #29
 1d0:	0000001c 	andeq	r0, r0, ip, lsl r0
 1d4:	00000180 	andeq	r0, r0, r0, lsl #3
 1d8:	08000684 	stmdaeq	r0, {r2, r7, r9, sl}
 1dc:	0000001c 	andeq	r0, r0, ip, lsl r0
 1e0:	87040e41 	strhi	r0, [r4, -r1, asr #28]
 1e4:	070d4101 	streq	r4, [sp, -r1, lsl #2]
 1e8:	410d0d48 	tstmi	sp, r8, asr #26
 1ec:	00000ec7 	andeq	r0, r0, r7, asr #29
 1f0:	0000001c 	andeq	r0, r0, ip, lsl r0
 1f4:	00000180 	andeq	r0, r0, r0, lsl #3
 1f8:	080006a0 	stmdaeq	r0, {r5, r7, r9, sl}
 1fc:	0000001c 	andeq	r0, r0, ip, lsl r0
 200:	87040e41 	strhi	r0, [r4, -r1, asr #28]
 204:	070d4101 	streq	r4, [sp, -r1, lsl #2]
 208:	410d0d48 	tstmi	sp, r8, asr #26
 20c:	00000ec7 	andeq	r0, r0, r7, asr #29
 210:	0000001c 	andeq	r0, r0, ip, lsl r0
 214:	00000180 	andeq	r0, r0, r0, lsl #3
 218:	080006bc 	stmdaeq	r0, {r2, r3, r4, r5, r7, r9, sl}
 21c:	0000002c 	andeq	r0, r0, ip, lsr #32
 220:	87040e41 	strhi	r0, [r4, -r1, asr #28]
 224:	070d4101 	streq	r4, [sp, -r1, lsl #2]
 228:	410d0d4e 	tstmi	sp, lr, asr #26
 22c:	00000ec7 	andeq	r0, r0, r7, asr #29
 230:	00000024 	andeq	r0, r0, r4, lsr #32
 234:	00000180 	andeq	r0, r0, r0, lsl #3
 238:	080006e8 	stmdaeq	r0, {r3, r5, r6, r7, r9, sl}
 23c:	0000006c 	andeq	r0, r0, ip, rrx
 240:	87040e41 	strhi	r0, [r4, -r1, asr #28]
 244:	180e4101 	stmdane	lr, {r0, r8, lr}
 248:	6c070d41 	stcvs	13, cr0, [r7], {65}	; 0x41
 24c:	0d41040e 	cfstrdeq	mvd0, [r1, #-56]	; 0xffffffc8
 250:	0ec7410d 	poleqs	f4, f7, #5.0
 254:	00000000 	andeq	r0, r0, r0
 258:	00000024 	andeq	r0, r0, r4, lsr #32
 25c:	00000180 	andeq	r0, r0, r0, lsl #3
 260:	08000754 	stmdaeq	r0, {r2, r4, r6, r8, r9, sl}
 264:	0000004c 	andeq	r0, r0, ip, asr #32
 268:	87040e41 	strhi	r0, [r4, -r1, asr #28]
 26c:	180e4101 	stmdane	lr, {r0, r8, lr}
 270:	5c070d41 	stcpl	13, cr0, [r7], {65}	; 0x41
 274:	0d41040e 	cfstrdeq	mvd0, [r1, #-56]	; 0xffffffc8
 278:	0ec7410d 	poleqs	f4, f7, #5.0
 27c:	00000000 	andeq	r0, r0, r0
 280:	0000000c 	andeq	r0, r0, ip
 284:	00000180 	andeq	r0, r0, r0, lsl #3
 288:	080007a0 	stmdaeq	r0, {r5, r7, r8, r9, sl}
 28c:	00000010 	andeq	r0, r0, r0, lsl r0
 290:	00000020 	andeq	r0, r0, r0, lsr #32
 294:	00000180 	andeq	r0, r0, r0, lsl #3
 298:	080007b0 	stmdaeq	r0, {r4, r5, r7, r8, r9, sl}
 29c:	00000044 	andeq	r0, r0, r4, asr #32
 2a0:	87080e41 	strhi	r0, [r8, -r1, asr #28]
 2a4:	41018e02 	tstmi	r1, r2, lsl #28
 2a8:	0d41180e 	stcleq	8, cr1, [r1, #-56]	; 0xffffffc8
 2ac:	080e5b07 	stmdaeq	lr, {r0, r1, r2, r8, r9, fp, ip, lr}
 2b0:	000d0d41 	andeq	r0, sp, r1, asr #26
 2b4:	0000001c 	andeq	r0, r0, ip, lsl r0
 2b8:	00000180 	andeq	r0, r0, r0, lsl #3
 2bc:	080007f4 	stmdaeq	r0, {r2, r4, r5, r6, r7, r8, r9, sl}
 2c0:	00000014 	andeq	r0, r0, r4, lsl r0
 2c4:	87040e41 	strhi	r0, [r4, -r1, asr #28]
 2c8:	070d4101 	streq	r4, [sp, -r1, lsl #2]
 2cc:	410d0d44 	tstmi	sp, r4, asr #26
 2d0:	00000ec7 	andeq	r0, r0, r7, asr #29
 2d4:	0000000c 	andeq	r0, r0, ip
 2d8:	ffffffff 			; <UNDEFINED> instruction: 0xffffffff
 2dc:	7c020001 	stcvc	0, cr0, [r2], {1}
 2e0:	000d0c0e 	andeq	r0, sp, lr, lsl #24
 2e4:	00000024 	andeq	r0, r0, r4, lsr #32
 2e8:	000002d4 	ldrdeq	r0, [r0], -r4
 2ec:	08000808 	stmdaeq	r0, {r3, fp}
 2f0:	00000024 	andeq	r0, r0, r4, lsr #32
 2f4:	87040e41 	strhi	r0, [r4, -r1, asr #28]
 2f8:	100e4101 	andne	r4, lr, r1, lsl #2
 2fc:	4a070d41 	bmi	1c3808 <kernel_start-0x7e3c838>
 300:	0d41040e 	cfstrdeq	mvd0, [r1, #-56]	; 0xffffffc8
 304:	0ec7410d 	poleqs	f4, f7, #5.0
 308:	00000000 	andeq	r0, r0, r0
 30c:	00000018 	andeq	r0, r0, r8, lsl r0
 310:	000002d4 	ldrdeq	r0, [r0], -r4
 314:	0800082c 	stmdaeq	r0, {r2, r3, r5, fp}
 318:	00000020 	andeq	r0, r0, r0, lsr #32
 31c:	87080e41 	strhi	r0, [r8, -r1, asr #28]
 320:	41018e02 	tstmi	r1, r2, lsl #28
 324:	0000070d 	andeq	r0, r0, sp, lsl #14
 328:	00000024 	andeq	r0, r0, r4, lsr #32
 32c:	000002d4 	ldrdeq	r0, [r0], -r4
 330:	0800084c 	stmdaeq	r0, {r2, r3, r6, fp}
 334:	00000088 	andeq	r0, r0, r8, lsl #1
 338:	87040e41 	strhi	r0, [r4, -r1, asr #28]
 33c:	100e4101 	andne	r4, lr, r1, lsl #2
 340:	76070d41 	strvc	r0, [r7], -r1, asr #26
 344:	0d41040e 	cfstrdeq	mvd0, [r1, #-56]	; 0xffffffc8
 348:	0ec7410d 	poleqs	f4, f7, #5.0
 34c:	00000000 	andeq	r0, r0, r0
 350:	0000000c 	andeq	r0, r0, ip
 354:	000002d4 	ldrdeq	r0, [r0], -r4
 358:	080008d8 	stmdaeq	r0, {r3, r4, r6, r7, fp}
 35c:	000000a4 	andeq	r0, r0, r4, lsr #1
 360:	0000000c 	andeq	r0, r0, ip
 364:	ffffffff 			; <UNDEFINED> instruction: 0xffffffff
 368:	7c020001 	stcvc	0, cr0, [r2], {1}
 36c:	000d0c0e 	andeq	r0, sp, lr, lsl #24
 370:	00000024 	andeq	r0, r0, r4, lsr #32
 374:	00000360 	andeq	r0, r0, r0, ror #6
 378:	0800097c 	stmdaeq	r0, {r2, r3, r4, r5, r6, r8, fp}
 37c:	0000001a 	andeq	r0, r0, sl, lsl r0
 380:	87040e41 	strhi	r0, [r4, -r1, asr #28]
 384:	100e4101 	andne	r4, lr, r1, lsl #2
 388:	47070d41 	strmi	r0, [r7, -r1, asr #26]
 38c:	0d41040e 	cfstrdeq	mvd0, [r1, #-56]	; 0xffffffc8
 390:	0ec7410d 	poleqs	f4, f7, #5.0
 394:	00000000 	andeq	r0, r0, r0
 398:	00000024 	andeq	r0, r0, r4, lsr #32
 39c:	00000360 	andeq	r0, r0, r0, ror #6
 3a0:	08000996 	stmdaeq	r0, {r1, r2, r4, r7, r8, fp}
 3a4:	00000032 	andeq	r0, r0, r2, lsr r0
 3a8:	87040e41 	strhi	r0, [r4, -r1, asr #28]
 3ac:	100e4101 	andne	r4, lr, r1, lsl #2
 3b0:	51070d41 	tstpl	r7, r1, asr #26
 3b4:	0d41040e 	cfstrdeq	mvd0, [r1, #-56]	; 0xffffffc8
 3b8:	0ec7410d 	poleqs	f4, f7, #5.0
 3bc:	00000000 	andeq	r0, r0, r0
 3c0:	00000024 	andeq	r0, r0, r4, lsr #32
 3c4:	00000360 	andeq	r0, r0, r0, ror #6
 3c8:	080009c8 	stmdaeq	r0, {r3, r6, r7, r8, fp}
 3cc:	00000038 	andeq	r0, r0, r8, lsr r0
 3d0:	87040e41 	strhi	r0, [r4, -r1, asr #28]
 3d4:	100e4101 	andne	r4, lr, r1, lsl #2
 3d8:	4f070d41 	svcmi	0x00070d41
 3dc:	0d41040e 	cfstrdeq	mvd0, [r1, #-56]	; 0xffffffc8
 3e0:	0ec7410d 	poleqs	f4, f7, #5.0
 3e4:	00000000 	andeq	r0, r0, r0
 3e8:	00000024 	andeq	r0, r0, r4, lsr #32
 3ec:	00000360 	andeq	r0, r0, r0, ror #6
 3f0:	08000a00 	stmdaeq	r0, {r9, fp}
 3f4:	00000058 	andeq	r0, r0, r8, asr r0
 3f8:	87040e41 	strhi	r0, [r4, -r1, asr #28]
 3fc:	100e4101 	andne	r4, lr, r1, lsl #2
 400:	61070d41 	tstvs	r7, r1, asr #26
 404:	0d41040e 	cfstrdeq	mvd0, [r1, #-56]	; 0xffffffc8
 408:	0ec7410d 	poleqs	f4, f7, #5.0
 40c:	00000000 	andeq	r0, r0, r0
 410:	00000024 	andeq	r0, r0, r4, lsr #32
 414:	00000360 	andeq	r0, r0, r0, ror #6
 418:	08000a58 	stmdaeq	r0, {r3, r4, r6, r9, fp}
 41c:	00000058 	andeq	r0, r0, r8, asr r0
 420:	87040e41 	strhi	r0, [r4, -r1, asr #28]
 424:	100e4101 	andne	r4, lr, r1, lsl #2
 428:	61070d41 	tstvs	r7, r1, asr #26
 42c:	0d41040e 	cfstrdeq	mvd0, [r1, #-56]	; 0xffffffc8
 430:	0ec7410d 	poleqs	f4, f7, #5.0
 434:	00000000 	andeq	r0, r0, r0
 438:	00000028 	andeq	r0, r0, r8, lsr #32
 43c:	00000360 	andeq	r0, r0, r0, ror #6
 440:	08000ab0 	stmdaeq	r0, {r4, r5, r7, r9, fp}
 444:	00000022 	andeq	r0, r0, r2, lsr #32
 448:	000d0941 	andeq	r0, sp, r1, asr #18
 44c:	8d100e44 	ldchi	14, cr0, [r0, #-272]	; 0xfffffef0
 450:	87038304 	strhi	r8, [r3, -r4, lsl #6]
 454:	41018e02 	tstmi	r1, r2, lsl #28
 458:	0d47070d 	stcleq	7, cr0, [r7, #-52]	; 0xffffffcc
 45c:	c7ce420d 	strbgt	r4, [lr, sp, lsl #4]
 460:	000ec0c3 	andeq	ip, lr, r3, asr #1
 464:	00000028 	andeq	r0, r0, r8, lsr #32
 468:	00000360 	andeq	r0, r0, r0, ror #6
 46c:	08000ad2 	stmdaeq	r0, {r1, r4, r6, r7, r9, fp}
 470:	00000046 	andeq	r0, r0, r6, asr #32
 474:	000d0941 	andeq	r0, sp, r1, asr #18
 478:	8d100e44 	ldchi	14, cr0, [r0, #-272]	; 0xfffffef0
 47c:	87038304 	strhi	r8, [r3, -r4, lsl #6]
 480:	41018e02 	tstmi	r1, r2, lsl #28
 484:	0d54070d 	ldcleq	7, cr0, [r4, #-52]	; 0xffffffcc
 488:	c7ce420d 	strbgt	r4, [lr, sp, lsl #4]
 48c:	000ec0c3 	andeq	ip, lr, r3, asr #1
 490:	00000024 	andeq	r0, r0, r4, lsr #32
 494:	00000360 	andeq	r0, r0, r0, ror #6
 498:	08000b18 	stmdaeq	r0, {r3, r4, r8, r9, fp}
 49c:	00000016 	andeq	r0, r0, r6, lsl r0
 4a0:	000d0941 	andeq	r0, sp, r1, asr #18
 4a4:	8d080e44 	stchi	14, cr0, [r8, #-272]	; 0xfffffef0
 4a8:	41018702 	tstmi	r1, r2, lsl #14
 4ac:	0d42070d 	stcleq	7, cr0, [r2, #-52]	; 0xffffffcc
 4b0:	c0c7410d 	sbcgt	r4, r7, sp, lsl #2
 4b4:	0000000e 	andeq	r0, r0, lr
 4b8:	00000028 	andeq	r0, r0, r8, lsr #32
 4bc:	00000360 	andeq	r0, r0, r0, ror #6
 4c0:	08000b2e 	stmdaeq	r0, {r1, r2, r3, r5, r8, r9, fp}
 4c4:	00000046 	andeq	r0, r0, r6, asr #32
 4c8:	000d0941 	andeq	r0, sp, r1, asr #18
 4cc:	8d100e44 	ldchi	14, cr0, [r0, #-272]	; 0xfffffef0
 4d0:	87038304 	strhi	r8, [r3, -r4, lsl #6]
 4d4:	41018e02 	tstmi	r1, r2, lsl #28
 4d8:	0d54070d 	ldcleq	7, cr0, [r4, #-52]	; 0xffffffcc
 4dc:	c7ce420d 	strbgt	r4, [lr, sp, lsl #4]
 4e0:	000ec0c3 	andeq	ip, lr, r3, asr #1
 4e4:	00000028 	andeq	r0, r0, r8, lsr #32
 4e8:	00000360 	andeq	r0, r0, r0, ror #6
 4ec:	08000b74 	stmdaeq	r0, {r2, r4, r5, r6, r8, r9, fp}
 4f0:	00000044 	andeq	r0, r0, r4, asr #32
 4f4:	000d0941 	andeq	r0, sp, r1, asr #18
 4f8:	8d100e44 	ldchi	14, cr0, [r0, #-272]	; 0xfffffef0
 4fc:	87038304 	strhi	r8, [r3, -r4, lsl #6]
 500:	41018e02 	tstmi	r1, r2, lsl #28
 504:	0d54070d 	ldcleq	7, cr0, [r4, #-52]	; 0xffffffcc
 508:	c7ce420d 	strbgt	r4, [lr, sp, lsl #4]
 50c:	000ec0c3 	andeq	ip, lr, r3, asr #1
 510:	0000000c 	andeq	r0, r0, ip
 514:	ffffffff 			; <UNDEFINED> instruction: 0xffffffff
 518:	7c020001 	stcvc	0, cr0, [r2], {1}
 51c:	000d0c0e 	andeq	r0, sp, lr, lsl #24
 520:	0000001c 	andeq	r0, r0, ip, lsl r0
 524:	00000510 	andeq	r0, r0, r0, lsl r5
 528:	08000bb8 	stmdaeq	r0, {r3, r4, r5, r7, r8, r9, fp}
 52c:	0000001c 	andeq	r0, r0, ip, lsl r0
 530:	87040e41 	strhi	r0, [r4, -r1, asr #28]
 534:	070d4101 	streq	r4, [sp, -r1, lsl #2]
 538:	410d0d48 	tstmi	sp, r8, asr #26
 53c:	00000ec7 	andeq	r0, r0, r7, asr #29
 540:	00000024 	andeq	r0, r0, r4, lsr #32
 544:	00000510 	andeq	r0, r0, r0, lsl r5
 548:	08000bd4 	stmdaeq	r0, {r2, r4, r6, r7, r8, r9, fp}
 54c:	00000038 	andeq	r0, r0, r8, lsr r0
 550:	87040e41 	strhi	r0, [r4, -r1, asr #28]
 554:	100e4101 	andne	r4, lr, r1, lsl #2
 558:	51070d41 	tstpl	r7, r1, asr #26
 55c:	0d41040e 	cfstrdeq	mvd0, [r1, #-56]	; 0xffffffc8
 560:	0ec7410d 	poleqs	f4, f7, #5.0
 564:	00000000 	andeq	r0, r0, r0
 568:	00000024 	andeq	r0, r0, r4, lsr #32
 56c:	00000510 	andeq	r0, r0, r0, lsl r5
 570:	08000c0c 	stmdaeq	r0, {r2, r3, sl, fp}
 574:	00000040 	andeq	r0, r0, r0, asr #32
 578:	87040e41 	strhi	r0, [r4, -r1, asr #28]
 57c:	100e4101 	andne	r4, lr, r1, lsl #2
 580:	56070d41 	strpl	r0, [r7], -r1, asr #26
 584:	0d41040e 	cfstrdeq	mvd0, [r1, #-56]	; 0xffffffc8
 588:	0ec7410d 	poleqs	f4, f7, #5.0
 58c:	00000000 	andeq	r0, r0, r0
 590:	00000024 	andeq	r0, r0, r4, lsr #32
 594:	00000510 	andeq	r0, r0, r0, lsl r5
 598:	08000c4c 	stmdaeq	r0, {r2, r3, r6, sl, fp}
 59c:	00000034 	andeq	r0, r0, r4, lsr r0
 5a0:	87040e41 	strhi	r0, [r4, -r1, asr #28]
 5a4:	100e4101 	andne	r4, lr, r1, lsl #2
 5a8:	51070d41 	tstpl	r7, r1, asr #26
 5ac:	0d41040e 	cfstrdeq	mvd0, [r1, #-56]	; 0xffffffc8
 5b0:	0ec7410d 	poleqs	f4, f7, #5.0
 5b4:	00000000 	andeq	r0, r0, r0
 5b8:	00000024 	andeq	r0, r0, r4, lsr #32
 5bc:	00000510 	andeq	r0, r0, r0, lsl r5
 5c0:	08000c80 	stmdaeq	r0, {r7, sl, fp}
 5c4:	00000064 	andeq	r0, r0, r4, rrx
 5c8:	87040e41 	strhi	r0, [r4, -r1, asr #28]
 5cc:	180e4101 	stmdane	lr, {r0, r8, lr}
 5d0:	68070d41 	stmdavs	r7, {r0, r6, r8, sl, fp}
 5d4:	0d41040e 	cfstrdeq	mvd0, [r1, #-56]	; 0xffffffc8
 5d8:	0ec7410d 	poleqs	f4, f7, #5.0
 5dc:	00000000 	andeq	r0, r0, r0
 5e0:	0000000c 	andeq	r0, r0, ip
 5e4:	ffffffff 			; <UNDEFINED> instruction: 0xffffffff
 5e8:	7c020001 	stcvc	0, cr0, [r2], {1}
 5ec:	000d0c0e 	andeq	r0, sp, lr, lsl #24
 5f0:	00000024 	andeq	r0, r0, r4, lsr #32
 5f4:	000005e0 	andeq	r0, r0, r0, ror #11
 5f8:	08000ce4 	stmdaeq	r0, {r2, r5, r6, r7, sl, fp}
 5fc:	00000020 	andeq	r0, r0, r0, lsr #32
 600:	87040e41 	strhi	r0, [r4, -r1, asr #28]
 604:	100e4101 	andne	r4, lr, r1, lsl #2
 608:	48070d41 	stmdami	r7, {r0, r6, r8, sl, fp}
 60c:	0d41040e 	cfstrdeq	mvd0, [r1, #-56]	; 0xffffffc8
 610:	0ec7410d 	poleqs	f4, f7, #5.0
 614:	00000000 	andeq	r0, r0, r0
 618:	00000020 	andeq	r0, r0, r0, lsr #32
 61c:	000005e0 	andeq	r0, r0, r0, ror #11
 620:	08000d04 	stmdaeq	r0, {r2, r8, sl, fp}
 624:	00000032 	andeq	r0, r0, r2, lsr r0
 628:	87080e41 	strhi	r0, [r8, -r1, asr #28]
 62c:	41018e02 	tstmi	r1, r2, lsl #28
 630:	0d41180e 	stcleq	8, cr1, [r1, #-56]	; 0xffffffc8
 634:	080e5407 	stmdaeq	lr, {r0, r1, r2, sl, ip, lr}
 638:	000d0d41 	andeq	r0, sp, r1, asr #26
 63c:	00000020 	andeq	r0, r0, r0, lsr #32
 640:	000005e0 	andeq	r0, r0, r0, ror #11
 644:	08000d36 	stmdaeq	r0, {r1, r2, r4, r5, r8, sl, fp}
 648:	0000017e 	andeq	r0, r0, lr, ror r1
 64c:	87080e41 	strhi	r0, [r8, -r1, asr #28]
 650:	41018e02 	tstmi	r1, r2, lsl #28
 654:	0d41280e 	stcleq	8, cr2, [r1, #-56]	; 0xffffffc8
 658:	0eb30207 	cdpeq	2, 11, cr0, cr3, cr7, {0}
 65c:	0d0d4108 	stfeqs	f4, [sp, #-32]	; 0xffffffe0
 660:	00000020 	andeq	r0, r0, r0, lsr #32
 664:	000005e0 	andeq	r0, r0, r0, ror #11
 668:	08000eb4 	stmdaeq	r0, {r2, r4, r5, r7, r9, sl, fp}
 66c:	00000040 	andeq	r0, r0, r0, asr #32
 670:	87080e41 	strhi	r0, [r8, -r1, asr #28]
 674:	41018e02 	tstmi	r1, r2, lsl #28
 678:	0d41200e 	stcleq	0, cr2, [r1, #-56]	; 0xffffffc8
 67c:	080e5607 	stmdaeq	lr, {r0, r1, r2, r9, sl, ip, lr}
 680:	000d0d41 	andeq	r0, sp, r1, asr #26
 684:	0000000c 	andeq	r0, r0, ip
 688:	ffffffff 			; <UNDEFINED> instruction: 0xffffffff
 68c:	7c020001 	stcvc	0, cr0, [r2], {1}
 690:	000d0c0e 	andeq	r0, sp, lr, lsl #24
 694:	00000024 	andeq	r0, r0, r4, lsr #32
 698:	00000684 	andeq	r0, r0, r4, lsl #13
 69c:	08000ef4 	stmdaeq	r0, {r2, r4, r5, r6, r7, r9, sl, fp}
 6a0:	000000b4 	strheq	r0, [r0], -r4
 6a4:	87040e41 	strhi	r0, [r4, -r1, asr #28]
 6a8:	180e4101 	stmdane	lr, {r0, r8, lr}
 6ac:	02070d41 	andeq	r0, r7, #4160	; 0x1040
 6b0:	41040e4e 	tstmi	r4, lr, asr #28
 6b4:	c7410d0d 	strbgt	r0, [r1, -sp, lsl #26]
 6b8:	0000000e 	andeq	r0, r0, lr
 6bc:	0000001c 	andeq	r0, r0, ip, lsl r0
 6c0:	00000684 	andeq	r0, r0, r4, lsl #13
 6c4:	08000fa8 	stmdaeq	r0, {r3, r5, r7, r8, r9, sl, fp}
 6c8:	00000038 	andeq	r0, r0, r8, lsr r0
 6cc:	87040e41 	strhi	r0, [r4, -r1, asr #28]
 6d0:	070d4101 	streq	r4, [sp, -r1, lsl #2]
 6d4:	410d0d53 	tstmi	sp, r3, asr sp
 6d8:	00000ec7 	andeq	r0, r0, r7, asr #29
 6dc:	0000000c 	andeq	r0, r0, ip
 6e0:	ffffffff 			; <UNDEFINED> instruction: 0xffffffff
 6e4:	7c020001 	stcvc	0, cr0, [r2], {1}
 6e8:	000d0c0e 	andeq	r0, sp, lr, lsl #24
 6ec:	00000024 	andeq	r0, r0, r4, lsr #32
 6f0:	000006dc 	ldrdeq	r0, [r0], -ip
 6f4:	08000fe0 	stmdaeq	r0, {r5, r6, r7, r8, r9, sl, fp}
 6f8:	0000032c 	andeq	r0, r0, ip, lsr #6
 6fc:	87040e41 	strhi	r0, [r4, -r1, asr #28]
 700:	280e4101 	stmdacs	lr, {r0, r8, lr}
 704:	03070d41 	movweq	r0, #32065	; 0x7d41
 708:	040e0183 	streq	r0, [lr], #-387	; 0xfffffe7d
 70c:	410d0d41 	tstmi	sp, r1, asr #26
 710:	00000ec7 	andeq	r0, r0, r7, asr #29
 714:	00000024 	andeq	r0, r0, r4, lsr #32
 718:	000006dc 	ldrdeq	r0, [r0], -ip
 71c:	0800130c 	stmdaeq	r0, {r2, r3, r8, r9, ip}
 720:	000000a4 	andeq	r0, r0, r4, lsr #1
 724:	87040e41 	strhi	r0, [r4, -r1, asr #28]
 728:	180e4101 	stmdane	lr, {r0, r8, lr}
 72c:	02070d41 	andeq	r0, r7, #4160	; 0x1040
 730:	41040e46 	tstmi	r4, r6, asr #28
 734:	c7410d0d 	strbgt	r0, [r1, -sp, lsl #26]
 738:	0000000e 	andeq	r0, r0, lr
 73c:	0000000c 	andeq	r0, r0, ip
 740:	ffffffff 			; <UNDEFINED> instruction: 0xffffffff
 744:	7c020001 	stcvc	0, cr0, [r2], {1}
 748:	000d0c0e 	andeq	r0, sp, lr, lsl #24
 74c:	00000020 	andeq	r0, r0, r0, lsr #32
 750:	0000073c 	andeq	r0, r0, ip, lsr r7
 754:	080013b0 	stmdaeq	r0, {r4, r5, r7, r8, r9, ip}
 758:	000000a0 	andeq	r0, r0, r0, lsr #1
 75c:	87080e41 	strhi	r0, [r8, -r1, asr #28]
 760:	41018e02 	tstmi	r1, r2, lsl #28
 764:	0d41280e 	stcleq	8, cr2, [r1, #-56]	; 0xffffffc8
 768:	0e490207 	cdpeq	2, 4, cr0, cr9, cr7, {0}
 76c:	0d0d4108 	stfeqs	f4, [sp, #-32]	; 0xffffffe0
 770:	00000020 	andeq	r0, r0, r0, lsr #32
 774:	0000073c 	andeq	r0, r0, ip, lsr r7
 778:	08001450 	stmdaeq	r0, {r4, r6, sl, ip}
 77c:	0000009c 	muleq	r0, ip, r0
 780:	87080e41 	strhi	r0, [r8, -r1, asr #28]
 784:	41018e02 	tstmi	r1, r2, lsl #28
 788:	0d41200e 	stcleq	0, cr2, [r1, #-56]	; 0xffffffc8
 78c:	080e7b07 	stmdaeq	lr, {r0, r1, r2, r8, r9, fp, ip, sp, lr}
 790:	000d0d41 	andeq	r0, sp, r1, asr #26
 794:	00000024 	andeq	r0, r0, r4, lsr #32
 798:	0000073c 	andeq	r0, r0, ip, lsr r7
 79c:	080014ec 	stmdaeq	r0, {r2, r3, r5, r6, r7, sl, ip}
 7a0:	000001a4 	andeq	r0, r0, r4, lsr #3
 7a4:	87040e41 	strhi	r0, [r4, -r1, asr #28]
 7a8:	180e4101 	stmdane	lr, {r0, r8, lr}
 7ac:	02070d41 	andeq	r0, r7, #4160	; 0x1040
 7b0:	41040e9d 			; <UNDEFINED> instruction: 0x41040e9d
 7b4:	c7410d0d 	strbgt	r0, [r1, -sp, lsl #26]
 7b8:	0000000e 	andeq	r0, r0, lr
 7bc:	0000000c 	andeq	r0, r0, ip
 7c0:	ffffffff 			; <UNDEFINED> instruction: 0xffffffff
 7c4:	7c020001 	stcvc	0, cr0, [r2], {1}
 7c8:	000d0c0e 	andeq	r0, sp, lr, lsl #24
 7cc:	00000020 	andeq	r0, r0, r0, lsr #32
 7d0:	000007bc 			; <UNDEFINED> instruction: 0x000007bc
 7d4:	08001690 	stmdaeq	r0, {r4, r7, r9, sl, ip}
 7d8:	000000e0 	andeq	r0, r0, r0, ror #1
 7dc:	87080e41 	strhi	r0, [r8, -r1, asr #28]
 7e0:	41018e02 	tstmi	r1, r2, lsl #28
 7e4:	0d41280e 	stcleq	8, cr2, [r1, #-56]	; 0xffffffc8
 7e8:	0e620207 	cdpeq	2, 6, cr0, cr2, cr7, {0}
 7ec:	0d0d4108 	stfeqs	f4, [sp, #-32]	; 0xffffffe0
 7f0:	0000001c 	andeq	r0, r0, ip, lsl r0
 7f4:	000007bc 			; <UNDEFINED> instruction: 0x000007bc
 7f8:	08001770 	stmdaeq	r0, {r4, r5, r6, r8, r9, sl, ip}
 7fc:	00000028 	andeq	r0, r0, r8, lsr #32
 800:	87040e41 	strhi	r0, [r4, -r1, asr #28]
 804:	070d4101 	streq	r4, [sp, -r1, lsl #2]
 808:	410d0d4e 	tstmi	sp, lr, asr #26
 80c:	00000ec7 	andeq	r0, r0, r7, asr #29
 810:	00000024 	andeq	r0, r0, r4, lsr #32
 814:	000007bc 			; <UNDEFINED> instruction: 0x000007bc
 818:	08001798 	stmdaeq	r0, {r3, r4, r7, r8, r9, sl, ip}
 81c:	00000020 	andeq	r0, r0, r0, lsr #32
 820:	87040e41 	strhi	r0, [r4, -r1, asr #28]
 824:	100e4101 	andne	r4, lr, r1, lsl #2
 828:	47070d41 	strmi	r0, [r7, -r1, asr #26]
 82c:	0d41040e 	cfstrdeq	mvd0, [r1, #-56]	; 0xffffffc8
 830:	0ec7410d 	poleqs	f4, f7, #5.0
 834:	00000000 	andeq	r0, r0, r0
 838:	0000000c 	andeq	r0, r0, ip
 83c:	ffffffff 			; <UNDEFINED> instruction: 0xffffffff
 840:	7c020001 	stcvc	0, cr0, [r2], {1}
 844:	000d0c0e 	andeq	r0, sp, lr, lsl #24
 848:	0000001c 	andeq	r0, r0, ip, lsl r0
 84c:	00000838 	andeq	r0, r0, r8, lsr r8
 850:	080017b8 	stmdaeq	r0, {r3, r4, r5, r7, r8, r9, sl, ip}
 854:	00000020 	andeq	r0, r0, r0, lsr #32
 858:	87040e41 	strhi	r0, [r4, -r1, asr #28]
 85c:	070d4101 	streq	r4, [sp, -r1, lsl #2]
 860:	410d0d49 	tstmi	sp, r9, asr #26
 864:	00000ec7 	andeq	r0, r0, r7, asr #29
 868:	00000020 	andeq	r0, r0, r0, lsr #32
 86c:	00000838 	andeq	r0, r0, r8, lsr r8
 870:	080017d8 	stmdaeq	r0, {r3, r4, r6, r7, r8, r9, sl, ip}
 874:	00000080 	andeq	r0, r0, r0, lsl #1
 878:	87080e41 	strhi	r0, [r8, -r1, asr #28]
 87c:	41018e02 	tstmi	r1, r2, lsl #28
 880:	0d41100e 	stcleq	0, cr1, [r1, #-56]	; 0xffffffc8
 884:	080e7407 	stmdaeq	lr, {r0, r1, r2, sl, ip, sp, lr}
 888:	000d0d41 	andeq	r0, sp, r1, asr #26
 88c:	00000024 	andeq	r0, r0, r4, lsr #32
 890:	00000838 	andeq	r0, r0, r8, lsr r8
 894:	08001858 	stmdaeq	r0, {r3, r4, r6, fp, ip}
 898:	00000090 	muleq	r0, r0, r0
 89c:	87040e41 	strhi	r0, [r4, -r1, asr #28]
 8a0:	180e4101 	stmdane	lr, {r0, r8, lr}
 8a4:	7e070d41 	cdpvc	13, 0, cr0, cr7, cr1, {2}
 8a8:	0d41040e 	cfstrdeq	mvd0, [r1, #-56]	; 0xffffffc8
 8ac:	0ec7410d 	poleqs	f4, f7, #5.0
 8b0:	00000000 	andeq	r0, r0, r0
 8b4:	0000000c 	andeq	r0, r0, ip
 8b8:	ffffffff 			; <UNDEFINED> instruction: 0xffffffff
 8bc:	7c020001 	stcvc	0, cr0, [r2], {1}
 8c0:	000d0c0e 	andeq	r0, sp, lr, lsl #24
 8c4:	0000000c 	andeq	r0, r0, ip
 8c8:	000008b4 			; <UNDEFINED> instruction: 0x000008b4
 8cc:	080018e8 	stmdaeq	r0, {r3, r5, r6, r7, fp, ip}
 8d0:	000000b8 	strheq	r0, [r0], -r8
 8d4:	00000024 	andeq	r0, r0, r4, lsr #32
 8d8:	000008b4 			; <UNDEFINED> instruction: 0x000008b4
 8dc:	080019a0 	stmdaeq	r0, {r5, r7, r8, fp, ip}
 8e0:	00000058 	andeq	r0, r0, r8, asr r0
 8e4:	87040e41 	strhi	r0, [r4, -r1, asr #28]
 8e8:	100e4101 	andne	r4, lr, r1, lsl #2
 8ec:	60070d41 	andvs	r0, r7, r1, asr #26
 8f0:	0d41040e 	cfstrdeq	mvd0, [r1, #-56]	; 0xffffffc8
 8f4:	0ec7410d 	poleqs	f4, f7, #5.0
 8f8:	00000000 	andeq	r0, r0, r0
 8fc:	00000024 	andeq	r0, r0, r4, lsr #32
 900:	000008b4 			; <UNDEFINED> instruction: 0x000008b4
 904:	080019f8 	stmdaeq	r0, {r3, r4, r5, r6, r7, r8, fp, ip}
 908:	0000004c 	andeq	r0, r0, ip, asr #32
 90c:	87040e41 	strhi	r0, [r4, -r1, asr #28]
 910:	100e4101 	andne	r4, lr, r1, lsl #2
 914:	5e070d41 	cdppl	13, 0, cr0, cr7, cr1, {2}
 918:	0d41040e 	cfstrdeq	mvd0, [r1, #-56]	; 0xffffffc8
 91c:	0ec7410d 	poleqs	f4, f7, #5.0
 920:	00000000 	andeq	r0, r0, r0
 924:	00000024 	andeq	r0, r0, r4, lsr #32
 928:	000008b4 			; <UNDEFINED> instruction: 0x000008b4
 92c:	08001a44 	stmdaeq	r0, {r2, r6, r9, fp, ip}
 930:	00000062 	andeq	r0, r0, r2, rrx
 934:	87040e41 	strhi	r0, [r4, -r1, asr #28]
 938:	180e4101 	stmdane	lr, {r0, r8, lr}
 93c:	6b070d41 	blvs	1c3e48 <kernel_start-0x7e3c1f8>
 940:	0d41040e 	cfstrdeq	mvd0, [r1, #-56]	; 0xffffffc8
 944:	0ec7410d 	poleqs	f4, f7, #5.0
 948:	00000000 	andeq	r0, r0, r0
 94c:	00000024 	andeq	r0, r0, r4, lsr #32
 950:	000008b4 			; <UNDEFINED> instruction: 0x000008b4
 954:	08001aa6 	stmdaeq	r0, {r1, r2, r5, r7, r9, fp, ip}
 958:	00000060 	andeq	r0, r0, r0, rrx
 95c:	87040e41 	strhi	r0, [r4, -r1, asr #28]
 960:	180e4101 	stmdane	lr, {r0, r8, lr}
 964:	6a070d41 	bvs	1c3e70 <kernel_start-0x7e3c1d0>
 968:	0d41040e 	cfstrdeq	mvd0, [r1, #-56]	; 0xffffffc8
 96c:	0ec7410d 	poleqs	f4, f7, #5.0
 970:	00000000 	andeq	r0, r0, r0

Disassembly of section .debug_ranges:

00000000 <.debug_ranges>:
   0:	0000002a 	andeq	r0, r0, sl, lsr #32
   4:	000000da 	ldrdeq	r0, [r0], -sl
   8:	000000dc 	ldrdeq	r0, [r0], -ip
   c:	0000011c 	andeq	r0, r0, ip, lsl r1
	...
  18:	0000011e 	andeq	r0, r0, lr, lsl r1
  1c:	000001ce 	andeq	r0, r0, lr, asr #3
  20:	000001d0 	ldrdeq	r0, [r0], -r0	; <UNPREDICTABLE>
  24:	00000210 	andeq	r0, r0, r0, lsl r2
	...
  30:	00000212 	andeq	r0, r0, r2, lsl r2
  34:	000002c2 	andeq	r0, r0, r2, asr #5
  38:	000002c4 	andeq	r0, r0, r4, asr #5
  3c:	00000304 	andeq	r0, r0, r4, lsl #6
	...
